---
triple:          'arm64-apple-darwin'
binary-path:     '/Users/giuseppelobbene/Downloads/DATABASE VETTORIALE/neuralvault_rs/target/debug/deps/libneuralvault_rs.dylib'
relocations:
  - { offset: 0x1E, size: 0x8, addend: 0x0, symName: __ZN4pyo310exceptions15PyOverflowError7new_err17hb8f4d602f3b7927aE, symObjAddr: 0x0, symBinAddr: 0x888, symSize: 0x1C }
  - { offset: 0x192F, size: 0x8, addend: 0x0, symName: __ZN4pyo310exceptions15PyOverflowError7new_err17hb8f4d602f3b7927aE, symObjAddr: 0x0, symBinAddr: 0x888, symSize: 0x1C }
  - { offset: 0x1978, size: 0x8, addend: 0x0, symName: __ZN14neuralvault_rs14RustTurboQuant12unbiased_dot17he49bdebd762dcd27E, symObjAddr: 0x0, symBinAddr: 0x8A4, symSize: 0xDC }
  - { offset: 0x19A1, size: 0x8, addend: 0x0, symName: '__ZN14neuralvault_rs164_$LT$impl$u20$pyo3..impl_..pyclass..PyMethods$LT$neuralvault_rs..PyHNSW$GT$$u20$for$u20$pyo3..impl_..pyclass..PyClassImplCollector$LT$neuralvault_rs..PyHNSW$GT$$GT$10py_methods5ITEMS17h58588521c45d74c4E', symObjAddr: 0x44B8, symBinAddr: 0x170550, symSize: 0x0 }
  - { offset: 0x19B3, size: 0x8, addend: 0x0, symName: '__ZN14neuralvault_rs164_$LT$impl$u20$pyo3..impl_..pyclass..PyMethods$LT$neuralvault_rs..PyHNSW$GT$$u20$for$u20$pyo3..impl_..pyclass..PyClassImplCollector$LT$neuralvault_rs..PyHNSW$GT$$GT$10py_methods5ITEMS10trampoline17h01e467848c9dc4aeE', symObjAddr: 0x113C, symBinAddr: 0x19E0, symSize: 0x50 }
  - { offset: 0x1A09, size: 0x8, addend: 0x0, symName: '__ZN14neuralvault_rs164_$LT$impl$u20$pyo3..impl_..pyclass..PyMethods$LT$neuralvault_rs..PyHNSW$GT$$u20$for$u20$pyo3..impl_..pyclass..PyClassImplCollector$LT$neuralvault_rs..PyHNSW$GT$$GT$10py_methods5ITEMS10trampoline17h250c2e925a00354fE', symObjAddr: 0x118C, symBinAddr: 0x1A30, symSize: 0x50 }
  - { offset: 0x1A5F, size: 0x8, addend: 0x0, symName: '__ZN14neuralvault_rs164_$LT$impl$u20$pyo3..impl_..pyclass..PyMethods$LT$neuralvault_rs..PyHNSW$GT$$u20$for$u20$pyo3..impl_..pyclass..PyClassImplCollector$LT$neuralvault_rs..PyHNSW$GT$$GT$10py_methods5ITEMS10trampoline17h28e014b25173b953E', symObjAddr: 0x11DC, symBinAddr: 0x1A80, symSize: 0x4C }
  - { offset: 0x1AA7, size: 0x8, addend: 0x0, symName: '__ZN14neuralvault_rs164_$LT$impl$u20$pyo3..impl_..pyclass..PyMethods$LT$neuralvault_rs..PyHNSW$GT$$u20$for$u20$pyo3..impl_..pyclass..PyClassImplCollector$LT$neuralvault_rs..PyHNSW$GT$$GT$10py_methods5ITEMS10trampoline17h587911540908eae5E', symObjAddr: 0x1228, symBinAddr: 0x1ACC, symSize: 0x50 }
  - { offset: 0x1AFD, size: 0x8, addend: 0x0, symName: '__ZN14neuralvault_rs164_$LT$impl$u20$pyo3..impl_..pyclass..PyMethods$LT$neuralvault_rs..PyHNSW$GT$$u20$for$u20$pyo3..impl_..pyclass..PyClassImplCollector$LT$neuralvault_rs..PyHNSW$GT$$GT$10py_methods5ITEMS10trampoline17h613fdaa2de507ed4E', symObjAddr: 0x1278, symBinAddr: 0x1B1C, symSize: 0x3C }
  - { offset: 0x1B29, size: 0x8, addend: 0x0, symName: '__ZN14neuralvault_rs164_$LT$impl$u20$pyo3..impl_..pyclass..PyMethods$LT$neuralvault_rs..PyHNSW$GT$$u20$for$u20$pyo3..impl_..pyclass..PyClassImplCollector$LT$neuralvault_rs..PyHNSW$GT$$GT$10py_methods5ITEMS10trampoline17h8462548bf399418eE', symObjAddr: 0x12B4, symBinAddr: 0x1B58, symSize: 0x44 }
  - { offset: 0x1B63, size: 0x8, addend: 0x0, symName: '__ZN14neuralvault_rs164_$LT$impl$u20$pyo3..impl_..pyclass..PyMethods$LT$neuralvault_rs..PyHNSW$GT$$u20$for$u20$pyo3..impl_..pyclass..PyClassImplCollector$LT$neuralvault_rs..PyHNSW$GT$$GT$10py_methods5ITEMS10trampoline17hbd278242e21320bbE', symObjAddr: 0x12F8, symBinAddr: 0x1B9C, symSize: 0x44 }
  - { offset: 0x1B9D, size: 0x8, addend: 0x0, symName: '__ZN14neuralvault_rs164_$LT$impl$u20$pyo3..impl_..pyclass..PyMethods$LT$neuralvault_rs..PyHNSW$GT$$u20$for$u20$pyo3..impl_..pyclass..PyClassImplCollector$LT$neuralvault_rs..PyHNSW$GT$$GT$10py_methods5ITEMS10trampoline17hbf6c46e189918a1dE', symObjAddr: 0x133C, symBinAddr: 0x1BE0, symSize: 0x44 }
  - { offset: 0x1BD7, size: 0x8, addend: 0x0, symName: '__ZN14neuralvault_rs164_$LT$impl$u20$pyo3..impl_..pyclass..PyMethods$LT$neuralvault_rs..PyHNSW$GT$$u20$for$u20$pyo3..impl_..pyclass..PyClassImplCollector$LT$neuralvault_rs..PyHNSW$GT$$GT$10py_methods5ITEMS10trampoline17hc58506ff7483a75eE', symObjAddr: 0x1380, symBinAddr: 0x1C24, symSize: 0x50 }
  - { offset: 0x1C2D, size: 0x8, addend: 0x0, symName: '__ZN14neuralvault_rs164_$LT$impl$u20$pyo3..impl_..pyclass..PyMethods$LT$neuralvault_rs..PyHNSW$GT$$u20$for$u20$pyo3..impl_..pyclass..PyClassImplCollector$LT$neuralvault_rs..PyHNSW$GT$$GT$10py_methods5ITEMS10trampoline17hd312975c1ce42e4fE', symObjAddr: 0x13D0, symBinAddr: 0x1C74, symSize: 0x44 }
  - { offset: 0x1C81, size: 0x8, addend: 0x0, symName: '__ZN14neuralvault_rs180_$LT$impl$u20$pyo3..impl_..pyclass..PyMethods$LT$neuralvault_rs..RustTurboQuant$GT$$u20$for$u20$pyo3..impl_..pyclass..PyClassImplCollector$LT$neuralvault_rs..RustTurboQuant$GT$$GT$10py_methods5ITEMS17hafdce4633bf3dd71E', symObjAddr: 0x4568, symBinAddr: 0x170600, symSize: 0x0 }
  - { offset: 0x1C93, size: 0x8, addend: 0x0, symName: '__ZN14neuralvault_rs180_$LT$impl$u20$pyo3..impl_..pyclass..PyMethods$LT$neuralvault_rs..RustTurboQuant$GT$$u20$for$u20$pyo3..impl_..pyclass..PyClassImplCollector$LT$neuralvault_rs..RustTurboQuant$GT$$GT$10py_methods5ITEMS10trampoline17h6b4a6c91733a1f54E', symObjAddr: 0x1414, symBinAddr: 0x1CB8, symSize: 0x50 }
  - { offset: 0x1CE9, size: 0x8, addend: 0x0, symName: '__ZN14neuralvault_rs180_$LT$impl$u20$pyo3..impl_..pyclass..PyMethods$LT$neuralvault_rs..RustTurboQuant$GT$$u20$for$u20$pyo3..impl_..pyclass..PyClassImplCollector$LT$neuralvault_rs..RustTurboQuant$GT$$GT$10py_methods5ITEMS10trampoline17ha6995bb201c43e82E', symObjAddr: 0x1464, symBinAddr: 0x1D08, symSize: 0x4C }
  - { offset: 0x1D31, size: 0x8, addend: 0x0, symName: '__ZN14neuralvault_rs180_$LT$impl$u20$pyo3..impl_..pyclass..PyMethods$LT$neuralvault_rs..RustTurboQuant$GT$$u20$for$u20$pyo3..impl_..pyclass..PyClassImplCollector$LT$neuralvault_rs..RustTurboQuant$GT$$GT$10py_methods5ITEMS10trampoline17hd7c1e9f25ecdc928E', symObjAddr: 0x14B0, symBinAddr: 0x1D54, symSize: 0x50 }
  - { offset: 0x1DA1, size: 0x8, addend: 0x0, symName: '__ZN76_$LT$neuralvault_rs..PyHNSW$u20$as$u20$pyo3..impl_..pyclass..PyClassImpl$GT$10items_iter15INTRINSIC_ITEMS17h81f876fbbbb3235dE', symObjAddr: 0x3FC8, symBinAddr: 0x103C48, symSize: 0x0 }
  - { offset: 0x1DC1, size: 0x8, addend: 0x0, symName: '__ZN76_$LT$neuralvault_rs..PyHNSW$u20$as$u20$pyo3..impl_..pyclass..PyClassImpl$GT$16lazy_type_object11TYPE_OBJECT17h2aab15246964bc04E', symObjAddr: 0x4C98, symBinAddr: 0x17C4A8, symSize: 0x0 }
  - { offset: 0x1DE1, size: 0x8, addend: 0x0, symName: '__ZN76_$LT$neuralvault_rs..PyHNSW$u20$as$u20$pyo3..impl_..pyclass..PyClassImpl$GT$3doc3DOC17hc2c0f79cea4bdfc1E', symObjAddr: 0x4CE0, symBinAddr: 0x17C4F0, symSize: 0x0 }
  - { offset: 0x1DEF, size: 0x8, addend: 0x0, symName: '__ZN76_$LT$neuralvault_rs..PyHNSW$u20$as$u20$pyo3..impl_..pyclass..PyClassImpl$GT$10items_iter17h1026c012467c7c7dE', symObjAddr: 0x38F4, symBinAddr: 0x4198, symSize: 0x38 }
  - { offset: 0x1E2A, size: 0x8, addend: 0x0, symName: '__ZN76_$LT$neuralvault_rs..PyHNSW$u20$as$u20$pyo3..impl_..pyclass..PyClassImpl$GT$16lazy_type_object17h2a53cc3214ee4331E', symObjAddr: 0x392C, symBinAddr: 0x41D0, symSize: 0xC }
  - { offset: 0x1E47, size: 0x8, addend: 0x0, symName: '__ZN76_$LT$neuralvault_rs..PyHNSW$u20$as$u20$pyo3..impl_..pyclass..PyClassImpl$GT$3doc17he7e7c7056fcc8491E', symObjAddr: 0x3938, symBinAddr: 0x41DC, symSize: 0x3C }
  - { offset: 0x2183, size: 0x8, addend: 0x0, symName: '__ZN84_$LT$neuralvault_rs..RustTurboQuant$u20$as$u20$pyo3..impl_..pyclass..PyClassImpl$GT$10items_iter15INTRINSIC_ITEMS17h99cfa522cfedeceaE', symObjAddr: 0x3FE8, symBinAddr: 0x103C68, symSize: 0x0 }
  - { offset: 0x21A3, size: 0x8, addend: 0x0, symName: '__ZN84_$LT$neuralvault_rs..RustTurboQuant$u20$as$u20$pyo3..impl_..pyclass..PyClassImpl$GT$16lazy_type_object11TYPE_OBJECT17hbc67f4266be5fa1fE', symObjAddr: 0x4CF8, symBinAddr: 0x17C508, symSize: 0x0 }
  - { offset: 0x21C3, size: 0x8, addend: 0x0, symName: '__ZN84_$LT$neuralvault_rs..RustTurboQuant$u20$as$u20$pyo3..impl_..pyclass..PyClassImpl$GT$3doc3DOC17h2126134067041097E', symObjAddr: 0x4D40, symBinAddr: 0x17C550, symSize: 0x0 }
  - { offset: 0x21D1, size: 0x8, addend: 0x0, symName: '__ZN84_$LT$neuralvault_rs..RustTurboQuant$u20$as$u20$pyo3..impl_..pyclass..PyClassImpl$GT$10items_iter17hf3e762089041ccf7E', symObjAddr: 0x3998, symBinAddr: 0x423C, symSize: 0x38 }
  - { offset: 0x220C, size: 0x8, addend: 0x0, symName: '__ZN84_$LT$neuralvault_rs..RustTurboQuant$u20$as$u20$pyo3..impl_..pyclass..PyClassImpl$GT$16lazy_type_object17h971e10c0c8bbd239E', symObjAddr: 0x39D0, symBinAddr: 0x4274, symSize: 0xC }
  - { offset: 0x2229, size: 0x8, addend: 0x0, symName: '__ZN84_$LT$neuralvault_rs..RustTurboQuant$u20$as$u20$pyo3..impl_..pyclass..PyClassImpl$GT$3doc17h1dbc940b04ef2605E', symObjAddr: 0x39DC, symBinAddr: 0x4280, symSize: 0x3C }
  - { offset: 0x236B, size: 0x8, addend: 0x0, symName: __ZN14neuralvault_rs14neuralvault_rs17h15d5a8523478d03dE, symObjAddr: 0xED0, symBinAddr: 0x1774, symSize: 0x26C }
  - { offset: 0x2492, size: 0x8, addend: 0x0, symName: '__ZN14neuralvault_rs57_$LT$impl$u20$neuralvault_rs..neuralvault_rs..MakeDef$GT$8make_def15__pyo3_pymodule17hfa6c54fd249779f6E', symObjAddr: 0x1500, symBinAddr: 0x1DA4, symSize: 0x38 }
  - { offset: 0x24C5, size: 0x8, addend: 0x0, symName: '__ZN72_$LT$neuralvault_rs..PyHNSW$u20$as$u20$pyo3..type_object..PyTypeInfo$GT$15type_object_raw17h462b305fc0a9174dE', symObjAddr: 0x38D0, symBinAddr: 0x4174, symSize: 0x24 }
  - { offset: 0x2502, size: 0x8, addend: 0x0, symName: '__ZN80_$LT$neuralvault_rs..RustTurboQuant$u20$as$u20$pyo3..type_object..PyTypeInfo$GT$15type_object_raw17h20b52b61870983caE', symObjAddr: 0x3974, symBinAddr: 0x4218, symSize: 0x24 }
  - { offset: 0x5DEB, size: 0x8, addend: 0x0, symName: __ZN14neuralvault_rs14RustTurboQuant12unbiased_dot17he49bdebd762dcd27E, symObjAddr: 0x0, symBinAddr: 0x8A4, symSize: 0xDC }
  - { offset: 0x5E39, size: 0x8, addend: 0x0, symName: __ZN14neuralvault_rs14RustTurboQuant19__pymethod_encode__17h8b82c5cebf303404E, symObjAddr: 0xDC, symBinAddr: 0x980, symSize: 0x350 }
  - { offset: 0x5FC4, size: 0x8, addend: 0x0, symName: __ZN14neuralvault_rs14RustTurboQuant20__pymethod___new____17h151f7f740c19e922E, symObjAddr: 0x42C, symBinAddr: 0xCD0, symSize: 0x3AC }
  - { offset: 0x61A2, size: 0x8, addend: 0x0, symName: __ZN14neuralvault_rs14RustTurboQuant25__pymethod_unbiased_dot__17h9c1dd3217e0a7880E, symObjAddr: 0x7D8, symBinAddr: 0x107C, symSize: 0x64C }
  - { offset: 0x63C9, size: 0x8, addend: 0x0, symName: __ZN14neuralvault_rs14RustTurboQuant3new17h8df5cf4a6934b373E, symObjAddr: 0xE24, symBinAddr: 0x16C8, symSize: 0x24 }
  - { offset: 0x6417, size: 0x8, addend: 0x0, symName: __ZN14neuralvault_rs14RustTurboQuant6encode17hfd83617288e60af0E, symObjAddr: 0xE48, symBinAddr: 0x16EC, symSize: 0x88 }
  - { offset: 0x6455, size: 0x8, addend: 0x0, symName: __ZN14neuralvault_rs6PyHNSW11total_edges17h97856ba566ef464bE, symObjAddr: 0x1538, symBinAddr: 0x1DDC, symSize: 0x30 }
  - { offset: 0x647E, size: 0x8, addend: 0x0, symName: __ZN14neuralvault_rs6PyHNSW15pin_to_hardware17hca3f5065c8b21ed5E, symObjAddr: 0x1568, symBinAddr: 0x1E0C, symSize: 0xB4 }
  - { offset: 0x64CA, size: 0x8, addend: 0x0, symName: __ZN14neuralvault_rs6PyHNSW16__pymethod_dim__17h9f08f27cab599d73E, symObjAddr: 0x161C, symBinAddr: 0x1EC0, symSize: 0x1B8 }
  - { offset: 0x65BA, size: 0x8, addend: 0x0, symName: __ZN14neuralvault_rs6PyHNSW16get_edges_sample17h2b60b933fd8f5a39E, symObjAddr: 0x17D4, symBinAddr: 0x2078, symSize: 0x28 }
  - { offset: 0x65EA, size: 0x8, addend: 0x0, symName: __ZN14neuralvault_rs6PyHNSW19__pymethod_delete__17h654f4ec6bc225b18E, symObjAddr: 0x17FC, symBinAddr: 0x20A0, symSize: 0x350 }
  - { offset: 0x6775, size: 0x8, addend: 0x0, symName: __ZN14neuralvault_rs6PyHNSW19__pymethod_insert__17h3d6dcf86182d99edE, symObjAddr: 0x1B4C, symBinAddr: 0x23F0, symSize: 0x530 }
  - { offset: 0x6952, size: 0x8, addend: 0x0, symName: __ZN14neuralvault_rs6PyHNSW19__pymethod_search__17h6e7b2a584fa4f313E, symObjAddr: 0x207C, symBinAddr: 0x2920, symSize: 0x624 }
  - { offset: 0x6B79, size: 0x8, addend: 0x0, symName: __ZN14neuralvault_rs6PyHNSW20__pymethod___len____17h740838a4e941f846E, symObjAddr: 0x26A0, symBinAddr: 0x2F44, symSize: 0x11C }
  - { offset: 0x6C32, size: 0x8, addend: 0x0, symName: __ZN14neuralvault_rs6PyHNSW20__pymethod___new____17h9823fdd6b1ae426bE, symObjAddr: 0x27BC, symBinAddr: 0x3060, symSize: 0x4E0 }
  - { offset: 0x6E5A, size: 0x8, addend: 0x0, symName: __ZN14neuralvault_rs6PyHNSW22__pymethod_max_level__17h4e6c2bf1a80db905E, symObjAddr: 0x2C9C, symBinAddr: 0x3540, symSize: 0x1B8 }
  - { offset: 0x6F2B, size: 0x8, addend: 0x0, symName: __ZN14neuralvault_rs6PyHNSW24__pymethod_total_edges__17hc90f5a6194864137E, symObjAddr: 0x2E54, symBinAddr: 0x36F8, symSize: 0x1B8 }
  - { offset: 0x6FFD, size: 0x8, addend: 0x0, symName: __ZN14neuralvault_rs6PyHNSW28__pymethod_pin_to_hardware__17hcba8b962b35daa21E, symObjAddr: 0x300C, symBinAddr: 0x38B0, symSize: 0x1B8 }
  - { offset: 0x70CE, size: 0x8, addend: 0x0, symName: __ZN14neuralvault_rs6PyHNSW29__pymethod_get_edges_sample__17h2cf96586dd0bc979E, symObjAddr: 0x31C4, symBinAddr: 0x3A68, symSize: 0x330 }
  - { offset: 0x7259, size: 0x8, addend: 0x0, symName: __ZN14neuralvault_rs6PyHNSW3dim17hf23e0728b91fd768E, symObjAddr: 0x34F4, symBinAddr: 0x3D98, symSize: 0x18 }
  - { offset: 0x727B, size: 0x8, addend: 0x0, symName: __ZN14neuralvault_rs6PyHNSW3new17h2ece4afe0caaca99E, symObjAddr: 0x350C, symBinAddr: 0x3DB0, symSize: 0x50 }
  - { offset: 0x72C6, size: 0x8, addend: 0x0, symName: __ZN14neuralvault_rs6PyHNSW6delete17hf123710c3940ce3fE, symObjAddr: 0x355C, symBinAddr: 0x3E00, symSize: 0x3C }
  - { offset: 0x72F7, size: 0x8, addend: 0x0, symName: __ZN14neuralvault_rs6PyHNSW6insert17h4a39a6909e566537E, symObjAddr: 0x3598, symBinAddr: 0x3E3C, symSize: 0x54 }
  - { offset: 0x7355, size: 0x8, addend: 0x0, symName: __ZN14neuralvault_rs6PyHNSW6search17h3c5115c6b5a212daE, symObjAddr: 0x35EC, symBinAddr: 0x3E90, symSize: 0x2A8 }
  - { offset: 0x744D, size: 0x8, addend: 0x0, symName: __ZN14neuralvault_rs6PyHNSW7__len__17h1f9df087eade104eE, symObjAddr: 0x3894, symBinAddr: 0x4138, symSize: 0x24 }
  - { offset: 0x746F, size: 0x8, addend: 0x0, symName: __ZN14neuralvault_rs6PyHNSW9max_level17h7821f89f45867fc9E, symObjAddr: 0x38B8, symBinAddr: 0x415C, symSize: 0x18 }
  - { offset: 0x76B3, size: 0x8, addend: 0x0, symName: __ZN10rayon_core9FnContext3new17hce339b3cbdcf4515E, symObjAddr: 0x0, symBinAddr: 0x42BC, symSize: 0x10 }
  - { offset: 0x774C, size: 0x8, addend: 0x0, symName: __ZN10rayon_core9FnContext3new17hce339b3cbdcf4515E, symObjAddr: 0x0, symBinAddr: 0x42BC, symSize: 0x10 }
  - { offset: 0x777C, size: 0x8, addend: 0x0, symName: __ZN10rayon_core9FnContext8migrated17h7bc31d0ff8c40a16E, symObjAddr: 0x10, symBinAddr: 0x42CC, symSize: 0x1C }
  - { offset: 0x77BD, size: 0x8, addend: 0x0, symName: '__ZN4core3num23_$LT$impl$u20$usize$GT$13unchecked_add18precondition_check17h87ad0a2f253edff2E', symObjAddr: 0x0, symBinAddr: 0x42E8, symSize: 0x64 }
  - { offset: 0x7808, size: 0x8, addend: 0x0, symName: '__ZN4core3num23_$LT$impl$u20$usize$GT$13unchecked_add18precondition_check17h87ad0a2f253edff2E', symObjAddr: 0x0, symBinAddr: 0x42E8, symSize: 0x64 }
  - { offset: 0x78B1, size: 0x8, addend: 0x0, symName: '__ZN4core3num23_$LT$impl$u20$usize$GT$13unchecked_mul18precondition_check17h9a1837e1a2e65466E', symObjAddr: 0x64, symBinAddr: 0x434C, symSize: 0x60 }
  - { offset: 0x7930, size: 0x8, addend: 0x0, symName: '__ZN4core3num23_$LT$impl$u20$usize$GT$13unchecked_sub18precondition_check17h9e05862dc2ff23d7E', symObjAddr: 0xC4, symBinAddr: 0x43AC, symSize: 0x60 }
  - { offset: 0x79FF, size: 0x8, addend: 0x0, symName: __ZN3std5panic12catch_unwind17h035edb2fee322c41E, symObjAddr: 0x0, symBinAddr: 0x440C, symSize: 0x104 }
  - { offset: 0xB057, size: 0x8, addend: 0x0, symName: __ZN3std5panic12catch_unwind17h035edb2fee322c41E, symObjAddr: 0x0, symBinAddr: 0x440C, symSize: 0x104 }
  - { offset: 0xB1B2, size: 0x8, addend: 0x0, symName: __ZN3std5panic12catch_unwind17h0c514ec0753359f9E, symObjAddr: 0x104, symBinAddr: 0x4510, symSize: 0x104 }
  - { offset: 0xB30D, size: 0x8, addend: 0x0, symName: __ZN3std5panic12catch_unwind17h158be111d98a3acaE, symObjAddr: 0x208, symBinAddr: 0x4614, symSize: 0x104 }
  - { offset: 0xB468, size: 0x8, addend: 0x0, symName: __ZN3std5panic12catch_unwind17h1682a07a77c78089E, symObjAddr: 0x30C, symBinAddr: 0x4718, symSize: 0x10C }
  - { offset: 0xB5C4, size: 0x8, addend: 0x0, symName: __ZN3std5panic12catch_unwind17h354830248af9ffc6E, symObjAddr: 0x418, symBinAddr: 0x4824, symSize: 0xDC }
  - { offset: 0xB6E9, size: 0x8, addend: 0x0, symName: __ZN3std5panic12catch_unwind17h412df0e7eec13fd9E, symObjAddr: 0x4F4, symBinAddr: 0x4900, symSize: 0xDC }
  - { offset: 0xB80E, size: 0x8, addend: 0x0, symName: __ZN3std5panic12catch_unwind17h5d06d59f777e2b6aE, symObjAddr: 0x5D0, symBinAddr: 0x49DC, symSize: 0xDC }
  - { offset: 0xB933, size: 0x8, addend: 0x0, symName: __ZN3std5panic12catch_unwind17h66aee8df0e2deb63E, symObjAddr: 0x6AC, symBinAddr: 0x4AB8, symSize: 0xCC }
  - { offset: 0xBA58, size: 0x8, addend: 0x0, symName: __ZN3std5panic12catch_unwind17h684e09c705128586E, symObjAddr: 0x778, symBinAddr: 0x4B84, symSize: 0xF8 }
  - { offset: 0xBBB2, size: 0x8, addend: 0x0, symName: __ZN3std5panic12catch_unwind17h857105c568df86efE, symObjAddr: 0x870, symBinAddr: 0x4C7C, symSize: 0x118 }
  - { offset: 0xBD0E, size: 0x8, addend: 0x0, symName: __ZN3std5panic12catch_unwind17h8b6999768cda39dcE, symObjAddr: 0x988, symBinAddr: 0x4D94, symSize: 0x118 }
  - { offset: 0xBE6A, size: 0x8, addend: 0x0, symName: __ZN3std5panic12catch_unwind17hb7238f01c39cca94E, symObjAddr: 0xAA0, symBinAddr: 0x4EAC, symSize: 0x118 }
  - { offset: 0xBFC6, size: 0x8, addend: 0x0, symName: __ZN3std5panic12catch_unwind17hdabb610b1445e793E, symObjAddr: 0xBB8, symBinAddr: 0x4FC4, symSize: 0x118 }
  - { offset: 0xC122, size: 0x8, addend: 0x0, symName: __ZN3std5panic12catch_unwind17he61c9c486940c5afE, symObjAddr: 0xCD0, symBinAddr: 0x50DC, symSize: 0x104 }
  - { offset: 0xD759, size: 0x8, addend: 0x0, symName: __ZN3std3sys12thread_local20abort_on_dtor_unwind17h505f049e5744d66eE, symObjAddr: 0x0, symBinAddr: 0x5234, symSize: 0x50 }
  - { offset: 0xD775, size: 0x8, addend: 0x0, symName: __ZN3std3sys12thread_local20abort_on_dtor_unwind17h505f049e5744d66eE, symObjAddr: 0x0, symBinAddr: 0x5234, symSize: 0x50 }
  - { offset: 0xD838, size: 0x8, addend: 0x0, symName: __ZN8pyo3_ffi11tupleobject13PyTuple_Check17h23f1d294d394f436E, symObjAddr: 0x0, symBinAddr: 0x5284, symSize: 0x30 }
  - { offset: 0xD8B5, size: 0x8, addend: 0x0, symName: __ZN8pyo3_ffi11tupleobject13PyTuple_Check17h23f1d294d394f436E, symObjAddr: 0x0, symBinAddr: 0x5284, symSize: 0x30 }
  - { offset: 0xED1B, size: 0x8, addend: 0x0, symName: '__ZN4core3ops9try_trait26NeverShortCircuit$LT$T$GT$10wrap_mut_228_$u7b$$u7b$closure$u7d$$u7d$17h5c835566178cd1f1E', symObjAddr: 0x0, symBinAddr: 0x52B4, symSize: 0x2C }
  - { offset: 0xED41, size: 0x8, addend: 0x0, symName: '__ZN4core3ops9try_trait26NeverShortCircuit$LT$T$GT$10wrap_mut_228_$u7b$$u7b$closure$u7d$$u7d$17h5c835566178cd1f1E', symObjAddr: 0x0, symBinAddr: 0x52B4, symSize: 0x2C }
  - { offset: 0xF527, size: 0x8, addend: 0x0, symName: __ZN5alloc3vec16in_place_collect13needs_realloc17h8ff34a03c51ae079E, symObjAddr: 0x0, symBinAddr: 0x52E0, symSize: 0x2C }
  - { offset: 0xFFD4, size: 0x8, addend: 0x0, symName: __ZN5alloc3vec16in_place_collect13needs_realloc17h8ff34a03c51ae079E, symObjAddr: 0x0, symBinAddr: 0x52E0, symSize: 0x2C }
  - { offset: 0x10020, size: 0x8, addend: 0x0, symName: __ZN5alloc3vec16in_place_collect13needs_realloc17hc03fe550f58aa0e9E, symObjAddr: 0x2C, symBinAddr: 0x530C, symSize: 0x2C }
  - { offset: 0x1006C, size: 0x8, addend: 0x0, symName: __ZN5alloc3vec16in_place_collect13needs_realloc17hc73dc95161909f8dE, symObjAddr: 0x58, symBinAddr: 0x5338, symSize: 0x2C }
  - { offset: 0x100B8, size: 0x8, addend: 0x0, symName: __ZN5alloc3vec16in_place_collect18from_iter_in_place17h0e69d67c0faac8aaE, symObjAddr: 0x84, symBinAddr: 0x5364, symSize: 0x394 }
  - { offset: 0x1063C, size: 0x8, addend: 0x0, symName: __ZN5alloc3vec16in_place_collect18from_iter_in_place17h24af928cdf205168E, symObjAddr: 0x418, symBinAddr: 0x56F8, symSize: 0x394 }
  - { offset: 0x10BC0, size: 0x8, addend: 0x0, symName: __ZN5alloc3vec16in_place_collect18from_iter_in_place17hf88bfe04e159d78bE, symObjAddr: 0x7AC, symBinAddr: 0x5A8C, symSize: 0x394 }
  - { offset: 0x11149, size: 0x8, addend: 0x0, symName: '__ZN5alloc3vec16in_place_collect24write_in_place_with_drop28_$u7b$$u7b$closure$u7d$$u7d$17h18735332e5beaa48E', symObjAddr: 0xB40, symBinAddr: 0x5E20, symSize: 0x40 }
  - { offset: 0x111CA, size: 0x8, addend: 0x0, symName: '__ZN5alloc3vec16in_place_collect24write_in_place_with_drop28_$u7b$$u7b$closure$u7d$$u7d$17h2597cccc0e1a1053E', symObjAddr: 0xB80, symBinAddr: 0x5E60, symSize: 0x40 }
  - { offset: 0x120F4, size: 0x8, addend: 0x0, symName: __ZN4core5alloc6layout6Layout25from_size_align_unchecked18precondition_check17h73d7865a52fc72ceE, symObjAddr: 0x0, symBinAddr: 0x5EA0, symSize: 0xBC }
  - { offset: 0x1251C, size: 0x8, addend: 0x0, symName: __ZN4core5alloc6layout6Layout25from_size_align_unchecked18precondition_check17h73d7865a52fc72ceE, symObjAddr: 0x0, symBinAddr: 0x5EA0, symSize: 0xBC }
  - { offset: 0x1277F, size: 0x8, addend: 0x0, symName: '__ZN58_$LT$T$u20$as$u20$pyo3..err..err_state..PyErrArguments$GT$9arguments17hba723d4779dc1f7dE', symObjAddr: 0x0, symBinAddr: 0x5F5C, symSize: 0x1C }
  - { offset: 0x13941, size: 0x8, addend: 0x0, symName: '__ZN58_$LT$T$u20$as$u20$pyo3..err..err_state..PyErrArguments$GT$9arguments17hba723d4779dc1f7dE', symObjAddr: 0x0, symBinAddr: 0x5F5C, symSize: 0x1C }
  - { offset: 0x13F0F, size: 0x8, addend: 0x0, symName: '__ZN79_$LT$pyo3..types..string..PyString$u20$as$u20$pyo3..type_object..PyTypeInfo$GT$16is_type_of_bound17h534717a7bf5e1938E', symObjAddr: 0x0, symBinAddr: 0x5F78, symSize: 0x30 }
  - { offset: 0x1510D, size: 0x8, addend: 0x0, symName: '__ZN79_$LT$pyo3..types..string..PyString$u20$as$u20$pyo3..type_object..PyTypeInfo$GT$16is_type_of_bound17h534717a7bf5e1938E', symObjAddr: 0x0, symBinAddr: 0x5F78, symSize: 0x30 }
  - { offset: 0x156EA, size: 0x8, addend: 0x0, symName: __ZN4core4iter6traits8iterator8Iterator3zip17hcc47527be7a07041E, symObjAddr: 0x0, symBinAddr: 0x5FA8, symSize: 0xB4 }
  - { offset: 0x15FD0, size: 0x8, addend: 0x0, symName: __ZN4core4iter6traits8iterator8Iterator3zip17hcc47527be7a07041E, symObjAddr: 0x0, symBinAddr: 0x5FA8, symSize: 0xB4 }
  - { offset: 0x16046, size: 0x8, addend: 0x0, symName: __ZN4core4iter6traits8iterator8Iterator4take17hbcdd0fbdf53bb338E, symObjAddr: 0xB4, symBinAddr: 0x605C, symSize: 0x24 }
  - { offset: 0x16CD5, size: 0x8, addend: 0x0, symName: '__ZN4pyo35types5tuple132_$LT$impl$u20$pyo3..conversion..IntoPy$LT$pyo3..instance..Py$LT$pyo3..types..any..PyAny$GT$$GT$$u20$for$u20$$LP$T0$C$T1$C$T2$RP$$GT$7into_py17h0c1c505a82fa6b67E', symObjAddr: 0xD8, symBinAddr: 0x6080, symSize: 0x138 }
  - { offset: 0x16D3B, size: 0x8, addend: 0x0, symName: __ZN4pyo35types5tuple16array_into_tuple17h3a03413d250d290aE, symObjAddr: 0x210, symBinAddr: 0x61B8, symSize: 0x1E8 }
  - { offset: 0x16F8A, size: 0x8, addend: 0x0, symName: '__ZN52_$LT$T$u20$as$u20$pyo3..type_object..PyTypeCheck$GT$10type_check17hcf7589dc94a5619fE', symObjAddr: 0x3F8, symBinAddr: 0x63A0, symSize: 0x24 }
  - { offset: 0x17541, size: 0x8, addend: 0x0, symName: '__ZN103_$LT$alloc..vec..into_iter..IntoIter$LT$T$C$A$GT$$u20$as$u20$core..iter..traits..iterator..Iterator$GT$4fold17hb2817a16d6263ba9E', symObjAddr: 0x0, symBinAddr: 0x63C4, symSize: 0x104 }
  - { offset: 0x1AA66, size: 0x8, addend: 0x0, symName: __ZN4core4iter6traits10exact_size17ExactSizeIterator3len17h220a3ad73750fc6bE, symObjAddr: 0x154C, symBinAddr: 0x7910, symSize: 0xB8 }
  - { offset: 0x1AB32, size: 0x8, addend: 0x0, symName: __ZN4core4iter6traits10exact_size17ExactSizeIterator3len17h5e47168551777ab3E, symObjAddr: 0x1604, symBinAddr: 0x79C8, symSize: 0xB8 }
  - { offset: 0x1ABFE, size: 0x8, addend: 0x0, symName: __ZN4core4iter6traits10exact_size17ExactSizeIterator3len17h5e4fdc345637bc4cE, symObjAddr: 0x16BC, symBinAddr: 0x7A80, symSize: 0xB8 }
  - { offset: 0x1B13C, size: 0x8, addend: 0x0, symName: __ZN4core4iter6traits8iterator8Iterator3map17h00c028be41a4a07cE, symObjAddr: 0x1774, symBinAddr: 0x7B38, symSize: 0x1C }
  - { offset: 0x1B1A9, size: 0x8, addend: 0x0, symName: __ZN4core4iter6traits8iterator8Iterator3map17h0c5f6982c9bad072E, symObjAddr: 0x1790, symBinAddr: 0x7B54, symSize: 0x28 }
  - { offset: 0x1B216, size: 0x8, addend: 0x0, symName: __ZN4core4iter6traits8iterator8Iterator3map17h270fb97129454d2aE, symObjAddr: 0x17B8, symBinAddr: 0x7B7C, symSize: 0x28 }
  - { offset: 0x1B283, size: 0x8, addend: 0x0, symName: __ZN4core4iter6traits8iterator8Iterator3map17h8b53c95cd79b40f7E, symObjAddr: 0x17E0, symBinAddr: 0x7BA4, symSize: 0x28 }
  - { offset: 0x1B2F0, size: 0x8, addend: 0x0, symName: __ZN4core4iter6traits8iterator8Iterator3map17hd76e9d3d217e1cb0E, symObjAddr: 0x1808, symBinAddr: 0x7BCC, symSize: 0x28 }
  - { offset: 0x1B35D, size: 0x8, addend: 0x0, symName: __ZN4core4iter6traits8iterator8Iterator4take17h06fdd7a768b033f7E, symObjAddr: 0x1830, symBinAddr: 0x7BF4, symSize: 0x24 }
  - { offset: 0x1B3B8, size: 0x8, addend: 0x0, symName: __ZN4core4iter6traits8iterator8Iterator4take17h39b42ebf59725190E, symObjAddr: 0x1854, symBinAddr: 0x7C18, symSize: 0x24 }
  - { offset: 0x1BC05, size: 0x8, addend: 0x0, symName: '__ZN103_$LT$alloc..vec..into_iter..IntoIter$LT$T$C$A$GT$$u20$as$u20$core..iter..traits..iterator..Iterator$GT$4fold17hb2817a16d6263ba9E', symObjAddr: 0x0, symBinAddr: 0x63C4, symSize: 0x104 }
  - { offset: 0x1BDB4, size: 0x8, addend: 0x0, symName: '__ZN103_$LT$alloc..vec..into_iter..IntoIter$LT$T$C$A$GT$$u20$as$u20$core..iter..traits..iterator..Iterator$GT$4next17h0475a737cf811b9cE', symObjAddr: 0x104, symBinAddr: 0x64C8, symSize: 0xBC }
  - { offset: 0x1BF0C, size: 0x8, addend: 0x0, symName: '__ZN103_$LT$alloc..vec..into_iter..IntoIter$LT$T$C$A$GT$$u20$as$u20$core..iter..traits..iterator..Iterator$GT$4next17h21ebe7b597e61bcdE', symObjAddr: 0x1C0, symBinAddr: 0x6584, symSize: 0xA0 }
  - { offset: 0x1C066, size: 0x8, addend: 0x0, symName: '__ZN103_$LT$alloc..vec..into_iter..IntoIter$LT$T$C$A$GT$$u20$as$u20$core..iter..traits..iterator..Iterator$GT$4next17h2e20612d83f7cd44E', symObjAddr: 0x260, symBinAddr: 0x6624, symSize: 0xB8 }
  - { offset: 0x1C1BE, size: 0x8, addend: 0x0, symName: '__ZN103_$LT$alloc..vec..into_iter..IntoIter$LT$T$C$A$GT$$u20$as$u20$core..iter..traits..iterator..Iterator$GT$4next17h2f03c8167c45350aE', symObjAddr: 0x318, symBinAddr: 0x66DC, symSize: 0x98 }
  - { offset: 0x1C318, size: 0x8, addend: 0x0, symName: '__ZN103_$LT$alloc..vec..into_iter..IntoIter$LT$T$C$A$GT$$u20$as$u20$core..iter..traits..iterator..Iterator$GT$4next17h428f1ab4b5057ed1E', symObjAddr: 0x3B0, symBinAddr: 0x6774, symSize: 0xAC }
  - { offset: 0x1C476, size: 0x8, addend: 0x0, symName: '__ZN103_$LT$alloc..vec..into_iter..IntoIter$LT$T$C$A$GT$$u20$as$u20$core..iter..traits..iterator..Iterator$GT$4next17hf9c0332f5a847753E', symObjAddr: 0x45C, symBinAddr: 0x6820, symSize: 0xA0 }
  - { offset: 0x1C5D0, size: 0x8, addend: 0x0, symName: '__ZN103_$LT$alloc..vec..into_iter..IntoIter$LT$T$C$A$GT$$u20$as$u20$core..iter..traits..iterator..Iterator$GT$8try_fold17h03507cab9a0c590cE', symObjAddr: 0x4FC, symBinAddr: 0x68C0, symSize: 0x1C8 }
  - { offset: 0x1C795, size: 0x8, addend: 0x0, symName: '__ZN103_$LT$alloc..vec..into_iter..IntoIter$LT$T$C$A$GT$$u20$as$u20$core..iter..traits..iterator..Iterator$GT$8try_fold17h63b317cb75323a37E', symObjAddr: 0x6C4, symBinAddr: 0x6A88, symSize: 0x1B8 }
  - { offset: 0x1C975, size: 0x8, addend: 0x0, symName: '__ZN103_$LT$alloc..vec..into_iter..IntoIter$LT$T$C$A$GT$$u20$as$u20$core..iter..traits..iterator..Iterator$GT$8try_fold17h89b18c489d6b91a2E', symObjAddr: 0x87C, symBinAddr: 0x6C40, symSize: 0x174 }
  - { offset: 0x1CB4C, size: 0x8, addend: 0x0, symName: '__ZN103_$LT$alloc..vec..into_iter..IntoIter$LT$T$C$A$GT$$u20$as$u20$core..iter..traits..iterator..Iterator$GT$8try_fold17h9210f41f7d5009b0E', symObjAddr: 0x9F0, symBinAddr: 0x6DB4, symSize: 0x1A4 }
  - { offset: 0x1CD24, size: 0x8, addend: 0x0, symName: '__ZN103_$LT$alloc..vec..into_iter..IntoIter$LT$T$C$A$GT$$u20$as$u20$core..iter..traits..iterator..Iterator$GT$8try_fold17ha746b8aaaffdeb91E', symObjAddr: 0xB94, symBinAddr: 0x6F58, symSize: 0x188 }
  - { offset: 0x1CEFA, size: 0x8, addend: 0x0, symName: '__ZN103_$LT$alloc..vec..into_iter..IntoIter$LT$T$C$A$GT$$u20$as$u20$core..iter..traits..iterator..Iterator$GT$8try_fold17hd7eb8f5d53b71d5aE', symObjAddr: 0xD1C, symBinAddr: 0x70E0, symSize: 0x1B4 }
  - { offset: 0x1D0D5, size: 0x8, addend: 0x0, symName: '__ZN103_$LT$alloc..vec..into_iter..IntoIter$LT$T$C$A$GT$$u20$as$u20$core..iter..traits..iterator..Iterator$GT$9size_hint17h0ccfd018dd90e2fbE', symObjAddr: 0xED0, symBinAddr: 0x7294, symSize: 0xB4 }
  - { offset: 0x1D1EE, size: 0x8, addend: 0x0, symName: '__ZN103_$LT$alloc..vec..into_iter..IntoIter$LT$T$C$A$GT$$u20$as$u20$core..iter..traits..iterator..Iterator$GT$9size_hint17h1987f0fe4ea9bf7aE', symObjAddr: 0xF84, symBinAddr: 0x7348, symSize: 0xB4 }
  - { offset: 0x1D307, size: 0x8, addend: 0x0, symName: '__ZN103_$LT$alloc..vec..into_iter..IntoIter$LT$T$C$A$GT$$u20$as$u20$core..iter..traits..iterator..Iterator$GT$9size_hint17h2116202ff1727e3dE', symObjAddr: 0x1038, symBinAddr: 0x73FC, symSize: 0xB4 }
  - { offset: 0x1D420, size: 0x8, addend: 0x0, symName: '__ZN103_$LT$alloc..vec..into_iter..IntoIter$LT$T$C$A$GT$$u20$as$u20$core..iter..traits..iterator..Iterator$GT$9size_hint17h71fc877335f41acaE', symObjAddr: 0x10EC, symBinAddr: 0x74B0, symSize: 0xB4 }
  - { offset: 0x1D539, size: 0x8, addend: 0x0, symName: '__ZN103_$LT$alloc..vec..into_iter..IntoIter$LT$T$C$A$GT$$u20$as$u20$core..iter..traits..iterator..Iterator$GT$9size_hint17h74f45c3c9f6b3698E', symObjAddr: 0x11A0, symBinAddr: 0x7564, symSize: 0xB4 }
  - { offset: 0x1D652, size: 0x8, addend: 0x0, symName: '__ZN103_$LT$alloc..vec..into_iter..IntoIter$LT$T$C$A$GT$$u20$as$u20$core..iter..traits..iterator..Iterator$GT$9size_hint17haadda4f82f6ab408E', symObjAddr: 0x1254, symBinAddr: 0x7618, symSize: 0xB4 }
  - { offset: 0x1D76B, size: 0x8, addend: 0x0, symName: '__ZN103_$LT$alloc..vec..into_iter..IntoIter$LT$T$C$A$GT$$u20$as$u20$core..iter..traits..iterator..Iterator$GT$9size_hint17hc56ff3951d6861d4E', symObjAddr: 0x1308, symBinAddr: 0x76CC, symSize: 0xB4 }
  - { offset: 0x1D884, size: 0x8, addend: 0x0, symName: '__ZN103_$LT$alloc..vec..into_iter..IntoIter$LT$T$C$A$GT$$u20$as$u20$core..iter..traits..iterator..Iterator$GT$9size_hint17he5771ad7a4fc1555E', symObjAddr: 0x13BC, symBinAddr: 0x7780, symSize: 0xB4 }
  - { offset: 0x1D9A3, size: 0x8, addend: 0x0, symName: '__ZN104_$LT$alloc..vec..into_iter..IntoIter$LT$T$GT$$u20$as$u20$alloc..vec..in_place_collect..AsVecIntoIter$GT$12as_into_iter17h39382ab610e4429bE', symObjAddr: 0x1470, symBinAddr: 0x7834, symSize: 0x14 }
  - { offset: 0x1D9DA, size: 0x8, addend: 0x0, symName: '__ZN104_$LT$alloc..vec..into_iter..IntoIter$LT$T$GT$$u20$as$u20$alloc..vec..in_place_collect..AsVecIntoIter$GT$12as_into_iter17h8ca3b143cc29db8eE', symObjAddr: 0x1484, symBinAddr: 0x7848, symSize: 0x14 }
  - { offset: 0x1DA17, size: 0x8, addend: 0x0, symName: '__ZN114_$LT$alloc..vec..into_iter..IntoIter$LT$T$C$A$GT$$u20$as$u20$core..iter..traits..exact_size..ExactSizeIterator$GT$8is_empty17h1a589aa126c3ea00E', symObjAddr: 0x1498, symBinAddr: 0x785C, symSize: 0x3C }
  - { offset: 0x1DA7A, size: 0x8, addend: 0x0, symName: '__ZN114_$LT$alloc..vec..into_iter..IntoIter$LT$T$C$A$GT$$u20$as$u20$core..iter..traits..exact_size..ExactSizeIterator$GT$8is_empty17hac6ee37bb919c74fE', symObjAddr: 0x14D4, symBinAddr: 0x7898, symSize: 0x3C }
  - { offset: 0x1DADD, size: 0x8, addend: 0x0, symName: '__ZN114_$LT$alloc..vec..into_iter..IntoIter$LT$T$C$A$GT$$u20$as$u20$core..iter..traits..exact_size..ExactSizeIterator$GT$8is_empty17hf5cd81ef37e75ceeE', symObjAddr: 0x1510, symBinAddr: 0x78D4, symSize: 0x3C }
  - { offset: 0x1DFFF, size: 0x8, addend: 0x0, symName: '__ZN97_$LT$alloc..vec..into_iter..IntoIter$LT$T$C$A$GT$$u20$as$u20$core..iter..adapters..SourceIter$GT$8as_inner17h26b3e611c0235d7eE', symObjAddr: 0x2030, symBinAddr: 0x83F4, symSize: 0x14 }
  - { offset: 0x1E03F, size: 0x8, addend: 0x0, symName: '__ZN97_$LT$alloc..vec..into_iter..IntoIter$LT$T$C$A$GT$$u20$as$u20$core..iter..adapters..SourceIter$GT$8as_inner17hfb62281da180af85E', symObjAddr: 0x2044, symBinAddr: 0x8408, symSize: 0x14 }
  - { offset: 0x1F370, size: 0x8, addend: 0x0, symName: '__ZN5alloc3vec9into_iter21IntoIter$LT$T$C$A$GT$16as_raw_mut_slice17h0c11575ee44096e9E', symObjAddr: 0x1878, symBinAddr: 0x7C3C, symSize: 0xCC }
  - { offset: 0x1F4C0, size: 0x8, addend: 0x0, symName: '__ZN5alloc3vec9into_iter21IntoIter$LT$T$C$A$GT$16as_raw_mut_slice17h1494be8e689005f7E', symObjAddr: 0x1944, symBinAddr: 0x7D08, symSize: 0xCC }
  - { offset: 0x1F610, size: 0x8, addend: 0x0, symName: '__ZN5alloc3vec9into_iter21IntoIter$LT$T$C$A$GT$16as_raw_mut_slice17h175d8f79990de332E', symObjAddr: 0x1A10, symBinAddr: 0x7DD4, symSize: 0xCC }
  - { offset: 0x1F760, size: 0x8, addend: 0x0, symName: '__ZN5alloc3vec9into_iter21IntoIter$LT$T$C$A$GT$16as_raw_mut_slice17h22c30f3f75d204cdE', symObjAddr: 0x1ADC, symBinAddr: 0x7EA0, symSize: 0xCC }
  - { offset: 0x1F8B0, size: 0x8, addend: 0x0, symName: '__ZN5alloc3vec9into_iter21IntoIter$LT$T$C$A$GT$16as_raw_mut_slice17h22fbdf23c1ce4ea7E', symObjAddr: 0x1BA8, symBinAddr: 0x7F6C, symSize: 0xCC }
  - { offset: 0x1FA00, size: 0x8, addend: 0x0, symName: '__ZN5alloc3vec9into_iter21IntoIter$LT$T$C$A$GT$16as_raw_mut_slice17h378af44726d83e3aE', symObjAddr: 0x1C74, symBinAddr: 0x8038, symSize: 0xCC }
  - { offset: 0x1FB50, size: 0x8, addend: 0x0, symName: '__ZN5alloc3vec9into_iter21IntoIter$LT$T$C$A$GT$16as_raw_mut_slice17hc9e163e9d5db1984E', symObjAddr: 0x1D40, symBinAddr: 0x8104, symSize: 0xCC }
  - { offset: 0x1FCA0, size: 0x8, addend: 0x0, symName: '__ZN5alloc3vec9into_iter21IntoIter$LT$T$C$A$GT$16as_raw_mut_slice17hf20ae200ccbdc21dE', symObjAddr: 0x1E0C, symBinAddr: 0x81D0, symSize: 0xCC }
  - { offset: 0x1FE14, size: 0x8, addend: 0x0, symName: '__ZN5alloc3vec9into_iter21IntoIter$LT$T$C$A$GT$32forget_allocation_drop_remaining17h22c929f0d073d299E', symObjAddr: 0x1ED8, symBinAddr: 0x829C, symSize: 0x6C }
  - { offset: 0x1FF33, size: 0x8, addend: 0x0, symName: '__ZN5alloc3vec9into_iter21IntoIter$LT$T$C$A$GT$32forget_allocation_drop_remaining17h4614fc3152e83763E', symObjAddr: 0x1F44, symBinAddr: 0x8308, symSize: 0x6C }
  - { offset: 0x20052, size: 0x8, addend: 0x0, symName: '__ZN5alloc3vec9into_iter21IntoIter$LT$T$C$A$GT$32forget_allocation_drop_remaining17h9eeff5c10502c1e4E', symObjAddr: 0x1FB0, symBinAddr: 0x8374, symSize: 0x80 }
  - { offset: 0x2064C, size: 0x8, addend: 0x0, symName: __ZN4pyo35impl_16extract_argument16extract_argument17h0a525b5dc2e41adfE, symObjAddr: 0x0, symBinAddr: 0x841C, symSize: 0x124 }
  - { offset: 0x227AF, size: 0x8, addend: 0x0, symName: __ZN4pyo35impl_16extract_argument16extract_argument17h0a525b5dc2e41adfE, symObjAddr: 0x0, symBinAddr: 0x841C, symSize: 0x124 }
  - { offset: 0x22834, size: 0x8, addend: 0x0, symName: __ZN4pyo35impl_16extract_argument16extract_argument17h33c5585c1d21dfbaE, symObjAddr: 0x124, symBinAddr: 0x8540, symSize: 0x148 }
  - { offset: 0x228B9, size: 0x8, addend: 0x0, symName: __ZN4pyo35impl_16extract_argument16extract_argument17h403806e3877e368cE, symObjAddr: 0x26C, symBinAddr: 0x8688, symSize: 0x124 }
  - { offset: 0x2293E, size: 0x8, addend: 0x0, symName: __ZN4pyo35impl_16extract_argument16extract_argument17h5333bc90ac49645eE, symObjAddr: 0x390, symBinAddr: 0x87AC, symSize: 0x12C }
  - { offset: 0x229C3, size: 0x8, addend: 0x0, symName: __ZN4pyo35impl_16extract_argument16extract_argument17h7b1f6e52919118d8E, symObjAddr: 0x4BC, symBinAddr: 0x88D8, symSize: 0x148 }
  - { offset: 0x22A48, size: 0x8, addend: 0x0, symName: __ZN4pyo35impl_16extract_argument16extract_argument17h7de4ca756df54b6aE, symObjAddr: 0x604, symBinAddr: 0x8A20, symSize: 0x144 }
  - { offset: 0x22ACD, size: 0x8, addend: 0x0, symName: __ZN4pyo35impl_16extract_argument16extract_argument17hfd1bd5dd7194d486E, symObjAddr: 0x748, symBinAddr: 0x8B64, symSize: 0x148 }
  - { offset: 0x22CD3, size: 0x8, addend: 0x0, symName: '__ZN4pyo35impl_16extract_argument19FunctionDescription26extract_arguments_fastcall28_$u7b$$u7b$closure$u7d$$u7d$17hd1d3bacd8e2d2a00E', symObjAddr: 0x1C54, symBinAddr: 0xA070, symSize: 0x24 }
  - { offset: 0x22D2B, size: 0x8, addend: 0x0, symName: '__ZN4pyo35impl_16extract_argument19FunctionDescription28extract_arguments_tuple_dict28_$u7b$$u7b$closure$u7d$$u7d$17hdaccfccbc61203b0E', symObjAddr: 0x2110, symBinAddr: 0xA52C, symSize: 0x24 }
  - { offset: 0x22D83, size: 0x8, addend: 0x0, symName: '__ZN4pyo35impl_16extract_argument19FunctionDescription36find_keyword_parameter_in_positional28_$u7b$$u7b$closure$u7d$$u7d$17h57caab1c3aabe80eE', symObjAddr: 0x2134, symBinAddr: 0xA550, symSize: 0x48 }
  - { offset: 0x22DE3, size: 0x8, addend: 0x0, symName: '__ZN4pyo35impl_16extract_argument19FunctionDescription38find_keyword_parameter_in_keyword_only28_$u7b$$u7b$closure$u7d$$u7d$17hfc211ece9f0eaecfE', symObjAddr: 0x217C, symBinAddr: 0xA598, symSize: 0x38 }
  - { offset: 0x22E25, size: 0x8, addend: 0x0, symName: __ZN4pyo35impl_16extract_argument19extract_pyclass_ref17h1e9c5b60212f135aE, symObjAddr: 0x21B4, symBinAddr: 0xA5D0, symSize: 0xB0 }
  - { offset: 0x22E86, size: 0x8, addend: 0x0, symName: __ZN4pyo35impl_16extract_argument19extract_pyclass_ref17h6944221fe29827dbE, symObjAddr: 0x2264, symBinAddr: 0xA680, symSize: 0xB0 }
  - { offset: 0x22EE7, size: 0x8, addend: 0x0, symName: __ZN4pyo35impl_16extract_argument23extract_pyclass_ref_mut17h94873c91e1ad9904E, symObjAddr: 0x2314, symBinAddr: 0xA730, symSize: 0xB0 }
  - { offset: 0x22F4D, size: 0x8, addend: 0x0, symName: '__ZN71_$LT$T$u20$as$u20$pyo3..impl_..extract_argument..PyFunctionArgument$GT$7extract17h04103522cea89efbE', symObjAddr: 0x23C4, symBinAddr: 0xA7E0, symSize: 0x28 }
  - { offset: 0x22F8C, size: 0x8, addend: 0x0, symName: '__ZN71_$LT$T$u20$as$u20$pyo3..impl_..extract_argument..PyFunctionArgument$GT$7extract17hea0ac69038f75e00E', symObjAddr: 0x23EC, symBinAddr: 0xA808, symSize: 0x28 }
  - { offset: 0x22FCB, size: 0x8, addend: 0x0, symName: '__ZN71_$LT$T$u20$as$u20$pyo3..impl_..extract_argument..PyFunctionArgument$GT$7extract17hf60ee27d0f84b122E', symObjAddr: 0x2414, symBinAddr: 0xA830, symSize: 0x28 }
  - { offset: 0x23B18, size: 0x8, addend: 0x0, symName: __ZN4pyo35impl_16extract_argument19FunctionDescription13handle_kwargs17h2ef4e1941ebac015E, symObjAddr: 0x890, symBinAddr: 0x8CAC, symSize: 0x6E4 }
  - { offset: 0x23D17, size: 0x8, addend: 0x0, symName: __ZN4pyo35impl_16extract_argument19FunctionDescription13handle_kwargs17hbb26b8fa59fe290bE, symObjAddr: 0xF74, symBinAddr: 0x9390, symSize: 0x6DC }
  - { offset: 0x23F27, size: 0x8, addend: 0x0, symName: __ZN4pyo35impl_16extract_argument19FunctionDescription26extract_arguments_fastcall17he384951c4d0066fbE, symObjAddr: 0x1650, symBinAddr: 0x9A6C, symSize: 0x604 }
  - { offset: 0x2423B, size: 0x8, addend: 0x0, symName: __ZN4pyo35impl_16extract_argument19FunctionDescription28extract_arguments_tuple_dict17hd2125f4ab6ca2900E, symObjAddr: 0x1C78, symBinAddr: 0xA094, symSize: 0x498 }
  - { offset: 0x24BDC, size: 0x8, addend: 0x0, symName: '__ZN4core3ptr8non_null16NonNull$LT$T$GT$13new_unchecked18precondition_check17h8ed2d924a2ef1ac2E', symObjAddr: 0x0, symBinAddr: 0xA858, symSize: 0x58 }
  - { offset: 0x24C02, size: 0x8, addend: 0x0, symName: '__ZN4core3ptr8non_null16NonNull$LT$T$GT$13new_unchecked18precondition_check17h8ed2d924a2ef1ac2E', symObjAddr: 0x0, symBinAddr: 0xA858, symSize: 0x58 }
  - { offset: 0x24CB3, size: 0x8, addend: 0x0, symName: __ZN9hashbrown3raw11TableLayout20calculate_layout_for17hbca5edb7d720f4d3E, symObjAddr: 0x0, symBinAddr: 0xA8B0, symSize: 0x220 }
  - { offset: 0x264A0, size: 0x8, addend: 0x0, symName: __ZN9hashbrown3raw11TableLayout20calculate_layout_for17hbca5edb7d720f4d3E, symObjAddr: 0x0, symBinAddr: 0xA8B0, symSize: 0x220 }
  - { offset: 0x269DF, size: 0x8, addend: 0x0, symName: __ZN9hashbrown3raw13RawTableInner15rehash_in_place17hd8651cbd89bafb63E, symObjAddr: 0x220, symBinAddr: 0xAAD0, symSize: 0x41C }
  - { offset: 0x27340, size: 0x8, addend: 0x0, symName: __ZN9hashbrown3raw13RawTableInner16fix_insert_index17hd96bdd8bd3ecfff3E, symObjAddr: 0x63C, symBinAddr: 0xAEEC, symSize: 0x100 }
  - { offset: 0x275B2, size: 0x8, addend: 0x0, symName: __ZN9hashbrown3raw13RawTableInner17find_insert_index17h34f827394a8449d5E, symObjAddr: 0x73C, symBinAddr: 0xAFEC, symSize: 0xFC }
  - { offset: 0x278AF, size: 0x8, addend: 0x0, symName: __ZN9hashbrown3raw13RawTableInner23prepare_rehash_in_place17h04edb5b570d8e632E, symObjAddr: 0x838, symBinAddr: 0xB0E8, symSize: 0x204 }
  - { offset: 0x27EA5, size: 0x8, addend: 0x0, symName: __ZN9hashbrown3raw13RawTableInner26find_insert_index_in_group17h39bab566971e1b61E, symObjAddr: 0xA3C, symBinAddr: 0xB2EC, symSize: 0x120 }
  - { offset: 0x28162, size: 0x8, addend: 0x0, symName: __ZN9hashbrown3raw13RawTableInner31find_or_find_insert_index_inner17hcc0e5809a6f08a72E, symObjAddr: 0xB5C, symBinAddr: 0xB40C, symSize: 0x2A0 }
  - { offset: 0x28584, size: 0x8, addend: 0x0, symName: __ZN9hashbrown3raw13RawTableInner5erase17haabd1a54f09bf362E, symObjAddr: 0xDFC, symBinAddr: 0xB6AC, symSize: 0x178 }
  - { offset: 0x28894, size: 0x8, addend: 0x0, symName: __ZN10rayon_core6unwind14halt_unwinding17h03aa974ac4ca210aE, symObjAddr: 0x0, symBinAddr: 0xB824, symSize: 0x40 }
  - { offset: 0x288AB, size: 0x8, addend: 0x0, symName: __ZN10rayon_core6unwind14halt_unwinding17h03aa974ac4ca210aE, symObjAddr: 0x0, symBinAddr: 0xB824, symSize: 0x40 }
  - { offset: 0x288EA, size: 0x8, addend: 0x0, symName: __ZN10rayon_core6unwind14halt_unwinding17h07fb7a9342ab1672E, symObjAddr: 0x40, symBinAddr: 0xB864, symSize: 0x40 }
  - { offset: 0x28929, size: 0x8, addend: 0x0, symName: __ZN10rayon_core6unwind14halt_unwinding17h2b4abb65ddf3def8E, symObjAddr: 0x80, symBinAddr: 0xB8A4, symSize: 0x40 }
  - { offset: 0x28968, size: 0x8, addend: 0x0, symName: __ZN10rayon_core6unwind14halt_unwinding17h45dbda1a36024117E, symObjAddr: 0xC0, symBinAddr: 0xB8E4, symSize: 0x40 }
  - { offset: 0x289A7, size: 0x8, addend: 0x0, symName: __ZN10rayon_core6unwind14halt_unwinding17h942742a54f88af57E, symObjAddr: 0x100, symBinAddr: 0xB924, symSize: 0x40 }
  - { offset: 0x289E6, size: 0x8, addend: 0x0, symName: __ZN10rayon_core6unwind14halt_unwinding17hc326e1cba120d0cdE, symObjAddr: 0x140, symBinAddr: 0xB964, symSize: 0x40 }
  - { offset: 0x28A25, size: 0x8, addend: 0x0, symName: __ZN10rayon_core6unwind14halt_unwinding17hc6fa9c737bfc8064E, symObjAddr: 0x180, symBinAddr: 0xB9A4, symSize: 0x40 }
  - { offset: 0x28A64, size: 0x8, addend: 0x0, symName: __ZN10rayon_core6unwind14halt_unwinding17hdd8a931848b761c5E, symObjAddr: 0x1C0, symBinAddr: 0xB9E4, symSize: 0x40 }
  - { offset: 0x2991E, size: 0x8, addend: 0x0, symName: '__ZN71_$LT$std..hash..random..DefaultHasher$u20$as$u20$core..hash..Hasher$GT$6finish17ha3127d16dcc6108fE', symObjAddr: 0x0, symBinAddr: 0xBA24, symSize: 0x20 }
  - { offset: 0x29AC2, size: 0x8, addend: 0x0, symName: '__ZN71_$LT$std..hash..random..DefaultHasher$u20$as$u20$core..hash..Hasher$GT$6finish17ha3127d16dcc6108fE', symObjAddr: 0x0, symBinAddr: 0xBA24, symSize: 0x20 }
  - { offset: 0x29B0A, size: 0x8, addend: 0x0, symName: '__ZN71_$LT$std..hash..random..DefaultHasher$u20$as$u20$core..hash..Hasher$GT$9write_str17h6bbee7c94be383b0E', symObjAddr: 0x20, symBinAddr: 0xBA44, symSize: 0x2C }
  - { offset: 0x29B9A, size: 0x8, addend: 0x0, symName: '__ZN73_$LT$std..hash..random..RandomState$u20$as$u20$core..default..Default$GT$7default17h405d8f78f37a1827E', symObjAddr: 0x4C, symBinAddr: 0xBA70, symSize: 0x1C }
  - { offset: 0x29BD2, size: 0x8, addend: 0x0, symName: '__ZN74_$LT$std..hash..random..RandomState$u20$as$u20$core..hash..BuildHasher$GT$12build_hasher17h078248bda1902f87E', symObjAddr: 0x68, symBinAddr: 0xBA8C, symSize: 0xCC }
  - { offset: 0x29D53, size: 0x8, addend: 0x0, symName: '__ZN104_$LT$core..iter..adapters..copied..Copied$LT$I$GT$$u20$as$u20$core..iter..traits..iterator..Iterator$GT$4next17hdbfc61843dad6c65E', symObjAddr: 0x0, symBinAddr: 0xBB58, symSize: 0x5C }
  - { offset: 0x2B029, size: 0x8, addend: 0x0, symName: '__ZN104_$LT$core..iter..adapters..copied..Copied$LT$I$GT$$u20$as$u20$core..iter..traits..iterator..Iterator$GT$4next17hdbfc61843dad6c65E', symObjAddr: 0x0, symBinAddr: 0xBB58, symSize: 0x5C }
  - { offset: 0x2B0CE, size: 0x8, addend: 0x0, symName: '__ZN63_$LT$I$u20$as$u20$core..iter..traits..collect..IntoIterator$GT$9into_iter17h2a34facb5cec03fcE', symObjAddr: 0x5C, symBinAddr: 0xBBB4, symSize: 0x1C }
  - { offset: 0x2B76A, size: 0x8, addend: 0x0, symName: __ZN4core4iter6traits8iterator8Iterator4fold17h4ad52c181f305d04E, symObjAddr: 0x0, symBinAddr: 0xBBD0, symSize: 0xEC }
  - { offset: 0x2B799, size: 0x8, addend: 0x0, symName: '__ZN9hashbrown3raw21RawTable$LT$T$C$A$GT$14reserve_rehash28_$u7b$$u7b$closure$u7d$$u7d$17h29ebacfdbb0e3143E', symObjAddr: 0x61D0, symBinAddr: 0xE814, symSize: 0x30 }
  - { offset: 0x2B7E9, size: 0x8, addend: 0x0, symName: '__ZN9hashbrown3raw21RawTable$LT$T$C$A$GT$14reserve_rehash28_$u7b$$u7b$closure$u7d$$u7d$17h51512bfc95438f61E', symObjAddr: 0x6200, symBinAddr: 0xE844, symSize: 0xC0 }
  - { offset: 0x2B9C7, size: 0x8, addend: 0x0, symName: '__ZN9hashbrown3raw21RawTable$LT$T$C$A$GT$14reserve_rehash28_$u7b$$u7b$closure$u7d$$u7d$17h6682f79a01feb480E', symObjAddr: 0x62C0, symBinAddr: 0xE904, symSize: 0xC0 }
  - { offset: 0x2BBA5, size: 0x8, addend: 0x0, symName: '__ZN9hashbrown3raw21RawTable$LT$T$C$A$GT$14reserve_rehash28_$u7b$$u7b$closure$u7d$$u7d$17h6c343f577416e520E', symObjAddr: 0x6380, symBinAddr: 0xE9C4, symSize: 0x30 }
  - { offset: 0x2BBF5, size: 0x8, addend: 0x0, symName: '__ZN9hashbrown3raw21RawTable$LT$T$C$A$GT$14reserve_rehash28_$u7b$$u7b$closure$u7d$$u7d$17h7ca6c6e873a341e4E', symObjAddr: 0x63B0, symBinAddr: 0xE9F4, symSize: 0xC0 }
  - { offset: 0x2BDD3, size: 0x8, addend: 0x0, symName: '__ZN9hashbrown3raw21RawTable$LT$T$C$A$GT$14reserve_rehash28_$u7b$$u7b$closure$u7d$$u7d$17hb970696b6f0f21b4E', symObjAddr: 0x6470, symBinAddr: 0xEAB4, symSize: 0xC0 }
  - { offset: 0x2BFB1, size: 0x8, addend: 0x0, symName: '__ZN9hashbrown3raw21RawTable$LT$T$C$A$GT$14reserve_rehash28_$u7b$$u7b$closure$u7d$$u7d$17hbf912baf9676526aE', symObjAddr: 0x6530, symBinAddr: 0xEB74, symSize: 0x30 }
  - { offset: 0x2C001, size: 0x8, addend: 0x0, symName: '__ZN9hashbrown3raw21RawTable$LT$T$C$A$GT$14reserve_rehash28_$u7b$$u7b$closure$u7d$$u7d$17hcd291bd2b66e8f30E', symObjAddr: 0x6560, symBinAddr: 0xEBA4, symSize: 0x30 }
  - { offset: 0x2C051, size: 0x8, addend: 0x0, symName: '__ZN9hashbrown3raw21RawTable$LT$T$C$A$GT$14reserve_rehash28_$u7b$$u7b$closure$u7d$$u7d$17hd601e30a78836242E', symObjAddr: 0x6590, symBinAddr: 0xEBD4, symSize: 0xC0 }
  - { offset: 0x2C22F, size: 0x8, addend: 0x0, symName: '__ZN9hashbrown3raw21RawTable$LT$T$C$A$GT$14reserve_rehash28_$u7b$$u7b$closure$u7d$$u7d$17heb8d9296d0a2068eE', symObjAddr: 0x6650, symBinAddr: 0xEC94, symSize: 0xC0 }
  - { offset: 0x2C40D, size: 0x8, addend: 0x0, symName: '__ZN9hashbrown3raw21RawTable$LT$T$C$A$GT$14reserve_rehash28_$u7b$$u7b$closure$u7d$$u7d$17hec52eaf187e2c2bbE', symObjAddr: 0x6710, symBinAddr: 0xED54, symSize: 0xC0 }
  - { offset: 0x2C5EB, size: 0x8, addend: 0x0, symName: '__ZN9hashbrown3raw21RawTable$LT$T$C$A$GT$14reserve_rehash28_$u7b$$u7b$closure$u7d$$u7d$17hf2db74d110584659E', symObjAddr: 0x67D0, symBinAddr: 0xEE14, symSize: 0x30 }
  - { offset: 0x2C63B, size: 0x8, addend: 0x0, symName: '__ZN9hashbrown3raw21RawTable$LT$T$C$A$GT$14reserve_rehash28_$u7b$$u7b$closure$u7d$$u7d$17hfe531abcdedbd756E', symObjAddr: 0x6800, symBinAddr: 0xEE44, symSize: 0x30 }
  - { offset: 0x2C6BB, size: 0x8, addend: 0x0, symName: '__ZN9hashbrown3raw21RawTable$LT$T$C$A$GT$25find_or_find_insert_index28_$u7b$$u7b$closure$u7d$$u7d$17h05715568a8ac898bE', symObjAddr: 0x7B38, symBinAddr: 0x1017C, symSize: 0xC4 }
  - { offset: 0x2C8A8, size: 0x8, addend: 0x0, symName: '__ZN9hashbrown3raw21RawTable$LT$T$C$A$GT$25find_or_find_insert_index28_$u7b$$u7b$closure$u7d$$u7d$17h8d670acdcb546589E', symObjAddr: 0x7BFC, symBinAddr: 0x10240, symSize: 0xC4 }
  - { offset: 0x2CA95, size: 0x8, addend: 0x0, symName: '__ZN9hashbrown3raw21RawTable$LT$T$C$A$GT$25find_or_find_insert_index28_$u7b$$u7b$closure$u7d$$u7d$17h8d9c7d94b7295a94E', symObjAddr: 0x7CC0, symBinAddr: 0x10304, symSize: 0xC4 }
  - { offset: 0x2CC82, size: 0x8, addend: 0x0, symName: '__ZN9hashbrown3raw21RawTable$LT$T$C$A$GT$25find_or_find_insert_index28_$u7b$$u7b$closure$u7d$$u7d$17h9c813612cd2aead8E', symObjAddr: 0x7D84, symBinAddr: 0x103C8, symSize: 0xC4 }
  - { offset: 0x2CE6F, size: 0x8, addend: 0x0, symName: '__ZN9hashbrown3raw21RawTable$LT$T$C$A$GT$25find_or_find_insert_index28_$u7b$$u7b$closure$u7d$$u7d$17hb79d6f785c23c0acE', symObjAddr: 0x7E48, symBinAddr: 0x1048C, symSize: 0xC4 }
  - { offset: 0x2D05C, size: 0x8, addend: 0x0, symName: '__ZN9hashbrown3raw21RawTable$LT$T$C$A$GT$25find_or_find_insert_index28_$u7b$$u7b$closure$u7d$$u7d$17he21b461127802d24E', symObjAddr: 0x7F0C, symBinAddr: 0x10550, symSize: 0xC4 }
  - { offset: 0x2D24F, size: 0x8, addend: 0x0, symName: '__ZN9hashbrown3raw21RawTable$LT$T$C$A$GT$4find28_$u7b$$u7b$closure$u7d$$u7d$17h19fbceb42d067d3bE', symObjAddr: 0x8C20, symBinAddr: 0x11264, symSize: 0xC4 }
  - { offset: 0x2D433, size: 0x8, addend: 0x0, symName: '__ZN9hashbrown3raw21RawTable$LT$T$C$A$GT$4find28_$u7b$$u7b$closure$u7d$$u7d$17h366bd6b007b3c0deE', symObjAddr: 0x8CE4, symBinAddr: 0x11328, symSize: 0xC4 }
  - { offset: 0x2D617, size: 0x8, addend: 0x0, symName: '__ZN9hashbrown3raw21RawTable$LT$T$C$A$GT$4find28_$u7b$$u7b$closure$u7d$$u7d$17h527019704dc8902cE', symObjAddr: 0x8DA8, symBinAddr: 0x113EC, symSize: 0xC4 }
  - { offset: 0x2D7FB, size: 0x8, addend: 0x0, symName: '__ZN9hashbrown3raw21RawTable$LT$T$C$A$GT$4find28_$u7b$$u7b$closure$u7d$$u7d$17h7f04453927788d74E', symObjAddr: 0x8E6C, symBinAddr: 0x114B0, symSize: 0xC4 }
  - { offset: 0x2F483, size: 0x8, addend: 0x0, symName: '__ZN99_$LT$hashbrown..raw..RawIntoIter$LT$T$C$A$GT$$u20$as$u20$core..iter..traits..iterator..Iterator$GT$4next17h0de84685f597d1fdE', symObjAddr: 0xEC, symBinAddr: 0xBCBC, symSize: 0x100 }
  - { offset: 0x2F604, size: 0x8, addend: 0x0, symName: '__ZN99_$LT$hashbrown..raw..RawIntoIter$LT$T$C$A$GT$$u20$as$u20$core..iter..traits..iterator..Iterator$GT$4next17h707baf42a187d340E', symObjAddr: 0x1EC, symBinAddr: 0xBDBC, symSize: 0xFC }
  - { offset: 0x2F785, size: 0x8, addend: 0x0, symName: '__ZN99_$LT$hashbrown..raw..RawIntoIter$LT$T$C$A$GT$$u20$as$u20$core..iter..traits..iterator..Iterator$GT$4next17h7ada44cbb8033ba4E', symObjAddr: 0x2E8, symBinAddr: 0xBEB8, symSize: 0x100 }
  - { offset: 0x2F906, size: 0x8, addend: 0x0, symName: '__ZN99_$LT$hashbrown..raw..RawIntoIter$LT$T$C$A$GT$$u20$as$u20$core..iter..traits..iterator..Iterator$GT$4next17hd5029a82f3dcc549E', symObjAddr: 0x3E8, symBinAddr: 0xBFB8, symSize: 0x100 }
  - { offset: 0x30033, size: 0x8, addend: 0x0, symName: '__ZN99_$LT$hashbrown..raw..RawTable$LT$T$C$A$GT$$u20$as$u20$core..iter..traits..collect..IntoIterator$GT$9into_iter17h11f3960355550128E', symObjAddr: 0x4E8, symBinAddr: 0xC0B8, symSize: 0x128 }
  - { offset: 0x30233, size: 0x8, addend: 0x0, symName: '__ZN99_$LT$hashbrown..raw..RawTable$LT$T$C$A$GT$$u20$as$u20$core..iter..traits..collect..IntoIterator$GT$9into_iter17h63d4e39f5d07ceb8E', symObjAddr: 0x610, symBinAddr: 0xC1E0, symSize: 0x128 }
  - { offset: 0x30433, size: 0x8, addend: 0x0, symName: '__ZN99_$LT$hashbrown..raw..RawTable$LT$T$C$A$GT$$u20$as$u20$core..iter..traits..collect..IntoIterator$GT$9into_iter17h65dc51f22946cca2E', symObjAddr: 0x738, symBinAddr: 0xC308, symSize: 0x128 }
  - { offset: 0x30633, size: 0x8, addend: 0x0, symName: '__ZN99_$LT$hashbrown..raw..RawTable$LT$T$C$A$GT$$u20$as$u20$core..iter..traits..collect..IntoIterator$GT$9into_iter17h98d326dac61f2d97E', symObjAddr: 0x860, symBinAddr: 0xC430, symSize: 0x128 }
  - { offset: 0x346A0, size: 0x8, addend: 0x0, symName: __ZN4core4iter6traits8iterator8Iterator4fold17h4ad52c181f305d04E, symObjAddr: 0x0, symBinAddr: 0xBBD0, symSize: 0xEC }
  - { offset: 0x36B55, size: 0x8, addend: 0x0, symName: __ZN9hashbrown3raw13RawTableInner13drop_elements17h059ca6040bf92c30E, symObjAddr: 0x988, symBinAddr: 0xC558, symSize: 0x30 }
  - { offset: 0x36DF3, size: 0x8, addend: 0x0, symName: __ZN9hashbrown3raw13RawTableInner13drop_elements17h2cac25a77ef5458eE, symObjAddr: 0x9B8, symBinAddr: 0xC588, symSize: 0x15C }
  - { offset: 0x371A4, size: 0x8, addend: 0x0, symName: __ZN9hashbrown3raw13RawTableInner13drop_elements17h425a46612e4f1641E, symObjAddr: 0xB14, symBinAddr: 0xC6E4, symSize: 0x15C }
  - { offset: 0x37521, size: 0x8, addend: 0x0, symName: __ZN9hashbrown3raw13RawTableInner13drop_elements17h5a608a04c653781eE, symObjAddr: 0xC70, symBinAddr: 0xC840, symSize: 0x15C }
  - { offset: 0x3789E, size: 0x8, addend: 0x0, symName: __ZN9hashbrown3raw13RawTableInner13drop_elements17hbad2d3d1c946aa46E, symObjAddr: 0xDCC, symBinAddr: 0xC99C, symSize: 0x15C }
  - { offset: 0x37C1B, size: 0x8, addend: 0x0, symName: __ZN9hashbrown3raw13RawTableInner13drop_elements17hfba9bc466c3f6ebdE, symObjAddr: 0xF28, symBinAddr: 0xCAF8, symSize: 0x15C }
  - { offset: 0x37F98, size: 0x8, addend: 0x0, symName: __ZN9hashbrown3raw13RawTableInner13drop_elements17hfffb5965e712ca1dE, symObjAddr: 0x1084, symBinAddr: 0xCC54, symSize: 0x15C }
  - { offset: 0x38341, size: 0x8, addend: 0x0, symName: __ZN9hashbrown3raw13RawTableInner16drop_inner_table17h06a5a2e4cc0886d6E, symObjAddr: 0x11E0, symBinAddr: 0xCDB0, symSize: 0xB0 }
  - { offset: 0x385C6, size: 0x8, addend: 0x0, symName: __ZN9hashbrown3raw13RawTableInner16drop_inner_table17h31a5be8b877180e8E, symObjAddr: 0x1290, symBinAddr: 0xCE60, symSize: 0xB0 }
  - { offset: 0x3884B, size: 0x8, addend: 0x0, symName: __ZN9hashbrown3raw13RawTableInner16drop_inner_table17h6a9024d47fa63082E, symObjAddr: 0x1340, symBinAddr: 0xCF10, symSize: 0xB0 }
  - { offset: 0x38AD0, size: 0x8, addend: 0x0, symName: __ZN9hashbrown3raw13RawTableInner16drop_inner_table17h8d6766958bbeaaddE, symObjAddr: 0x13F0, symBinAddr: 0xCFC0, symSize: 0xB0 }
  - { offset: 0x38D55, size: 0x8, addend: 0x0, symName: __ZN9hashbrown3raw13RawTableInner16drop_inner_table17ha970558e5b7179adE, symObjAddr: 0x14A0, symBinAddr: 0xD070, symSize: 0xB0 }
  - { offset: 0x38FDA, size: 0x8, addend: 0x0, symName: __ZN9hashbrown3raw13RawTableInner16drop_inner_table17hb4dcbb086a2888c0E, symObjAddr: 0x1550, symBinAddr: 0xD120, symSize: 0xB0 }
  - { offset: 0x3925F, size: 0x8, addend: 0x0, symName: __ZN9hashbrown3raw13RawTableInner16drop_inner_table17hc87d9a4b94978d41E, symObjAddr: 0x1600, symBinAddr: 0xD1D0, symSize: 0xB0 }
  - { offset: 0x3944E, size: 0x8, addend: 0x0, symName: '__ZN9hashbrown3raw16RawIter$LT$T$GT$13drop_elements17h019072b637614632E', symObjAddr: 0x16B0, symBinAddr: 0xD280, symSize: 0xDC }
  - { offset: 0x395DA, size: 0x8, addend: 0x0, symName: '__ZN9hashbrown3raw16RawIter$LT$T$GT$13drop_elements17h166365a4a9db4fb6E', symObjAddr: 0x178C, symBinAddr: 0xD35C, symSize: 0xDC }
  - { offset: 0x39766, size: 0x8, addend: 0x0, symName: '__ZN9hashbrown3raw16RawIter$LT$T$GT$13drop_elements17h235198474ab318cdE', symObjAddr: 0x1868, symBinAddr: 0xD438, symSize: 0xDC }
  - { offset: 0x398F2, size: 0x8, addend: 0x0, symName: '__ZN9hashbrown3raw16RawIter$LT$T$GT$13drop_elements17h4ca9dc0022c08d15E', symObjAddr: 0x1944, symBinAddr: 0xD514, symSize: 0xDC }
  - { offset: 0x39A78, size: 0x8, addend: 0x0, symName: '__ZN9hashbrown3raw21RawIterRange$LT$T$GT$3new17h503a66394162cfd5E', symObjAddr: 0x1A20, symBinAddr: 0xD5F0, symSize: 0x98 }
  - { offset: 0x39BE5, size: 0x8, addend: 0x0, symName: '__ZN9hashbrown3raw21RawIterRange$LT$T$GT$3new17h72bf70e88c986fdcE', symObjAddr: 0x1AB8, symBinAddr: 0xD688, symSize: 0x98 }
  - { offset: 0x39D52, size: 0x8, addend: 0x0, symName: '__ZN9hashbrown3raw21RawIterRange$LT$T$GT$3new17h854c8828c733403aE', symObjAddr: 0x1B50, symBinAddr: 0xD720, symSize: 0x98 }
  - { offset: 0x39EBF, size: 0x8, addend: 0x0, symName: '__ZN9hashbrown3raw21RawIterRange$LT$T$GT$3new17ha5bfe029f9fa2984E', symObjAddr: 0x1BE8, symBinAddr: 0xD7B8, symSize: 0x98 }
  - { offset: 0x3A02C, size: 0x8, addend: 0x0, symName: '__ZN9hashbrown3raw21RawIterRange$LT$T$GT$3new17hbe099fbd6571c91fE', symObjAddr: 0x1C80, symBinAddr: 0xD850, symSize: 0x98 }
  - { offset: 0x3A199, size: 0x8, addend: 0x0, symName: '__ZN9hashbrown3raw21RawIterRange$LT$T$GT$3new17hd0c1f157756c6c85E', symObjAddr: 0x1D18, symBinAddr: 0xD8E8, symSize: 0x98 }
  - { offset: 0x3A42D, size: 0x8, addend: 0x0, symName: '__ZN9hashbrown3raw21RawIterRange$LT$T$GT$9next_impl17h2cf9a003bba7c536E', symObjAddr: 0x1DB0, symBinAddr: 0xD980, symSize: 0x1B4 }
  - { offset: 0x3A878, size: 0x8, addend: 0x0, symName: '__ZN9hashbrown3raw21RawIterRange$LT$T$GT$9next_impl17h5d5af65da21d7880E', symObjAddr: 0x1F64, symBinAddr: 0xDB34, symSize: 0x1B4 }
  - { offset: 0x3ACC3, size: 0x8, addend: 0x0, symName: '__ZN9hashbrown3raw21RawIterRange$LT$T$GT$9next_impl17h99656817b71b5672E', symObjAddr: 0x2118, symBinAddr: 0xDCE8, symSize: 0x1B4 }
  - { offset: 0x3B10E, size: 0x8, addend: 0x0, symName: '__ZN9hashbrown3raw21RawIterRange$LT$T$GT$9next_impl17haa488fe7a884443cE', symObjAddr: 0x22CC, symBinAddr: 0xDE9C, symSize: 0x1B4 }
  - { offset: 0x3B559, size: 0x8, addend: 0x0, symName: '__ZN9hashbrown3raw21RawIterRange$LT$T$GT$9next_impl17hc18c6dec2261e4c8E', symObjAddr: 0x2480, symBinAddr: 0xE050, symSize: 0x1B4 }
  - { offset: 0x3B9A4, size: 0x8, addend: 0x0, symName: '__ZN9hashbrown3raw21RawIterRange$LT$T$GT$9next_impl17hc25b28aef607d449E', symObjAddr: 0x2634, symBinAddr: 0xE204, symSize: 0x1B4 }
  - { offset: 0x3BCA8, size: 0x8, addend: 0x0, symName: '__ZN9hashbrown3raw21RawTable$LT$T$C$A$GT$12remove_entry17h807e6cf5d66bcc23E', symObjAddr: 0x27E8, symBinAddr: 0xE3B8, symSize: 0x9C }
  - { offset: 0x3BDC1, size: 0x8, addend: 0x0, symName: '__ZN9hashbrown3raw21RawTable$LT$T$C$A$GT$13erase_no_drop17h1a82986a10cc79dfE', symObjAddr: 0x2884, symBinAddr: 0xE454, symSize: 0x90 }
  - { offset: 0x3C14F, size: 0x8, addend: 0x0, symName: '__ZN9hashbrown3raw21RawTable$LT$T$C$A$GT$14insert_no_grow17h63f0c8296f5f4d0cE', symObjAddr: 0x2914, symBinAddr: 0xE4E4, symSize: 0x19C }
  - { offset: 0x3C715, size: 0x8, addend: 0x0, symName: '__ZN9hashbrown3raw21RawTable$LT$T$C$A$GT$14insert_no_grow17h713da083141d746bE', symObjAddr: 0x2AB0, symBinAddr: 0xE680, symSize: 0x194 }
  - { offset: 0x3CF82, size: 0x8, addend: 0x0, symName: '__ZN9hashbrown3raw21RawTable$LT$T$C$A$GT$14reserve_rehash17h0b56059750e65cd9E', symObjAddr: 0x2C44, symBinAddr: 0xEC36C, symSize: 0x7B4 }
  - { offset: 0x3D846, size: 0x8, addend: 0x0, symName: '__ZN9hashbrown3raw21RawTable$LT$T$C$A$GT$14reserve_rehash17h0e5525ecbabeda93E', symObjAddr: 0x33F8, symBinAddr: 0xECB20, symSize: 0x798 }
  - { offset: 0x3E10A, size: 0x8, addend: 0x0, symName: '__ZN9hashbrown3raw21RawTable$LT$T$C$A$GT$14reserve_rehash17h1a3cc8a64b70e02cE', symObjAddr: 0x3B90, symBinAddr: 0xED2B8, symSize: 0x7A4 }
  - { offset: 0x3E9C1, size: 0x8, addend: 0x0, symName: '__ZN9hashbrown3raw21RawTable$LT$T$C$A$GT$14reserve_rehash17h3879790333fd87b9E', symObjAddr: 0x4334, symBinAddr: 0xEDA5C, symSize: 0x7B4 }
  - { offset: 0x3F278, size: 0x8, addend: 0x0, symName: '__ZN9hashbrown3raw21RawTable$LT$T$C$A$GT$14reserve_rehash17h41b21ced83d4950aE', symObjAddr: 0x4AE8, symBinAddr: 0xEE210, symSize: 0x7A0 }
  - { offset: 0x3FB3C, size: 0x8, addend: 0x0, symName: '__ZN9hashbrown3raw21RawTable$LT$T$C$A$GT$14reserve_rehash17h457967ed3b123c2bE', symObjAddr: 0x5288, symBinAddr: 0xEE9B0, symSize: 0x7A4 }
  - { offset: 0x40400, size: 0x8, addend: 0x0, symName: '__ZN9hashbrown3raw21RawTable$LT$T$C$A$GT$14reserve_rehash17hfd3854b9bab5003eE', symObjAddr: 0x5A2C, symBinAddr: 0xEF154, symSize: 0x7A4 }
  - { offset: 0x415F8, size: 0x8, addend: 0x0, symName: '__ZN9hashbrown3raw21RawTable$LT$T$C$A$GT$15into_allocation17h0b26312a8c716c3fE', symObjAddr: 0x6830, symBinAddr: 0xEE74, symSize: 0x120 }
  - { offset: 0x4173D, size: 0x8, addend: 0x0, symName: '__ZN9hashbrown3raw21RawTable$LT$T$C$A$GT$15into_allocation17h488bc552a161dec5E', symObjAddr: 0x6950, symBinAddr: 0xEF94, symSize: 0x120 }
  - { offset: 0x41882, size: 0x8, addend: 0x0, symName: '__ZN9hashbrown3raw21RawTable$LT$T$C$A$GT$15into_allocation17h4db131a086ace4f2E', symObjAddr: 0x6A70, symBinAddr: 0xF0B4, symSize: 0x120 }
  - { offset: 0x419C7, size: 0x8, addend: 0x0, symName: '__ZN9hashbrown3raw21RawTable$LT$T$C$A$GT$15into_allocation17h5414d483f2d988fdE', symObjAddr: 0x6B90, symBinAddr: 0xF1D4, symSize: 0x120 }
  - { offset: 0x41B0E, size: 0x8, addend: 0x0, symName: '__ZN9hashbrown3raw21RawTable$LT$T$C$A$GT$16with_capacity_in17h10656d81e44d5080E', symObjAddr: 0x6CB0, symBinAddr: 0xF2F4, symSize: 0x98 }
  - { offset: 0x41D42, size: 0x8, addend: 0x0, symName: '__ZN9hashbrown3raw21RawTable$LT$T$C$A$GT$22insert_tagged_at_index17h1782e3045f3ab845E', symObjAddr: 0x6D48, symBinAddr: 0xF38C, symSize: 0x124 }
  - { offset: 0x42268, size: 0x8, addend: 0x0, symName: '__ZN9hashbrown3raw21RawTable$LT$T$C$A$GT$22insert_tagged_at_index17h2d836d2d0a801841E', symObjAddr: 0x6E6C, symBinAddr: 0xF4B0, symSize: 0x114 }
  - { offset: 0x427A4, size: 0x8, addend: 0x0, symName: '__ZN9hashbrown3raw21RawTable$LT$T$C$A$GT$22insert_tagged_at_index17h3f62002fde267d9aE', symObjAddr: 0x6F80, symBinAddr: 0xF5C4, symSize: 0x124 }
  - { offset: 0x42CCA, size: 0x8, addend: 0x0, symName: '__ZN9hashbrown3raw21RawTable$LT$T$C$A$GT$22insert_tagged_at_index17h415d613983f83271E', symObjAddr: 0x70A4, symBinAddr: 0xF6E8, symSize: 0x11C }
  - { offset: 0x431FA, size: 0x8, addend: 0x0, symName: '__ZN9hashbrown3raw21RawTable$LT$T$C$A$GT$22insert_tagged_at_index17h56730ac1d7c34226E', symObjAddr: 0x71C0, symBinAddr: 0xF804, symSize: 0x11C }
  - { offset: 0x4372A, size: 0x8, addend: 0x0, symName: '__ZN9hashbrown3raw21RawTable$LT$T$C$A$GT$22insert_tagged_at_index17h71c1ee17757bb934E', symObjAddr: 0x72DC, symBinAddr: 0xF920, symSize: 0x124 }
  - { offset: 0x43B90, size: 0x8, addend: 0x0, symName: '__ZN9hashbrown3raw21RawTable$LT$T$C$A$GT$25find_or_find_insert_index17h0de3f4bb8bc6a17fE', symObjAddr: 0x7400, symBinAddr: 0xFA44, symSize: 0x134 }
  - { offset: 0x43E4A, size: 0x8, addend: 0x0, symName: '__ZN9hashbrown3raw21RawTable$LT$T$C$A$GT$25find_or_find_insert_index17h3fcd753fd27f4f70E', symObjAddr: 0x7534, symBinAddr: 0xFB78, symSize: 0x134 }
  - { offset: 0x44104, size: 0x8, addend: 0x0, symName: '__ZN9hashbrown3raw21RawTable$LT$T$C$A$GT$25find_or_find_insert_index17h844e58b214380a27E', symObjAddr: 0x7668, symBinAddr: 0xFCAC, symSize: 0x134 }
  - { offset: 0x443BE, size: 0x8, addend: 0x0, symName: '__ZN9hashbrown3raw21RawTable$LT$T$C$A$GT$25find_or_find_insert_index17h8ed541dd244a406fE', symObjAddr: 0x779C, symBinAddr: 0xFDE0, symSize: 0x134 }
  - { offset: 0x44678, size: 0x8, addend: 0x0, symName: '__ZN9hashbrown3raw21RawTable$LT$T$C$A$GT$25find_or_find_insert_index17h9c4202526def5643E', symObjAddr: 0x78D0, symBinAddr: 0xFF14, symSize: 0x134 }
  - { offset: 0x44932, size: 0x8, addend: 0x0, symName: '__ZN9hashbrown3raw21RawTable$LT$T$C$A$GT$25find_or_find_insert_index17hc184321f53e7b182E', symObjAddr: 0x7A04, symBinAddr: 0x10048, symSize: 0x134 }
  - { offset: 0x455C0, size: 0x8, addend: 0x0, symName: '__ZN9hashbrown3raw21RawTable$LT$T$C$A$GT$4find17h6fd214ac0dcc76ddE', symObjAddr: 0x7FD0, symBinAddr: 0x10614, symSize: 0x314 }
  - { offset: 0x45B48, size: 0x8, addend: 0x0, symName: '__ZN9hashbrown3raw21RawTable$LT$T$C$A$GT$4find17h9a9aca80122bc6bbE', symObjAddr: 0x82E4, symBinAddr: 0x10928, symSize: 0x314 }
  - { offset: 0x460D0, size: 0x8, addend: 0x0, symName: '__ZN9hashbrown3raw21RawTable$LT$T$C$A$GT$4find17hc66cb3cad9a48bedE', symObjAddr: 0x85F8, symBinAddr: 0x10C3C, symSize: 0x314 }
  - { offset: 0x46658, size: 0x8, addend: 0x0, symName: '__ZN9hashbrown3raw21RawTable$LT$T$C$A$GT$4find17hf912c19d26772061E', symObjAddr: 0x890C, symBinAddr: 0x10F50, symSize: 0x314 }
  - { offset: 0x47125, size: 0x8, addend: 0x0, symName: '__ZN9hashbrown3raw21RawTable$LT$T$C$A$GT$6remove17hda14d484a3330bfeE', symObjAddr: 0x8F30, symBinAddr: 0x11574, symSize: 0xFC }
  - { offset: 0x47359, size: 0x8, addend: 0x0, symName: '__ZN9hashbrown3raw21RawTable$LT$T$C$A$GT$7reserve17h0dd1f0aa23b5ca6fE', symObjAddr: 0x902C, symBinAddr: 0x11670, symSize: 0xB0 }
  - { offset: 0x4745D, size: 0x8, addend: 0x0, symName: '__ZN9hashbrown3raw21RawTable$LT$T$C$A$GT$7reserve17h3ee12057c6aca6dbE', symObjAddr: 0x90DC, symBinAddr: 0x11720, symSize: 0xB0 }
  - { offset: 0x47561, size: 0x8, addend: 0x0, symName: '__ZN9hashbrown3raw21RawTable$LT$T$C$A$GT$7reserve17h66764657bb6d9069E', symObjAddr: 0x918C, symBinAddr: 0x117D0, symSize: 0xB0 }
  - { offset: 0x47665, size: 0x8, addend: 0x0, symName: '__ZN9hashbrown3raw21RawTable$LT$T$C$A$GT$7reserve17h8a87cea776b87fc0E', symObjAddr: 0x923C, symBinAddr: 0x11880, symSize: 0xB0 }
  - { offset: 0x47769, size: 0x8, addend: 0x0, symName: '__ZN9hashbrown3raw21RawTable$LT$T$C$A$GT$7reserve17h9feef29daf2b7f3aE', symObjAddr: 0x92EC, symBinAddr: 0x11930, symSize: 0xB0 }
  - { offset: 0x4786D, size: 0x8, addend: 0x0, symName: '__ZN9hashbrown3raw21RawTable$LT$T$C$A$GT$7reserve17hee0c47a22028ac79E', symObjAddr: 0x939C, symBinAddr: 0x119E0, symSize: 0xB0 }
  - { offset: 0x47971, size: 0x8, addend: 0x0, symName: '__ZN9hashbrown3raw21RawTable$LT$T$C$A$GT$7reserve17hf5380b5c17e353c5E', symObjAddr: 0x944C, symBinAddr: 0x11A90, symSize: 0xB0 }
  - { offset: 0x47AD8, size: 0x8, addend: 0x0, symName: __ZN4core4hash11BuildHasher8hash_one17h18dfbc543dca5e8dE, symObjAddr: 0x0, symBinAddr: 0x11B40, symSize: 0x84 }
  - { offset: 0x47AF4, size: 0x8, addend: 0x0, symName: __ZN4core4hash11BuildHasher8hash_one17h18dfbc543dca5e8dE, symObjAddr: 0x0, symBinAddr: 0x11B40, symSize: 0x84 }
  - { offset: 0x47B59, size: 0x8, addend: 0x0, symName: __ZN4core4hash11BuildHasher8hash_one17h7692b56ee38647baE, symObjAddr: 0x84, symBinAddr: 0x11BC4, symSize: 0x84 }
  - { offset: 0x47EAE, size: 0x8, addend: 0x0, symName: __ZN14neuralvault_rs8distance15cosine_distance17he7a594d7949680b1E, symObjAddr: 0x0, symBinAddr: 0x11C48, symSize: 0x48 }
  - { offset: 0x47EC5, size: 0x8, addend: 0x0, symName: __ZN14neuralvault_rs8distance15cosine_distance17he7a594d7949680b1E, symObjAddr: 0x0, symBinAddr: 0x11C48, symSize: 0x48 }
  - { offset: 0x47F54, size: 0x8, addend: 0x0, symName: __ZN4core5slice4sort6shared9smallsort11insert_tail17hd34be27c9e6b9d7fE, symObjAddr: 0x0, symBinAddr: 0x11C90, symSize: 0x19C }
  - { offset: 0x48E2B, size: 0x8, addend: 0x0, symName: __ZN4core5slice4sort6shared9smallsort11insert_tail17hd34be27c9e6b9d7fE, symObjAddr: 0x0, symBinAddr: 0x11C90, symSize: 0x19C }
  - { offset: 0x48F82, size: 0x8, addend: 0x0, symName: __ZN4core5slice4sort6shared9smallsort11insert_tail17hf7561be0245080a2E, symObjAddr: 0x19C, symBinAddr: 0x11E2C, symSize: 0x19C }
  - { offset: 0x490D8, size: 0x8, addend: 0x0, symName: __ZN4core5slice4sort6shared9smallsort12sort4_stable17h02e5e280b8db91a0E, symObjAddr: 0x338, symBinAddr: 0x11FC8, symSize: 0x730 }
  - { offset: 0x4A39D, size: 0x8, addend: 0x0, symName: __ZN4core5slice4sort6shared9smallsort12sort4_stable17hf42e51ddcb0276c2E, symObjAddr: 0xA68, symBinAddr: 0x126F8, symSize: 0x730 }
  - { offset: 0x4B662, size: 0x8, addend: 0x0, symName: __ZN4core5slice4sort6shared9smallsort12sort8_stable17h0d42204546725236E, symObjAddr: 0x1198, symBinAddr: 0x12E28, symSize: 0x94 }
  - { offset: 0x4B72D, size: 0x8, addend: 0x0, symName: __ZN4core5slice4sort6shared9smallsort12sort8_stable17hfbd77534bb63fc8dE, symObjAddr: 0x122C, symBinAddr: 0x12EBC, symSize: 0x94 }
  - { offset: 0x4B8DC, size: 0x8, addend: 0x0, symName: __ZN4core5slice4sort6shared9smallsort19bidirectional_merge17h5e1a40c2060855f3E, symObjAddr: 0x12C0, symBinAddr: 0x12F50, symSize: 0x4E8 }
  - { offset: 0x4C063, size: 0x8, addend: 0x0, symName: __ZN4core5slice4sort6shared9smallsort19bidirectional_merge17had9c579e796d6935E, symObjAddr: 0x17A8, symBinAddr: 0x13438, symSize: 0x4E8 }
  - { offset: 0x4C706, size: 0x8, addend: 0x0, symName: __ZN4core5slice4sort6shared9smallsort25insertion_sort_shift_left17h22cd0c1c28931137E, symObjAddr: 0x1C90, symBinAddr: 0x13920, symSize: 0xC0 }
  - { offset: 0x4C840, size: 0x8, addend: 0x0, symName: __ZN4core5slice4sort6shared9smallsort25insertion_sort_shift_left17hf8bb43d2ad14e09eE, symObjAddr: 0x1D50, symBinAddr: 0x139E0, symSize: 0xC0 }
  - { offset: 0x4C97A, size: 0x8, addend: 0x0, symName: __ZN4core5slice4sort6shared9smallsort31small_sort_general_with_scratch17h75648edb516c6aaeE, symObjAddr: 0x1E10, symBinAddr: 0x13AA0, symSize: 0x4EC }
  - { offset: 0x4CE4E, size: 0x8, addend: 0x0, symName: __ZN4core5slice4sort6shared9smallsort31small_sort_general_with_scratch17hdb5e04778ed7ce80E, symObjAddr: 0x22FC, symBinAddr: 0x13F8C, symSize: 0x4EC }
  - { offset: 0x4E1C2, size: 0x8, addend: 0x0, symName: __ZN4pyo37pyclass18create_type_object18create_type_object17h65b7e2f717d699e6E, symObjAddr: 0x0, symBinAddr: 0x14478, symSize: 0x164 }
  - { offset: 0x4F868, size: 0x8, addend: 0x0, symName: __ZN4pyo37pyclass18create_type_object18create_type_object17h65b7e2f717d699e6E, symObjAddr: 0x0, symBinAddr: 0x14478, symSize: 0x164 }
  - { offset: 0x4F8C8, size: 0x8, addend: 0x0, symName: __ZN4pyo37pyclass18create_type_object18create_type_object17hd56906130b38c5f5E, symObjAddr: 0x164, symBinAddr: 0x145DC, symSize: 0x164 }
  - { offset: 0x507FE, size: 0x8, addend: 0x0, symName: '__ZN5alloc3vec16Vec$LT$T$C$A$GT$13from_parts_in18precondition_check17h215d16ca243212e7E', symObjAddr: 0x0, symBinAddr: 0x14740, symSize: 0x60 }
  - { offset: 0x5081F, size: 0x8, addend: 0x0, symName: '__ZN5alloc3vec16Vec$LT$T$C$A$GT$13from_parts_in18precondition_check17h215d16ca243212e7E', symObjAddr: 0x0, symBinAddr: 0x14740, symSize: 0x60 }
  - { offset: 0x50878, size: 0x8, addend: 0x0, symName: '__ZN5alloc3vec16Vec$LT$T$C$A$GT$17from_raw_parts_in18precondition_check17hb4bdbfb4a751dadaE', symObjAddr: 0x60, symBinAddr: 0x147A0, symSize: 0x60 }
  - { offset: 0x508D1, size: 0x8, addend: 0x0, symName: '__ZN5alloc3vec16Vec$LT$T$C$A$GT$7set_len18precondition_check17hf63eae65eaff52b9E', symObjAddr: 0xC0, symBinAddr: 0x14800, symSize: 0x60 }
  - { offset: 0x5097B, size: 0x8, addend: 0x0, symName: __ZN4core3fmt9Arguments17from_str_nonconst17h25f90d99941c853bE, symObjAddr: 0x0, symBinAddr: 0x14860, symSize: 0x28 }
  - { offset: 0x50CC7, size: 0x8, addend: 0x0, symName: __ZN4core3fmt9Arguments17from_str_nonconst17h25f90d99941c853bE, symObjAddr: 0x0, symBinAddr: 0x14860, symSize: 0x28 }
  - { offset: 0x50CEA, size: 0x8, addend: 0x0, symName: __ZN4core3fmt9Arguments8from_str17h471f1718a21950c4E, symObjAddr: 0x28, symBinAddr: 0x14888, symSize: 0x20 }
  - { offset: 0x50D9B, size: 0x8, addend: 0x0, symName: '__ZN4core3ptr52_$LT$impl$u20$core..cmp..PartialEq$u20$for$u20$F$GT$2eq17hbd76559d0daf67abE', symObjAddr: 0x3C4, symBinAddr: 0x148A8, symSize: 0x50 }
  - { offset: 0x50DE2, size: 0x8, addend: 0x0, symName: __ZN4core3ptr5write17h5ce2f144916dcd8eE, symObjAddr: 0x414, symBinAddr: 0x148F8, symSize: 0x24 }
  - { offset: 0x50E24, size: 0x8, addend: 0x0, symName: __ZN4core3ptr5write17h92775700a1912377E, symObjAddr: 0x438, symBinAddr: 0x1491C, symSize: 0x2C }
  - { offset: 0x51727, size: 0x8, addend: 0x0, symName: __ZN4core5slice4sort6shared5pivot11median3_rec17h5d76019c3d49f920E, symObjAddr: 0x0, symBinAddr: 0x14948, symSize: 0x1B8 }
  - { offset: 0x51946, size: 0x8, addend: 0x0, symName: __ZN4core5slice4sort6shared5pivot11median3_rec17h5d76019c3d49f920E, symObjAddr: 0x0, symBinAddr: 0x14948, symSize: 0x1B8 }
  - { offset: 0x51BC3, size: 0x8, addend: 0x0, symName: __ZN4core5slice4sort6shared5pivot11median3_rec17hb16ba60c9c24c4dbE, symObjAddr: 0x1B8, symBinAddr: 0x14B00, symSize: 0x1B8 }
  - { offset: 0x51DC7, size: 0x8, addend: 0x0, symName: __ZN4core5slice4sort6shared5pivot12choose_pivot17h522e409c8431f2c8E, symObjAddr: 0x370, symBinAddr: 0x14CB8, symSize: 0x238 }
  - { offset: 0x5205B, size: 0x8, addend: 0x0, symName: __ZN4core5slice4sort6shared5pivot12choose_pivot17h987b86228efb3e92E, symObjAddr: 0x5A8, symBinAddr: 0x14EF0, symSize: 0x238 }
  - { offset: 0x52550, size: 0x8, addend: 0x0, symName: '__ZN100_$LT$pyo3..types..tuple..BorrowedTupleIterator$u20$as$u20$core..iter..traits..iterator..Iterator$GT$4next17he4c357e01424b0beE', symObjAddr: 0x0, symBinAddr: 0x15128, symSize: 0x9C }
  - { offset: 0x537E5, size: 0x8, addend: 0x0, symName: '__ZN100_$LT$pyo3..types..tuple..BorrowedTupleIterator$u20$as$u20$core..iter..traits..iterator..Iterator$GT$4next17he4c357e01424b0beE', symObjAddr: 0x0, symBinAddr: 0x15128, symSize: 0x9C }
  - { offset: 0x5382F, size: 0x8, addend: 0x0, symName: '__ZN77_$LT$pyo3..types..tuple..PyTuple$u20$as$u20$pyo3..type_object..PyTypeInfo$GT$16is_type_of_bound17h6d61096c1db72eafE', symObjAddr: 0x9C, symBinAddr: 0x151C4, symSize: 0x30 }
  - { offset: 0x53F0B, size: 0x8, addend: 0x0, symName: '__ZN153_$LT$core..result..Result$LT$T$C$F$GT$$u20$as$u20$core..ops..try_trait..FromResidual$LT$core..result..Result$LT$core..convert..Infallible$C$E$GT$$GT$$GT$13from_residual17h108e8f620b8aa140E', symObjAddr: 0x0, symBinAddr: 0x151F4, symSize: 0x40 }
  - { offset: 0x553E5, size: 0x8, addend: 0x0, symName: '__ZN153_$LT$core..result..Result$LT$T$C$F$GT$$u20$as$u20$core..ops..try_trait..FromResidual$LT$core..result..Result$LT$core..convert..Infallible$C$E$GT$$GT$$GT$13from_residual17h108e8f620b8aa140E', symObjAddr: 0x0, symBinAddr: 0x151F4, symSize: 0x40 }
  - { offset: 0x5546A, size: 0x8, addend: 0x0, symName: '__ZN153_$LT$core..result..Result$LT$T$C$F$GT$$u20$as$u20$core..ops..try_trait..FromResidual$LT$core..result..Result$LT$core..convert..Infallible$C$E$GT$$GT$$GT$13from_residual17h157cb782b6f4b27dE', symObjAddr: 0x40, symBinAddr: 0x15234, symSize: 0x48 }
  - { offset: 0x554EF, size: 0x8, addend: 0x0, symName: '__ZN153_$LT$core..result..Result$LT$T$C$F$GT$$u20$as$u20$core..ops..try_trait..FromResidual$LT$core..result..Result$LT$core..convert..Infallible$C$E$GT$$GT$$GT$13from_residual17h1f9aebc9e2c6d138E', symObjAddr: 0x88, symBinAddr: 0x1527C, symSize: 0x48 }
  - { offset: 0x55574, size: 0x8, addend: 0x0, symName: '__ZN153_$LT$core..result..Result$LT$T$C$F$GT$$u20$as$u20$core..ops..try_trait..FromResidual$LT$core..result..Result$LT$core..convert..Infallible$C$E$GT$$GT$$GT$13from_residual17h4969560559cf7dd5E', symObjAddr: 0xD0, symBinAddr: 0x152C4, symSize: 0x58 }
  - { offset: 0x555DC, size: 0x8, addend: 0x0, symName: '__ZN153_$LT$core..result..Result$LT$T$C$F$GT$$u20$as$u20$core..ops..try_trait..FromResidual$LT$core..result..Result$LT$core..convert..Infallible$C$E$GT$$GT$$GT$13from_residual17h5c2d0066f778d1d3E', symObjAddr: 0x130, symBinAddr: 0x1531C, symSize: 0x58 }
  - { offset: 0x55644, size: 0x8, addend: 0x0, symName: '__ZN153_$LT$core..result..Result$LT$T$C$F$GT$$u20$as$u20$core..ops..try_trait..FromResidual$LT$core..result..Result$LT$core..convert..Infallible$C$E$GT$$GT$$GT$13from_residual17h63859a382e74c5a9E', symObjAddr: 0x188, symBinAddr: 0x15374, symSize: 0x48 }
  - { offset: 0x556C9, size: 0x8, addend: 0x0, symName: '__ZN153_$LT$core..result..Result$LT$T$C$F$GT$$u20$as$u20$core..ops..try_trait..FromResidual$LT$core..result..Result$LT$core..convert..Infallible$C$E$GT$$GT$$GT$13from_residual17h6a86122daa5be11bE', symObjAddr: 0x1D8, symBinAddr: 0x153BC, symSize: 0x58 }
  - { offset: 0x55731, size: 0x8, addend: 0x0, symName: '__ZN153_$LT$core..result..Result$LT$T$C$F$GT$$u20$as$u20$core..ops..try_trait..FromResidual$LT$core..result..Result$LT$core..convert..Infallible$C$E$GT$$GT$$GT$13from_residual17h8297f5e2d6e1779bE', symObjAddr: 0x230, symBinAddr: 0x15414, symSize: 0x48 }
  - { offset: 0x557B6, size: 0x8, addend: 0x0, symName: '__ZN153_$LT$core..result..Result$LT$T$C$F$GT$$u20$as$u20$core..ops..try_trait..FromResidual$LT$core..result..Result$LT$core..convert..Infallible$C$E$GT$$GT$$GT$13from_residual17h8b62f580e0d8db4dE', symObjAddr: 0x278, symBinAddr: 0x1545C, symSize: 0x58 }
  - { offset: 0x5581E, size: 0x8, addend: 0x0, symName: '__ZN153_$LT$core..result..Result$LT$T$C$F$GT$$u20$as$u20$core..ops..try_trait..FromResidual$LT$core..result..Result$LT$core..convert..Infallible$C$E$GT$$GT$$GT$13from_residual17h8cac7624229a7dbaE', symObjAddr: 0x2D0, symBinAddr: 0x154B4, symSize: 0x48 }
  - { offset: 0x558A3, size: 0x8, addend: 0x0, symName: '__ZN153_$LT$core..result..Result$LT$T$C$F$GT$$u20$as$u20$core..ops..try_trait..FromResidual$LT$core..result..Result$LT$core..convert..Infallible$C$E$GT$$GT$$GT$13from_residual17h9f4eb4bbd8ee16b5E', symObjAddr: 0x318, symBinAddr: 0x154FC, symSize: 0x48 }
  - { offset: 0x55928, size: 0x8, addend: 0x0, symName: '__ZN153_$LT$core..result..Result$LT$T$C$F$GT$$u20$as$u20$core..ops..try_trait..FromResidual$LT$core..result..Result$LT$core..convert..Infallible$C$E$GT$$GT$$GT$13from_residual17ha746b7f53abe64aaE', symObjAddr: 0x360, symBinAddr: 0x15544, symSize: 0x54 }
  - { offset: 0x55990, size: 0x8, addend: 0x0, symName: '__ZN153_$LT$core..result..Result$LT$T$C$F$GT$$u20$as$u20$core..ops..try_trait..FromResidual$LT$core..result..Result$LT$core..convert..Infallible$C$E$GT$$GT$$GT$13from_residual17hb70f297c67e5c011E', symObjAddr: 0x3B4, symBinAddr: 0x15598, symSize: 0x48 }
  - { offset: 0x55A15, size: 0x8, addend: 0x0, symName: '__ZN153_$LT$core..result..Result$LT$T$C$F$GT$$u20$as$u20$core..ops..try_trait..FromResidual$LT$core..result..Result$LT$core..convert..Infallible$C$E$GT$$GT$$GT$13from_residual17hc2644a2e5c818eb5E', symObjAddr: 0x3FC, symBinAddr: 0x155E0, symSize: 0x48 }
  - { offset: 0x55A9A, size: 0x8, addend: 0x0, symName: '__ZN153_$LT$core..result..Result$LT$T$C$F$GT$$u20$as$u20$core..ops..try_trait..FromResidual$LT$core..result..Result$LT$core..convert..Infallible$C$E$GT$$GT$$GT$13from_residual17hd7f47d4242f2ba1fE', symObjAddr: 0x444, symBinAddr: 0x15628, symSize: 0x48 }
  - { offset: 0x55B1F, size: 0x8, addend: 0x0, symName: '__ZN153_$LT$core..result..Result$LT$T$C$F$GT$$u20$as$u20$core..ops..try_trait..FromResidual$LT$core..result..Result$LT$core..convert..Infallible$C$E$GT$$GT$$GT$13from_residual17he4b893ee3165f2feE', symObjAddr: 0x48C, symBinAddr: 0x15670, symSize: 0x48 }
  - { offset: 0x55BA4, size: 0x8, addend: 0x0, symName: '__ZN153_$LT$core..result..Result$LT$T$C$F$GT$$u20$as$u20$core..ops..try_trait..FromResidual$LT$core..result..Result$LT$core..convert..Infallible$C$E$GT$$GT$$GT$13from_residual17hee98a0195602abd0E', symObjAddr: 0x4D4, symBinAddr: 0x156B8, symSize: 0x48 }
  - { offset: 0x55C29, size: 0x8, addend: 0x0, symName: '__ZN153_$LT$core..result..Result$LT$T$C$F$GT$$u20$as$u20$core..ops..try_trait..FromResidual$LT$core..result..Result$LT$core..convert..Infallible$C$E$GT$$GT$$GT$13from_residual17hfdd9546b28f47147E', symObjAddr: 0x51C, symBinAddr: 0x15700, symSize: 0x48 }
  - { offset: 0x57618, size: 0x8, addend: 0x0, symName: '__ZN79_$LT$core..result..Result$LT$T$C$E$GT$$u20$as$u20$core..ops..try_trait..Try$GT$11from_output17h697d027244a9a972E', symObjAddr: 0x1414, symBinAddr: 0x165F8, symSize: 0x1C }
  - { offset: 0x57658, size: 0x8, addend: 0x0, symName: '__ZN79_$LT$core..result..Result$LT$T$C$E$GT$$u20$as$u20$core..ops..try_trait..Try$GT$11from_output17hc8865627dee1aae1E', symObjAddr: 0x1430, symBinAddr: 0x16614, symSize: 0x1C }
  - { offset: 0x57698, size: 0x8, addend: 0x0, symName: '__ZN79_$LT$core..result..Result$LT$T$C$E$GT$$u20$as$u20$core..ops..try_trait..Try$GT$6branch17h0bbbb602a51c186cE', symObjAddr: 0x144C, symBinAddr: 0x16630, symSize: 0x80 }
  - { offset: 0x57716, size: 0x8, addend: 0x0, symName: '__ZN79_$LT$core..result..Result$LT$T$C$E$GT$$u20$as$u20$core..ops..try_trait..Try$GT$6branch17h0f6e1c1eb7122054E', symObjAddr: 0x14CC, symBinAddr: 0x166B0, symSize: 0x94 }
  - { offset: 0x57793, size: 0x8, addend: 0x0, symName: '__ZN79_$LT$core..result..Result$LT$T$C$E$GT$$u20$as$u20$core..ops..try_trait..Try$GT$6branch17h14616077ee508d6cE', symObjAddr: 0x1560, symBinAddr: 0x16744, symSize: 0x88 }
  - { offset: 0x57811, size: 0x8, addend: 0x0, symName: '__ZN79_$LT$core..result..Result$LT$T$C$E$GT$$u20$as$u20$core..ops..try_trait..Try$GT$6branch17h1dc8d80394cfe441E', symObjAddr: 0x15E8, symBinAddr: 0x167CC, symSize: 0x80 }
  - { offset: 0x5788F, size: 0x8, addend: 0x0, symName: '__ZN79_$LT$core..result..Result$LT$T$C$E$GT$$u20$as$u20$core..ops..try_trait..Try$GT$6branch17h2dce5107bf926fd6E', symObjAddr: 0x1668, symBinAddr: 0x1684C, symSize: 0x80 }
  - { offset: 0x5790D, size: 0x8, addend: 0x0, symName: '__ZN79_$LT$core..result..Result$LT$T$C$E$GT$$u20$as$u20$core..ops..try_trait..Try$GT$6branch17h2f820e9704ccb798E', symObjAddr: 0x16E8, symBinAddr: 0x168CC, symSize: 0x80 }
  - { offset: 0x5798B, size: 0x8, addend: 0x0, symName: '__ZN79_$LT$core..result..Result$LT$T$C$E$GT$$u20$as$u20$core..ops..try_trait..Try$GT$6branch17h331ae3461d5cbb22E', symObjAddr: 0x1768, symBinAddr: 0x1694C, symSize: 0x94 }
  - { offset: 0x57A08, size: 0x8, addend: 0x0, symName: '__ZN79_$LT$core..result..Result$LT$T$C$E$GT$$u20$as$u20$core..ops..try_trait..Try$GT$6branch17h3d8d48df766d8d3fE', symObjAddr: 0x17FC, symBinAddr: 0x169E0, symSize: 0x94 }
  - { offset: 0x57A85, size: 0x8, addend: 0x0, symName: '__ZN79_$LT$core..result..Result$LT$T$C$E$GT$$u20$as$u20$core..ops..try_trait..Try$GT$6branch17h474bea3d24acf4bdE', symObjAddr: 0x1890, symBinAddr: 0x16A74, symSize: 0x88 }
  - { offset: 0x57B03, size: 0x8, addend: 0x0, symName: '__ZN79_$LT$core..result..Result$LT$T$C$E$GT$$u20$as$u20$core..ops..try_trait..Try$GT$6branch17h51ee8c7b202f8932E', symObjAddr: 0x1918, symBinAddr: 0x16AFC, symSize: 0x80 }
  - { offset: 0x57B81, size: 0x8, addend: 0x0, symName: '__ZN79_$LT$core..result..Result$LT$T$C$E$GT$$u20$as$u20$core..ops..try_trait..Try$GT$6branch17h554e1b1201a55327E', symObjAddr: 0x1998, symBinAddr: 0x16B7C, symSize: 0x80 }
  - { offset: 0x57BFF, size: 0x8, addend: 0x0, symName: '__ZN79_$LT$core..result..Result$LT$T$C$E$GT$$u20$as$u20$core..ops..try_trait..Try$GT$6branch17h650813dbea38ce46E', symObjAddr: 0x1A18, symBinAddr: 0x16BFC, symSize: 0x88 }
  - { offset: 0x57C7D, size: 0x8, addend: 0x0, symName: '__ZN79_$LT$core..result..Result$LT$T$C$E$GT$$u20$as$u20$core..ops..try_trait..Try$GT$6branch17h6d9a7d29db923a47E', symObjAddr: 0x1AA0, symBinAddr: 0x16C84, symSize: 0x80 }
  - { offset: 0x57CFB, size: 0x8, addend: 0x0, symName: '__ZN79_$LT$core..result..Result$LT$T$C$E$GT$$u20$as$u20$core..ops..try_trait..Try$GT$6branch17h72227ee4aa1056a2E', symObjAddr: 0x1B20, symBinAddr: 0x16D04, symSize: 0x94 }
  - { offset: 0x57D78, size: 0x8, addend: 0x0, symName: '__ZN79_$LT$core..result..Result$LT$T$C$E$GT$$u20$as$u20$core..ops..try_trait..Try$GT$6branch17h87c9f394c1b084daE', symObjAddr: 0x1BB4, symBinAddr: 0x16D98, symSize: 0x94 }
  - { offset: 0x57DF5, size: 0x8, addend: 0x0, symName: '__ZN79_$LT$core..result..Result$LT$T$C$E$GT$$u20$as$u20$core..ops..try_trait..Try$GT$6branch17h9ecf04b3afa76d81E', symObjAddr: 0x1C48, symBinAddr: 0x16E2C, symSize: 0x80 }
  - { offset: 0x57E73, size: 0x8, addend: 0x0, symName: '__ZN79_$LT$core..result..Result$LT$T$C$E$GT$$u20$as$u20$core..ops..try_trait..Try$GT$6branch17ha6fefcf5bcb86eb8E', symObjAddr: 0x1CC8, symBinAddr: 0x16EAC, symSize: 0x88 }
  - { offset: 0x57EF1, size: 0x8, addend: 0x0, symName: '__ZN79_$LT$core..result..Result$LT$T$C$E$GT$$u20$as$u20$core..ops..try_trait..Try$GT$6branch17haa7b3164a58fc829E', symObjAddr: 0x1D50, symBinAddr: 0x16F34, symSize: 0x80 }
  - { offset: 0x57F6F, size: 0x8, addend: 0x0, symName: '__ZN79_$LT$core..result..Result$LT$T$C$E$GT$$u20$as$u20$core..ops..try_trait..Try$GT$6branch17hb2fa7b1fb7136e3eE', symObjAddr: 0x1DD0, symBinAddr: 0x16FB4, symSize: 0x3C }
  - { offset: 0x57FCD, size: 0x8, addend: 0x0, symName: '__ZN79_$LT$core..result..Result$LT$T$C$E$GT$$u20$as$u20$core..ops..try_trait..Try$GT$6branch17hc343eab137f58ed8E', symObjAddr: 0x1E0C, symBinAddr: 0x16FF0, symSize: 0xA8 }
  - { offset: 0x5804A, size: 0x8, addend: 0x0, symName: '__ZN79_$LT$core..result..Result$LT$T$C$E$GT$$u20$as$u20$core..ops..try_trait..Try$GT$6branch17hcc6c53f0addc07f7E', symObjAddr: 0x1EB4, symBinAddr: 0x17098, symSize: 0x3C }
  - { offset: 0x580A8, size: 0x8, addend: 0x0, symName: '__ZN79_$LT$core..result..Result$LT$T$C$E$GT$$u20$as$u20$core..ops..try_trait..Try$GT$6branch17he8411b51fe57049cE', symObjAddr: 0x1EF0, symBinAddr: 0x170D4, symSize: 0x88 }
  - { offset: 0x58126, size: 0x8, addend: 0x0, symName: '__ZN79_$LT$core..result..Result$LT$T$C$E$GT$$u20$as$u20$core..ops..try_trait..Try$GT$6branch17hef06ff569284b22bE', symObjAddr: 0x1F78, symBinAddr: 0x1715C, symSize: 0xC0 }
  - { offset: 0x581A4, size: 0x8, addend: 0x0, symName: '__ZN79_$LT$core..result..Result$LT$T$C$E$GT$$u20$as$u20$core..ops..try_trait..Try$GT$6branch17hef0e97a7a084c8dcE', symObjAddr: 0x2038, symBinAddr: 0x1721C, symSize: 0x70 }
  - { offset: 0x58222, size: 0x8, addend: 0x0, symName: '__ZN79_$LT$core..result..Result$LT$T$C$E$GT$$u20$as$u20$core..ops..try_trait..Try$GT$6branch17hf3d6da68603f3f39E', symObjAddr: 0x20A8, symBinAddr: 0x1728C, symSize: 0x94 }
  - { offset: 0x5A22B, size: 0x8, addend: 0x0, symName: '__ZN88_$LT$core..result..Result$LT$T$C$E$GT$$u20$as$u20$pyo3..impl_..wrap..OkWrap$LT$T$GT$$GT$4wrap17h2745e010c096badaE', symObjAddr: 0x213C, symBinAddr: 0x17320, symSize: 0x30 }
  - { offset: 0x5A9F9, size: 0x8, addend: 0x0, symName: '__ZN4core6result19Result$LT$T$C$E$GT$14unwrap_or_else17h27718230c1f8b9dbE', symObjAddr: 0x564, symBinAddr: 0x15748, symSize: 0x7C }
  - { offset: 0x5AA9A, size: 0x8, addend: 0x0, symName: '__ZN4core6result19Result$LT$T$C$E$GT$14unwrap_or_else17h3877ae559c80d509E', symObjAddr: 0x5E0, symBinAddr: 0x157C4, symSize: 0x70 }
  - { offset: 0x5AB06, size: 0x8, addend: 0x0, symName: '__ZN4core6result19Result$LT$T$C$E$GT$14unwrap_or_else17ha47a13988d3ad2c2E', symObjAddr: 0x650, symBinAddr: 0x15834, symSize: 0x7C }
  - { offset: 0x5B042, size: 0x8, addend: 0x0, symName: '__ZN4core6result19Result$LT$T$C$E$GT$3map17h1313aa156a9f800bE', symObjAddr: 0x6CC, symBinAddr: 0x158B0, symSize: 0xA8 }
  - { offset: 0x5B0D5, size: 0x8, addend: 0x0, symName: '__ZN4core6result19Result$LT$T$C$E$GT$3map17h4458a800fa985d63E', symObjAddr: 0x774, symBinAddr: 0x15958, symSize: 0x94 }
  - { offset: 0x5B186, size: 0x8, addend: 0x0, symName: '__ZN4core6result19Result$LT$T$C$E$GT$3map17h4a89e90ead6d8065E', symObjAddr: 0x808, symBinAddr: 0x159EC, symSize: 0xA8 }
  - { offset: 0x5B219, size: 0x8, addend: 0x0, symName: '__ZN4core6result19Result$LT$T$C$E$GT$3map17h4ab4defceea8b0b8E', symObjAddr: 0x8B0, symBinAddr: 0x15A94, symSize: 0x8C }
  - { offset: 0x5B3D5, size: 0x8, addend: 0x0, symName: '__ZN4core6result19Result$LT$T$C$E$GT$3map17h576bbc5f6ed2a7adE', symObjAddr: 0x93C, symBinAddr: 0x15B20, symSize: 0x80 }
  - { offset: 0x5B75A, size: 0x8, addend: 0x0, symName: '__ZN4core6result19Result$LT$T$C$E$GT$3map17h5ab443f718e5755fE', symObjAddr: 0x9BC, symBinAddr: 0x15BA0, symSize: 0x4C }
  - { offset: 0x5B833, size: 0x8, addend: 0x0, symName: '__ZN4core6result19Result$LT$T$C$E$GT$3map17h7131176d50089488E', symObjAddr: 0xA08, symBinAddr: 0x15BEC, symSize: 0xC0 }
  - { offset: 0x5B8C6, size: 0x8, addend: 0x0, symName: '__ZN4core6result19Result$LT$T$C$E$GT$3map17h71b734c30bd003aeE', symObjAddr: 0xAC8, symBinAddr: 0x15CAC, symSize: 0x80 }
  - { offset: 0x5B9C3, size: 0x8, addend: 0x0, symName: '__ZN4core6result19Result$LT$T$C$E$GT$3map17h72ebe84a26f10348E', symObjAddr: 0xB48, symBinAddr: 0x15D2C, symSize: 0x84 }
  - { offset: 0x5BA6E, size: 0x8, addend: 0x0, symName: '__ZN4core6result19Result$LT$T$C$E$GT$3map17h7a5f7f9f327f20a4E', symObjAddr: 0xBCC, symBinAddr: 0x15DB0, symSize: 0x80 }
  - { offset: 0x5BB1F, size: 0x8, addend: 0x0, symName: '__ZN4core6result19Result$LT$T$C$E$GT$3map17h8bc528d5854bab14E', symObjAddr: 0xC4C, symBinAddr: 0x15E30, symSize: 0xA8 }
  - { offset: 0x5BBBF, size: 0x8, addend: 0x0, symName: '__ZN4core6result19Result$LT$T$C$E$GT$3map17h94f1df94b8a511d0E', symObjAddr: 0xCF4, symBinAddr: 0x15ED8, symSize: 0x4C }
  - { offset: 0x5BC51, size: 0x8, addend: 0x0, symName: '__ZN4core6result19Result$LT$T$C$E$GT$3map17habcabf8ad7a07f48E', symObjAddr: 0xD40, symBinAddr: 0x15F24, symSize: 0x4C }
  - { offset: 0x5BCEA, size: 0x8, addend: 0x0, symName: '__ZN4core6result19Result$LT$T$C$E$GT$3map17hb2a4ceddd0fe9264E', symObjAddr: 0xD8C, symBinAddr: 0x15F70, symSize: 0x98 }
  - { offset: 0x5BD7D, size: 0x8, addend: 0x0, symName: '__ZN4core6result19Result$LT$T$C$E$GT$3map17hc5b081efdca1c180E', symObjAddr: 0xE24, symBinAddr: 0x16008, symSize: 0x94 }
  - { offset: 0x5BE10, size: 0x8, addend: 0x0, symName: '__ZN4core6result19Result$LT$T$C$E$GT$3map17hfedb4a14a422d14fE', symObjAddr: 0xEB8, symBinAddr: 0x1609C, symSize: 0x80 }
  - { offset: 0x5BED5, size: 0x8, addend: 0x0, symName: '__ZN4core6result19Result$LT$T$C$E$GT$6is_err17hfc7d0e8335998bb7E', symObjAddr: 0xF38, symBinAddr: 0x1611C, symSize: 0x20 }
  - { offset: 0x5BF40, size: 0x8, addend: 0x0, symName: '__ZN4core6result19Result$LT$T$C$E$GT$7map_err17h2cd6c6196a2d0321E', symObjAddr: 0xF58, symBinAddr: 0x1613C, symSize: 0x48 }
  - { offset: 0x5BFB6, size: 0x8, addend: 0x0, symName: '__ZN4core6result19Result$LT$T$C$E$GT$7map_err17h2f1623c7d7c6906eE', symObjAddr: 0xFA0, symBinAddr: 0x16184, symSize: 0x48 }
  - { offset: 0x5C02C, size: 0x8, addend: 0x0, symName: '__ZN4core6result19Result$LT$T$C$E$GT$7map_err17h7495dd72a5ea0a50E', symObjAddr: 0xFE8, symBinAddr: 0x161CC, symSize: 0x3C }
  - { offset: 0x5C0A0, size: 0x8, addend: 0x0, symName: '__ZN4core6result19Result$LT$T$C$E$GT$7map_err17h8ef3420c0497b4e3E', symObjAddr: 0x1024, symBinAddr: 0x16208, symSize: 0x30 }
  - { offset: 0x5C114, size: 0x8, addend: 0x0, symName: '__ZN4core6result19Result$LT$T$C$E$GT$7map_err17h92c74dfb2753ecbaE', symObjAddr: 0x1054, symBinAddr: 0x16238, symSize: 0x30 }
  - { offset: 0x5C1A0, size: 0x8, addend: 0x0, symName: '__ZN4core6result19Result$LT$T$C$E$GT$7map_err17h9a54eb20dd29ec5eE', symObjAddr: 0x1084, symBinAddr: 0x16268, symSize: 0x78 }
  - { offset: 0x5C232, size: 0x8, addend: 0x0, symName: '__ZN4core6result19Result$LT$T$C$E$GT$7map_err17ha7537c6f0efd68dfE', symObjAddr: 0x10FC, symBinAddr: 0x162E0, symSize: 0x20 }
  - { offset: 0x5C2A6, size: 0x8, addend: 0x0, symName: '__ZN4core6result19Result$LT$T$C$E$GT$7map_err17hbc1ec26e032ade7bE', symObjAddr: 0x111C, symBinAddr: 0x16300, symSize: 0x30 }
  - { offset: 0x5C332, size: 0x8, addend: 0x0, symName: '__ZN4core6result19Result$LT$T$C$E$GT$7map_err17hbec5b4a16d964b56E', symObjAddr: 0x114C, symBinAddr: 0x16330, symSize: 0xB4 }
  - { offset: 0x5C3C6, size: 0x8, addend: 0x0, symName: '__ZN4core6result19Result$LT$T$C$E$GT$7map_err17hccdd2f70c218711cE', symObjAddr: 0x1200, symBinAddr: 0x163E4, symSize: 0x70 }
  - { offset: 0x5C458, size: 0x8, addend: 0x0, symName: '__ZN4core6result19Result$LT$T$C$E$GT$7map_err17hd7b97bffa8bd0c21E', symObjAddr: 0x1270, symBinAddr: 0x16454, symSize: 0x48 }
  - { offset: 0x5C4E6, size: 0x8, addend: 0x0, symName: '__ZN4core6result19Result$LT$T$C$E$GT$7map_err17hf1365ee8c3aed2f5E', symObjAddr: 0x12B8, symBinAddr: 0x1649C, symSize: 0x78 }
  - { offset: 0x5C578, size: 0x8, addend: 0x0, symName: '__ZN4core6result19Result$LT$T$C$E$GT$7map_err17hfcd12f19fe05b866E', symObjAddr: 0x1330, symBinAddr: 0x16514, symSize: 0x78 }
  - { offset: 0x5C60A, size: 0x8, addend: 0x0, symName: '__ZN4core6result19Result$LT$T$C$E$GT$9unwrap_or17h6e1ed538b54d1c02E', symObjAddr: 0x13A8, symBinAddr: 0x1658C, symSize: 0x6C }
  - { offset: 0x5C72F, size: 0x8, addend: 0x0, symName: '__ZN4pyo35types4none120_$LT$impl$u20$pyo3..conversion..IntoPy$LT$pyo3..instance..Py$LT$pyo3..types..any..PyAny$GT$$GT$$u20$for$u20$$LP$$RP$$GT$7into_py17hcfe417b8038087eeE', symObjAddr: 0x0, symBinAddr: 0x17350, symSize: 0x20 }
  - { offset: 0x5D915, size: 0x8, addend: 0x0, symName: '__ZN4pyo35types4none120_$LT$impl$u20$pyo3..conversion..IntoPy$LT$pyo3..instance..Py$LT$pyo3..types..any..PyAny$GT$$GT$$u20$for$u20$$LP$$RP$$GT$7into_py17hcfe417b8038087eeE', symObjAddr: 0x0, symBinAddr: 0x17350, symSize: 0x20 }
  - { offset: 0x5DF51, size: 0x8, addend: 0x0, symName: __ZN4pyo35types4none6PyNone9get_bound17h712922f1ac93acb1E, symObjAddr: 0x20, symBinAddr: 0x17370, symSize: 0x24 }
  - { offset: 0x5DFA3, size: 0x8, addend: 0x0, symName: '__ZN75_$LT$usize$u20$as$u20$core..slice..index..SliceIndex$LT$$u5b$T$u5d$$GT$$GT$5index17h4f76d5954ed35376E', symObjAddr: 0x0, symBinAddr: 0x17394, symSize: 0x64 }
  - { offset: 0x5DFC4, size: 0x8, addend: 0x0, symName: '__ZN75_$LT$usize$u20$as$u20$core..slice..index..SliceIndex$LT$$u5b$T$u5d$$GT$$GT$5index17h4f76d5954ed35376E', symObjAddr: 0x0, symBinAddr: 0x17394, symSize: 0x64 }
  - { offset: 0x5E00A, size: 0x8, addend: 0x0, symName: '__ZN75_$LT$usize$u20$as$u20$core..slice..index..SliceIndex$LT$$u5b$T$u5d$$GT$$GT$5index17h74ba96c3836e35ceE', symObjAddr: 0x64, symBinAddr: 0x173F8, symSize: 0x5C }
  - { offset: 0x5E050, size: 0x8, addend: 0x0, symName: '__ZN75_$LT$usize$u20$as$u20$core..slice..index..SliceIndex$LT$$u5b$T$u5d$$GT$$GT$5index17hd76dee058db997d2E', symObjAddr: 0xC0, symBinAddr: 0x17454, symSize: 0x64 }
  - { offset: 0x5E096, size: 0x8, addend: 0x0, symName: '__ZN75_$LT$usize$u20$as$u20$core..slice..index..SliceIndex$LT$$u5b$T$u5d$$GT$$GT$9index_mut17h1be813333199d08fE', symObjAddr: 0x124, symBinAddr: 0x174B8, symSize: 0x5C }
  - { offset: 0x5E0DC, size: 0x8, addend: 0x0, symName: '__ZN75_$LT$usize$u20$as$u20$core..slice..index..SliceIndex$LT$$u5b$T$u5d$$GT$$GT$9index_mut17h391782319f1f9456E', symObjAddr: 0x180, symBinAddr: 0x17514, symSize: 0x64 }
  - { offset: 0x5E43A, size: 0x8, addend: 0x0, symName: '__ZN100_$LT$pyo3..pycell..impl_..MutableClass$u20$as$u20$pyo3..pycell..impl_..GetBorrowChecker$LT$T$GT$$GT$14borrow_checker17h500d5632c1d06f63E', symObjAddr: 0x0, symBinAddr: 0x17578, symSize: 0x14 }
  - { offset: 0x5F7BB, size: 0x8, addend: 0x0, symName: '__ZN100_$LT$pyo3..pycell..impl_..MutableClass$u20$as$u20$pyo3..pycell..impl_..GetBorrowChecker$LT$T$GT$$GT$14borrow_checker17h500d5632c1d06f63E', symObjAddr: 0x0, symBinAddr: 0x17578, symSize: 0x14 }
  - { offset: 0x5F7F0, size: 0x8, addend: 0x0, symName: '__ZN100_$LT$pyo3..pycell..impl_..MutableClass$u20$as$u20$pyo3..pycell..impl_..GetBorrowChecker$LT$T$GT$$GT$14borrow_checker17h610ade59dc5538d2E', symObjAddr: 0x14, symBinAddr: 0x1758C, symSize: 0x14 }
  - { offset: 0x5F82B, size: 0x8, addend: 0x0, symName: '__ZN113_$LT$pyo3..pycell..impl_..PyClassObject$LT$T$GT$$u20$as$u20$pyo3..pycell..impl_..PyClassObjectLayout$LT$T$GT$$GT$10tp_dealloc17h4cd804f7dea6c395E', symObjAddr: 0x28, symBinAddr: 0x175A0, symSize: 0xB4 }
  - { offset: 0x5F88F, size: 0x8, addend: 0x0, symName: '__ZN113_$LT$pyo3..pycell..impl_..PyClassObject$LT$T$GT$$u20$as$u20$pyo3..pycell..impl_..PyClassObjectLayout$LT$T$GT$$GT$10tp_dealloc17h8cfdd0914f2b1f49E', symObjAddr: 0xDC, symBinAddr: 0x17654, symSize: 0xB4 }
  - { offset: 0x5F8F3, size: 0x8, addend: 0x0, symName: '__ZN113_$LT$pyo3..pycell..impl_..PyClassObject$LT$T$GT$$u20$as$u20$pyo3..pycell..impl_..PyClassObjectLayout$LT$T$GT$$GT$17ensure_threadsafe17h5d4e77474b0aed7aE', symObjAddr: 0x190, symBinAddr: 0x17708, symSize: 0x30 }
  - { offset: 0x5F926, size: 0x8, addend: 0x0, symName: '__ZN113_$LT$pyo3..pycell..impl_..PyClassObject$LT$T$GT$$u20$as$u20$pyo3..pycell..impl_..PyClassObjectLayout$LT$T$GT$$GT$17ensure_threadsafe17hd78683bb5870d827E', symObjAddr: 0x1C0, symBinAddr: 0x17738, symSize: 0x30 }
  - { offset: 0x5F95F, size: 0x8, addend: 0x0, symName: '__ZN117_$LT$pyo3..pycell..impl_..PyClassObjectBase$LT$U$GT$$u20$as$u20$pyo3..pycell..impl_..PyClassObjectLayout$LT$T$GT$$GT$10tp_dealloc17hd70dc040467f16aaE', symObjAddr: 0x1F0, symBinAddr: 0x17768, symSize: 0x108 }
  - { offset: 0x5F9E4, size: 0x8, addend: 0x0, symName: '__ZN117_$LT$pyo3..pycell..impl_..PyClassObjectBase$LT$U$GT$$u20$as$u20$pyo3..pycell..impl_..PyClassObjectLayout$LT$T$GT$$GT$17ensure_threadsafe17h08059ec6272e84e8E', symObjAddr: 0x2F8, symBinAddr: 0x17870, symSize: 0x10 }
  - { offset: 0x605F4, size: 0x8, addend: 0x0, symName: '__ZN4pyo36pycell5impl_22PyClassObject$LT$T$GT$14borrow_checker17h4130ba9b644947a7E', symObjAddr: 0x308, symBinAddr: 0x17880, symSize: 0x24 }
  - { offset: 0x6062D, size: 0x8, addend: 0x0, symName: '__ZN4pyo36pycell5impl_22PyClassObject$LT$T$GT$14borrow_checker17h798993b16535675cE', symObjAddr: 0x32C, symBinAddr: 0x178A4, symSize: 0x24 }
  - { offset: 0x60666, size: 0x8, addend: 0x0, symName: '__ZN4pyo36pycell5impl_22PyClassObject$LT$T$GT$7get_ptr17h223a19ecd74a34a4E', symObjAddr: 0x350, symBinAddr: 0x178C8, symSize: 0x24 }
  - { offset: 0x6069F, size: 0x8, addend: 0x0, symName: '__ZN4pyo36pycell5impl_22PyClassObject$LT$T$GT$7get_ptr17hb3cacc1989571bc6E', symObjAddr: 0x374, symBinAddr: 0x178EC, symSize: 0x24 }
  - { offset: 0x60748, size: 0x8, addend: 0x0, symName: __ZN4core4sync6atomic11AtomicUsize3new17h5561b1b4b09d5513E, symObjAddr: 0x0, symBinAddr: 0x17910, symSize: 0x18 }
  - { offset: 0x60887, size: 0x8, addend: 0x0, symName: __ZN4core4sync6atomic11AtomicUsize3new17h5561b1b4b09d5513E, symObjAddr: 0x0, symBinAddr: 0x17910, symSize: 0x18 }
  - { offset: 0x608B7, size: 0x8, addend: 0x0, symName: __ZN4core4sync6atomic11AtomicUsize4load17h74215d682693e17fE, symObjAddr: 0x18, symBinAddr: 0x17928, symSize: 0x24 }
  - { offset: 0x6091F, size: 0x8, addend: 0x0, symName: __ZN4core4sync6atomic11AtomicUsize4swap17h187dc6706282ee8fE, symObjAddr: 0x3C, symBinAddr: 0x1794C, symSize: 0xD8 }
  - { offset: 0x609CB, size: 0x8, addend: 0x0, symName: '__ZN109_$LT$pyo3..types..dict..borrowed_iter..BorrowedDictIter$u20$as$u20$core..iter..traits..iterator..Iterator$GT$4next17hd3492dabe0e1494eE', symObjAddr: 0x0, symBinAddr: 0x17A24, symSize: 0xD4 }
  - { offset: 0x61C29, size: 0x8, addend: 0x0, symName: '__ZN109_$LT$pyo3..types..dict..borrowed_iter..BorrowedDictIter$u20$as$u20$core..iter..traits..iterator..Iterator$GT$4next17hd3492dabe0e1494eE', symObjAddr: 0x0, symBinAddr: 0x17A24, symSize: 0xD4 }
  - { offset: 0x6232A, size: 0x8, addend: 0x0, symName: __ZN4core9core_arch10arm_shared4neon9generated18vreinterpret_s8_u817h80ed6829e3ab524aE, symObjAddr: 0x0, symBinAddr: 0x17AF8, symSize: 0xC }
  - { offset: 0x62350, size: 0x8, addend: 0x0, symName: __ZN4core9core_arch10arm_shared4neon9generated18vreinterpret_s8_u817h80ed6829e3ab524aE, symObjAddr: 0x0, symBinAddr: 0x17AF8, symSize: 0xC }
  - { offset: 0x6237E, size: 0x8, addend: 0x0, symName: __ZN4core9core_arch10arm_shared4neon9generated19vreinterpret_u64_u817he1781ee5e4749fe3E, symObjAddr: 0xC, symBinAddr: 0x17B04, symSize: 0xC }
  - { offset: 0x623AC, size: 0x8, addend: 0x0, symName: __ZN4core9core_arch10arm_shared4neon9generated7vceq_u817hce74e08072f36d5dE, symObjAddr: 0x18, symBinAddr: 0x17B10, symSize: 0x14 }
  - { offset: 0x623E9, size: 0x8, addend: 0x0, symName: __ZN4core9core_arch10arm_shared4neon9generated7vorr_u817he7382e95a0972bd9E, symObjAddr: 0x2C, symBinAddr: 0x17B24, symSize: 0x14 }
  - { offset: 0x62426, size: 0x8, addend: 0x0, symName: __ZN4core9core_arch10arm_shared4neon9generated9vdup_n_u817h54d09561a30d187eE, symObjAddr: 0x40, symBinAddr: 0x17B38, symSize: 0x2C }
  - { offset: 0x62594, size: 0x8, addend: 0x0, symName: __ZN5rayon4iter8plumbing14LengthSplitter3new17haa9259b7a3945501E, symObjAddr: 0x0, symBinAddr: 0x17B64, symSize: 0xBC }
  - { offset: 0x6265B, size: 0x8, addend: 0x0, symName: __ZN5rayon4iter8plumbing14LengthSplitter3new17haa9259b7a3945501E, symObjAddr: 0x0, symBinAddr: 0x17B64, symSize: 0xBC }
  - { offset: 0x626DC, size: 0x8, addend: 0x0, symName: __ZN5rayon4iter8plumbing14LengthSplitter9try_split17hdc04075f86baaa8eE, symObjAddr: 0xBC, symBinAddr: 0x17C20, symSize: 0x6C }
  - { offset: 0x6271D, size: 0x8, addend: 0x0, symName: __ZN5rayon4iter8plumbing8Splitter3new17h1061dbd221f8b4cbE, symObjAddr: 0x128, symBinAddr: 0x17C8C, symSize: 0x14 }
  - { offset: 0x6273D, size: 0x8, addend: 0x0, symName: __ZN5rayon4iter8plumbing8Splitter9try_split17hfa1977375f48fe6dE, symObjAddr: 0x13C, symBinAddr: 0x17CA0, symSize: 0xA8 }
  - { offset: 0x627AB, size: 0x8, addend: 0x0, symName: '__ZN110_$LT$core..iter..adapters..enumerate..Enumerate$LT$I$GT$$u20$as$u20$core..iter..traits..iterator..Iterator$GT$4next17h7d06cf11157c721aE', symObjAddr: 0x0, symBinAddr: 0x17D48, symSize: 0xEC }
  - { offset: 0x64095, size: 0x8, addend: 0x0, symName: '__ZN110_$LT$core..iter..adapters..enumerate..Enumerate$LT$I$GT$$u20$as$u20$core..iter..traits..iterator..Iterator$GT$4next17h7d06cf11157c721aE', symObjAddr: 0x0, symBinAddr: 0x17D48, symSize: 0xEC }
  - { offset: 0x6417B, size: 0x8, addend: 0x0, symName: '__ZN110_$LT$core..iter..adapters..enumerate..Enumerate$LT$I$GT$$u20$as$u20$core..iter..traits..iterator..Iterator$GT$4next17h9171ac2d03745db7E', symObjAddr: 0xEC, symBinAddr: 0x17E34, symSize: 0x11C }
  - { offset: 0x64260, size: 0x8, addend: 0x0, symName: '__ZN110_$LT$core..iter..adapters..enumerate..Enumerate$LT$I$GT$$u20$as$u20$core..iter..traits..iterator..Iterator$GT$4next17he4bf3e1a81927673E', symObjAddr: 0x208, symBinAddr: 0x17F50, symSize: 0xE0 }
  - { offset: 0x64346, size: 0x8, addend: 0x0, symName: '__ZN110_$LT$core..iter..adapters..enumerate..Enumerate$LT$I$GT$$u20$as$u20$core..iter..traits..iterator..Iterator$GT$4next17hf56a93008c5618b6E', symObjAddr: 0x2E8, symBinAddr: 0x18030, symSize: 0xE0 }
  - { offset: 0x64540, size: 0x8, addend: 0x0, symName: '__ZN63_$LT$I$u20$as$u20$core..iter..traits..collect..IntoIterator$GT$9into_iter17h2230f26526a53870E', symObjAddr: 0x3C8, symBinAddr: 0x18110, symSize: 0x30 }
  - { offset: 0x64578, size: 0x8, addend: 0x0, symName: '__ZN63_$LT$I$u20$as$u20$core..iter..traits..collect..IntoIterator$GT$9into_iter17h448acd471f2d45a2E', symObjAddr: 0x3F8, symBinAddr: 0x18140, symSize: 0x18 }
  - { offset: 0x645AF, size: 0x8, addend: 0x0, symName: '__ZN63_$LT$I$u20$as$u20$core..iter..traits..collect..IntoIterator$GT$9into_iter17h7372100c2a1f01f3E', symObjAddr: 0x410, symBinAddr: 0x18158, symSize: 0x30 }
  - { offset: 0x645E7, size: 0x8, addend: 0x0, symName: '__ZN63_$LT$I$u20$as$u20$core..iter..traits..collect..IntoIterator$GT$9into_iter17hc92bcbcdee904a44E', symObjAddr: 0x440, symBinAddr: 0x18188, symSize: 0x30 }
  - { offset: 0x65006, size: 0x8, addend: 0x0, symName: __ZN10rayon_core5latch9CoreLatch3new17h9edf7721c94635c0E, symObjAddr: 0x0, symBinAddr: 0x181B8, symSize: 0x38 }
  - { offset: 0x65BC7, size: 0x8, addend: 0x0, symName: '__ZN73_$LT$rayon_core..latch..LockLatch$u20$as$u20$rayon_core..latch..Latch$GT$3set17h0ca56e1a7562549cE', symObjAddr: 0x1CC, symBinAddr: 0x18384, symSize: 0x1BC }
  - { offset: 0x65C46, size: 0x8, addend: 0x0, symName: '__ZN73_$LT$rayon_core..latch..SpinLatch$u20$as$u20$rayon_core..latch..Latch$GT$3set17hc96ed16139cb2e21E', symObjAddr: 0x388, symBinAddr: 0x18540, symSize: 0x298 }
  - { offset: 0x65E5D, size: 0x8, addend: 0x0, symName: __ZN10rayon_core5latch9CoreLatch3new17h9edf7721c94635c0E, symObjAddr: 0x0, symBinAddr: 0x181B8, symSize: 0x38 }
  - { offset: 0x65E7D, size: 0x8, addend: 0x0, symName: __ZN10rayon_core5latch9CoreLatch3set17h9d8c640bbb01a2daE, symObjAddr: 0x38, symBinAddr: 0x181F0, symSize: 0x84 }
  - { offset: 0x65EC9, size: 0x8, addend: 0x0, symName: __ZN10rayon_core5latch9CoreLatch5probe17hc43919bb309da713E, symObjAddr: 0xBC, symBinAddr: 0x18274, symSize: 0x30 }
  - { offset: 0x6635D, size: 0x8, addend: 0x0, symName: __ZN10rayon_core5latch9SpinLatch3new17h76c6b0025bf8e22bE, symObjAddr: 0xEC, symBinAddr: 0x182A4, symSize: 0x6C }
  - { offset: 0x6637F, size: 0x8, addend: 0x0, symName: __ZN10rayon_core5latch9SpinLatch5cross17hca8498a98e71eb3bE, symObjAddr: 0x158, symBinAddr: 0x18310, symSize: 0x50 }
  - { offset: 0x663AE, size: 0x8, addend: 0x0, symName: __ZN10rayon_core5latch9SpinLatch5probe17h857d4244c9766fc1E, symObjAddr: 0x1A8, symBinAddr: 0x18360, symSize: 0x24 }
  - { offset: 0x664B1, size: 0x8, addend: 0x0, symName: __ZN4core3ptr9alignment9Alignment13new_unchecked18precondition_check17hed7db9b722eab305E, symObjAddr: 0x0, symBinAddr: 0x187D8, symSize: 0x70 }
  - { offset: 0x6651D, size: 0x8, addend: 0x0, symName: __ZN4core3ptr9alignment9Alignment13new_unchecked18precondition_check17hed7db9b722eab305E, symObjAddr: 0x0, symBinAddr: 0x187D8, symSize: 0x70 }
  - { offset: 0x66603, size: 0x8, addend: 0x0, symName: '__ZN103_$LT$rayon..iter..map..MapConsumer$LT$C$C$F$GT$$u20$as$u20$rayon..iter..plumbing..Consumer$LT$T$GT$$GT$11into_folder17h056282ef3c86c13bE', symObjAddr: 0x0, symBinAddr: 0x18848, symSize: 0x54 }
  - { offset: 0x66624, size: 0x8, addend: 0x0, symName: '__ZN103_$LT$rayon..iter..map..MapConsumer$LT$C$C$F$GT$$u20$as$u20$rayon..iter..plumbing..Consumer$LT$T$GT$$GT$11into_folder17h056282ef3c86c13bE', symObjAddr: 0x0, symBinAddr: 0x18848, symSize: 0x54 }
  - { offset: 0x66675, size: 0x8, addend: 0x0, symName: '__ZN103_$LT$rayon..iter..map..MapConsumer$LT$C$C$F$GT$$u20$as$u20$rayon..iter..plumbing..Consumer$LT$T$GT$$GT$11into_folder17ha2cae13927dfc026E', symObjAddr: 0x54, symBinAddr: 0x1889C, symSize: 0x48 }
  - { offset: 0x666C5, size: 0x8, addend: 0x0, symName: '__ZN103_$LT$rayon..iter..map..MapConsumer$LT$C$C$F$GT$$u20$as$u20$rayon..iter..plumbing..Consumer$LT$T$GT$$GT$4full17h00f5103bd5a104afE', symObjAddr: 0x9C, symBinAddr: 0x188E4, symSize: 0x24 }
  - { offset: 0x66715, size: 0x8, addend: 0x0, symName: '__ZN103_$LT$rayon..iter..map..MapConsumer$LT$C$C$F$GT$$u20$as$u20$rayon..iter..plumbing..Consumer$LT$T$GT$$GT$4full17hdc1c228dbbfa43e4E', symObjAddr: 0xC0, symBinAddr: 0x18908, symSize: 0x24 }
  - { offset: 0x66765, size: 0x8, addend: 0x0, symName: '__ZN103_$LT$rayon..iter..map..MapConsumer$LT$C$C$F$GT$$u20$as$u20$rayon..iter..plumbing..Consumer$LT$T$GT$$GT$8split_at17h3209dd161f3e66d3E', symObjAddr: 0xE4, symBinAddr: 0x1892C, symSize: 0xC8 }
  - { offset: 0x667F6, size: 0x8, addend: 0x0, symName: '__ZN103_$LT$rayon..iter..map..MapConsumer$LT$C$C$F$GT$$u20$as$u20$rayon..iter..plumbing..Consumer$LT$T$GT$$GT$8split_at17he944b30fb0f0a037E', symObjAddr: 0x1AC, symBinAddr: 0x189F4, symSize: 0x128 }
  - { offset: 0x669AB, size: 0x8, addend: 0x0, symName: '__ZN84_$LT$rayon..iter..map..Map$LT$I$C$F$GT$$u20$as$u20$rayon..iter..ParallelIterator$GT$15drive_unindexed17h0f663605fccaacbdE', symObjAddr: 0x3CC, symBinAddr: 0x18C14, symSize: 0xA8 }
  - { offset: 0x66A27, size: 0x8, addend: 0x0, symName: '__ZN84_$LT$rayon..iter..map..Map$LT$I$C$F$GT$$u20$as$u20$rayon..iter..ParallelIterator$GT$15drive_unindexed17h30b8706829e3e7a3E', symObjAddr: 0x474, symBinAddr: 0x18CBC, symSize: 0x88 }
  - { offset: 0x66AA3, size: 0x8, addend: 0x0, symName: '__ZN84_$LT$rayon..iter..map..Map$LT$I$C$F$GT$$u20$as$u20$rayon..iter..ParallelIterator$GT$7opt_len17h0c9606ce0fe26306E', symObjAddr: 0x4FC, symBinAddr: 0x18D44, symSize: 0x24 }
  - { offset: 0x66AF0, size: 0x8, addend: 0x0, symName: '__ZN99_$LT$rayon..iter..map..MapFolder$LT$C$C$F$GT$$u20$as$u20$rayon..iter..plumbing..Folder$LT$T$GT$$GT$12consume_iter17h3540fcf072d21d9aE', symObjAddr: 0x520, symBinAddr: 0x18D68, symSize: 0xF4 }
  - { offset: 0x66B58, size: 0x8, addend: 0x0, symName: '__ZN99_$LT$rayon..iter..map..MapFolder$LT$C$C$F$GT$$u20$as$u20$rayon..iter..plumbing..Folder$LT$T$GT$$GT$12consume_iter17he2cf5b8dc06b117dE', symObjAddr: 0x614, symBinAddr: 0x18E5C, symSize: 0xF4 }
  - { offset: 0x66BC0, size: 0x8, addend: 0x0, symName: '__ZN99_$LT$rayon..iter..map..MapFolder$LT$C$C$F$GT$$u20$as$u20$rayon..iter..plumbing..Folder$LT$T$GT$$GT$8complete17h0759a6114b369018E', symObjAddr: 0x708, symBinAddr: 0x18F50, symSize: 0x34 }
  - { offset: 0x66C11, size: 0x8, addend: 0x0, symName: '__ZN99_$LT$rayon..iter..map..MapFolder$LT$C$C$F$GT$$u20$as$u20$rayon..iter..plumbing..Folder$LT$T$GT$$GT$8complete17h2d97fe8051bfd486E', symObjAddr: 0x73C, symBinAddr: 0x18F84, symSize: 0x34 }
  - { offset: 0x66CCF, size: 0x8, addend: 0x0, symName: '__ZN55_$LT$T$u20$as$u20$rayon..iter..IntoParallelIterator$GT$13into_par_iter17h55903754abd67027E', symObjAddr: 0x2D4, symBinAddr: 0x18B1C, symSize: 0x30 }
  - { offset: 0x66D0D, size: 0x8, addend: 0x0, symName: __ZN5rayon4iter16ParallelIterator7collect17h1306fbc16a0f1288E, symObjAddr: 0x304, symBinAddr: 0x18B4C, symSize: 0x40 }
  - { offset: 0x675BA, size: 0x8, addend: 0x0, symName: '__ZN5rayon4iter3map16Map$LT$I$C$F$GT$3new17hc2613a5e7dc526ddE', symObjAddr: 0x344, symBinAddr: 0x18B8C, symSize: 0x48 }
  - { offset: 0x6760A, size: 0x8, addend: 0x0, symName: '__ZN5rayon4iter3map24MapConsumer$LT$C$C$F$GT$3new17h1cca27c2bdee38d9E', symObjAddr: 0x38C, symBinAddr: 0x18BD4, symSize: 0x14 }
  - { offset: 0x67684, size: 0x8, addend: 0x0, symName: '__ZN5rayon4iter3map24MapConsumer$LT$C$C$F$GT$3new17h2efa80ee826c7a78E', symObjAddr: 0x3A0, symBinAddr: 0x18BE8, symSize: 0x2C }
  - { offset: 0x677B2, size: 0x8, addend: 0x0, symName: '__ZN113_$LT$rand..distributions..float..Open01$u20$as$u20$rand..distributions..distribution..Distribution$LT$f64$GT$$GT$6sample17h84e8484831b9030eE', symObjAddr: 0x0, symBinAddr: 0x18FB8, symSize: 0xE4 }
  - { offset: 0x6780E, size: 0x8, addend: 0x0, symName: '__ZN113_$LT$rand..distributions..float..Open01$u20$as$u20$rand..distributions..distribution..Distribution$LT$f64$GT$$GT$6sample17h84e8484831b9030eE', symObjAddr: 0x0, symBinAddr: 0x18FB8, symSize: 0xE4 }
  - { offset: 0x67C55, size: 0x8, addend: 0x0, symName: '__ZN113_$LT$rand_distr..normal..StandardNormal$u20$as$u20$rand..distributions..distribution..Distribution$LT$f64$GT$$GT$6sample3pdf17ha5ea55f9ec05ab72E', symObjAddr: 0x0, symBinAddr: 0x1909C, symSize: 0x2C }
  - { offset: 0x67C8E, size: 0x8, addend: 0x0, symName: '__ZN113_$LT$rand_distr..normal..StandardNormal$u20$as$u20$rand..distributions..distribution..Distribution$LT$f64$GT$$GT$6sample3pdf17ha5ea55f9ec05ab72E', symObjAddr: 0x0, symBinAddr: 0x1909C, symSize: 0x2C }
  - { offset: 0x67CC1, size: 0x8, addend: 0x0, symName: '__ZN62_$LT$rand_distr..normal..Error$u20$as$u20$core..fmt..Debug$GT$3fmt17h01d9c4f21e7947a7E', symObjAddr: 0x2C, symBinAddr: 0x190C8, symSize: 0x74 }
  - { offset: 0x67E97, size: 0x8, addend: 0x0, symName: __ZN10rayon_core8registry12WorkerThread14take_local_job17h4683e71284c04702E, symObjAddr: 0x0, symBinAddr: 0x1913C, symSize: 0xBC }
  - { offset: 0x68201, size: 0x8, addend: 0x0, symName: '__ZN73_$LT$rayon_core..registry..RegistryId$u20$as$u20$core..cmp..PartialEq$GT$2eq17h94735a64a5e22951E', symObjAddr: 0x1B4, symBinAddr: 0x192F0, symSize: 0x2C }
  - { offset: 0x68F72, size: 0x8, addend: 0x0, symName: __ZN10rayon_core8registry12WorkerThread14take_local_job17h4683e71284c04702E, symObjAddr: 0x0, symBinAddr: 0x1913C, symSize: 0xBC }
  - { offset: 0x68FD1, size: 0x8, addend: 0x0, symName: __ZN10rayon_core8registry12WorkerThread4push17h2381fe5e8475dd3bE, symObjAddr: 0xBC, symBinAddr: 0x191F8, symSize: 0x74 }
  - { offset: 0x69021, size: 0x8, addend: 0x0, symName: __ZN10rayon_core8registry12WorkerThread5index17h3f87f4bfd3832431E, symObjAddr: 0x130, symBinAddr: 0x1926C, symSize: 0x18 }
  - { offset: 0x69051, size: 0x8, addend: 0x0, symName: __ZN10rayon_core8registry12WorkerThread7current17h58518e1173a2abb6E, symObjAddr: 0x148, symBinAddr: 0x19284, symSize: 0x1C }
  - { offset: 0x69064, size: 0x8, addend: 0x0, symName: __ZN10rayon_core8registry12WorkerThread7execute17h44f8c478bf366580E, symObjAddr: 0x164, symBinAddr: 0x192A0, symSize: 0x3C }
  - { offset: 0x690A3, size: 0x8, addend: 0x0, symName: __ZN10rayon_core8registry12WorkerThread8registry17h05ee2ec6dada074eE, symObjAddr: 0x1A0, symBinAddr: 0x192DC, symSize: 0x14 }
  - { offset: 0x690F1, size: 0x8, addend: 0x0, symName: __ZN4pyo33err5PyErr3new17h8ef17c3a68078ecaE, symObjAddr: 0x0, symBinAddr: 0x1931C, symSize: 0x6C }
  - { offset: 0x69133, size: 0x8, addend: 0x0, symName: '__ZN4pyo33err5PyErr3new28_$u7b$$u7b$closure$u7d$$u7d$17h4cdd9ed3d0b1f5ccE', symObjAddr: 0x6C, symBinAddr: 0x19388, symSize: 0xB0 }
  - { offset: 0x6A761, size: 0x8, addend: 0x0, symName: '__ZN50_$LT$T$u20$as$u20$core..convert..Into$LT$U$GT$$GT$4into17he76bf0d0e4ea1c38E', symObjAddr: 0x11C, symBinAddr: 0x19438, symSize: 0x14 }
  - { offset: 0x6A792, size: 0x8, addend: 0x0, symName: '__ZN50_$LT$T$u20$as$u20$core..convert..Into$LT$U$GT$$GT$4into17he76bf0d0e4ea1c38E', symObjAddr: 0x11C, symBinAddr: 0x19438, symSize: 0x14 }
  - { offset: 0x6ACF6, size: 0x8, addend: 0x0, symName: __ZN4pyo33err5PyErr3new17h8ef17c3a68078ecaE, symObjAddr: 0x0, symBinAddr: 0x1931C, symSize: 0x6C }
  - { offset: 0x6AD94, size: 0x8, addend: 0x0, symName: '__ZN47_$LT$i32$u20$as$u20$core..iter..range..Step$GT$18backward_unchecked17h8b6a96a00e4b0abfE', symObjAddr: 0x0, symBinAddr: 0x1944C, symSize: 0x9C }
  - { offset: 0x6AFE5, size: 0x8, addend: 0x0, symName: '__ZN47_$LT$i32$u20$as$u20$core..iter..range..Step$GT$18backward_unchecked17h8b6a96a00e4b0abfE', symObjAddr: 0x0, symBinAddr: 0x1944C, symSize: 0x9C }
  - { offset: 0x6B0DF, size: 0x8, addend: 0x0, symName: '__ZN49_$LT$usize$u20$as$u20$core..iter..range..Step$GT$17forward_unchecked17hc1193464c3a80ff3E', symObjAddr: 0x9C, symBinAddr: 0x194E8, symSize: 0x50 }
  - { offset: 0x6B13E, size: 0x8, addend: 0x0, symName: '__ZN49_$LT$usize$u20$as$u20$core..iter..range..Step$GT$18backward_unchecked17h83b90e1fe90d00afE', symObjAddr: 0xEC, symBinAddr: 0x19538, symSize: 0x50 }
  - { offset: 0x6B27D, size: 0x8, addend: 0x0, symName: '__ZN105_$LT$alloc..collections..linked_list..Iter$LT$T$GT$$u20$as$u20$core..iter..traits..iterator..Iterator$GT$4next17h64cd7ceb410df8c6E', symObjAddr: 0x0, symBinAddr: 0x19588, symSize: 0x98 }
  - { offset: 0x6BA44, size: 0x8, addend: 0x0, symName: __ZN4core4iter6traits8iterator8Iterator3map17h19038198be16daedE, symObjAddr: 0xD4, symBinAddr: 0x1965C, symSize: 0x20 }
  - { offset: 0x6BAB1, size: 0x8, addend: 0x0, symName: __ZN4core4iter6traits8iterator8Iterator4fold17hb75c9daf9e9a2b1cE, symObjAddr: 0xF4, symBinAddr: 0x1967C, symSize: 0xCC }
  - { offset: 0x6BE20, size: 0x8, addend: 0x0, symName: '__ZN105_$LT$alloc..collections..linked_list..Iter$LT$T$GT$$u20$as$u20$core..iter..traits..iterator..Iterator$GT$4next17h64cd7ceb410df8c6E', symObjAddr: 0x0, symBinAddr: 0x19588, symSize: 0x98 }
  - { offset: 0x6BECB, size: 0x8, addend: 0x0, symName: '__ZN113_$LT$alloc..collections..linked_list..IntoIter$LT$T$C$A$GT$$u20$as$u20$core..iter..traits..iterator..Iterator$GT$4next17h19449ef2a89a60e2E', symObjAddr: 0x98, symBinAddr: 0x19620, symSize: 0x24 }
  - { offset: 0x6BF11, size: 0x8, addend: 0x0, symName: '__ZN118_$LT$alloc..collections..linked_list..LinkedList$LT$T$C$A$GT$$u20$as$u20$core..iter..traits..collect..IntoIterator$GT$9into_iter17hb09a87a9f18a52e7E', symObjAddr: 0xBC, symBinAddr: 0x19644, symSize: 0x18 }
  - { offset: 0x6C7C9, size: 0x8, addend: 0x0, symName: '__ZN5alloc11collections11linked_list13Node$LT$T$GT$12into_element17h6364a7e96f22490bE', symObjAddr: 0x1C0, symBinAddr: 0x19748, symSize: 0xE0 }
  - { offset: 0x6C90E, size: 0x8, addend: 0x0, symName: '__ZN5alloc11collections11linked_list19LinkedList$LT$T$GT$3new17h8f4d8e6a2c257fc1E', symObjAddr: 0x2A0, symBinAddr: 0x19828, symSize: 0x10 }
  - { offset: 0x6C954, size: 0x8, addend: 0x0, symName: '__ZN5alloc11collections11linked_list19LinkedList$LT$T$GT$6append17ha7af57c29acca276E', symObjAddr: 0x2B0, symBinAddr: 0x19838, symSize: 0xF0 }
  - { offset: 0x6CB5C, size: 0x8, addend: 0x0, symName: '__ZN5alloc11collections11linked_list23LinkedList$LT$T$C$A$GT$13push_back_mut17h5866f1feece82aeaE', symObjAddr: 0x3A0, symBinAddr: 0x19928, symSize: 0x104 }
  - { offset: 0x6CCC7, size: 0x8, addend: 0x0, symName: '__ZN5alloc11collections11linked_list23LinkedList$LT$T$C$A$GT$4iter17h5b4969feb8238cbdE', symObjAddr: 0x4A4, symBinAddr: 0x19A2C, symSize: 0x30 }
  - { offset: 0x6CE31, size: 0x8, addend: 0x0, symName: '__ZN5alloc11collections11linked_list23LinkedList$LT$T$C$A$GT$9pop_front17hd998ece9f8398b3cE', symObjAddr: 0x4D4, symBinAddr: 0x19A5C, symSize: 0x164 }
  - { offset: 0x6CFE3, size: 0x8, addend: 0x0, symName: '__ZN5alloc11collections11linked_list23LinkedList$LT$T$C$A$GT$9push_back17h21d69e3abc4ef779E', symObjAddr: 0x638, symBinAddr: 0x19BC0, symSize: 0x24 }
  - { offset: 0x6D060, size: 0x8, addend: 0x0, symName: '__ZN118_$LT$pyo3..impl_..pyclass..SendablePyClass$LT$T$GT$$u20$as$u20$pyo3..impl_..pyclass..PyClassThreadChecker$LT$T$GT$$GT$3new17h488b5ba3556d4ad2E', symObjAddr: 0x0, symBinAddr: 0x19BE4, symSize: 0x4 }
  - { offset: 0x6E307, size: 0x8, addend: 0x0, symName: '__ZN118_$LT$pyo3..impl_..pyclass..SendablePyClass$LT$T$GT$$u20$as$u20$pyo3..impl_..pyclass..PyClassThreadChecker$LT$T$GT$$GT$3new17h488b5ba3556d4ad2E', symObjAddr: 0x0, symBinAddr: 0x19BE4, symSize: 0x4 }
  - { offset: 0x6E32B, size: 0x8, addend: 0x0, symName: '__ZN118_$LT$pyo3..impl_..pyclass..SendablePyClass$LT$T$GT$$u20$as$u20$pyo3..impl_..pyclass..PyClassThreadChecker$LT$T$GT$$GT$3new17hfec65c66b861b47dE', symObjAddr: 0x4, symBinAddr: 0x19BE8, symSize: 0x4 }
  - { offset: 0x6E34F, size: 0x8, addend: 0x0, symName: '__ZN118_$LT$pyo3..impl_..pyclass..SendablePyClass$LT$T$GT$$u20$as$u20$pyo3..impl_..pyclass..PyClassThreadChecker$LT$T$GT$$GT$6ensure17h29c1a92589fa51b6E', symObjAddr: 0x8, symBinAddr: 0x19BEC, symSize: 0x10 }
  - { offset: 0x6E382, size: 0x8, addend: 0x0, symName: '__ZN118_$LT$pyo3..impl_..pyclass..SendablePyClass$LT$T$GT$$u20$as$u20$pyo3..impl_..pyclass..PyClassThreadChecker$LT$T$GT$$GT$6ensure17h8cfbd3a1450b402cE', symObjAddr: 0x18, symBinAddr: 0x19BFC, symSize: 0x10 }
  - { offset: 0x6E3B5, size: 0x8, addend: 0x0, symName: '__ZN118_$LT$pyo3..impl_..pyclass..SendablePyClass$LT$T$GT$$u20$as$u20$pyo3..impl_..pyclass..PyClassThreadChecker$LT$T$GT$$GT$8can_drop17h6572d834d535a7bcE', symObjAddr: 0x28, symBinAddr: 0x19C0C, symSize: 0x18 }
  - { offset: 0x6E407, size: 0x8, addend: 0x0, symName: '__ZN118_$LT$pyo3..impl_..pyclass..SendablePyClass$LT$T$GT$$u20$as$u20$pyo3..impl_..pyclass..PyClassThreadChecker$LT$T$GT$$GT$8can_drop17h7ecd656387948c98E', symObjAddr: 0x40, symBinAddr: 0x19C24, symSize: 0x18 }
  - { offset: 0x6E45A, size: 0x8, addend: 0x0, symName: __ZN4pyo35impl_7pyclass10tp_dealloc17h1577d9192cb15be2E, symObjAddr: 0x58, symBinAddr: 0x19C3C, symSize: 0x34 }
  - { offset: 0x6E48D, size: 0x8, addend: 0x0, symName: __ZN4pyo35impl_7pyclass10tp_dealloc17h625555ba2069a836E, symObjAddr: 0x8C, symBinAddr: 0x19C70, symSize: 0x34 }
  - { offset: 0x6E4C5, size: 0x8, addend: 0x0, symName: __ZN4pyo35impl_7pyclass11PyClassDict10clear_dict17h8327334e44460dfdE, symObjAddr: 0xC0, symBinAddr: 0x19CA4, symSize: 0x10 }
  - { offset: 0x6E515, size: 0x8, addend: 0x0, symName: __ZN4pyo35impl_7pyclass14PyClassWeakRef14clear_weakrefs17h7d8a6036d42e64d1E, symObjAddr: 0xD0, symBinAddr: 0x19CB4, symSize: 0x14 }
  - { offset: 0x6E56E, size: 0x8, addend: 0x0, symName: __ZN4pyo35impl_7pyclass18tp_dealloc_with_gc17h4bf77e60f68e5117E, symObjAddr: 0xE4, symBinAddr: 0x19CC8, symSize: 0x4C }
  - { offset: 0x6E5BF, size: 0x8, addend: 0x0, symName: __ZN4pyo35impl_7pyclass18tp_dealloc_with_gc17hc3a6cbfaf9d0632bE, symObjAddr: 0x130, symBinAddr: 0x19D14, symSize: 0x4C }
  - { offset: 0x6F050, size: 0x8, addend: 0x0, symName: '__ZN4pyo35impl_7pyclass29PyClassImplCollector$LT$T$GT$3new17h33ccb9399b3ae784E', symObjAddr: 0x17C, symBinAddr: 0x19D60, symSize: 0x4 }
  - { offset: 0x6F06D, size: 0x8, addend: 0x0, symName: '__ZN4pyo35impl_7pyclass29PyClassImplCollector$LT$T$GT$3new17hea950e76f4a5acd2E', symObjAddr: 0x180, symBinAddr: 0x19D64, symSize: 0x4 }
  - { offset: 0x6F10E, size: 0x8, addend: 0x0, symName: '__ZN4core5tuple64_$LT$impl$u20$core..cmp..PartialEq$u20$for$u20$$LP$U$C$T$RP$$GT$2eq17hdc373c67b8b7a918E', symObjAddr: 0x0, symBinAddr: 0x19D68, symSize: 0x60 }
  - { offset: 0x6F12A, size: 0x8, addend: 0x0, symName: '__ZN4core5tuple64_$LT$impl$u20$core..cmp..PartialEq$u20$for$u20$$LP$U$C$T$RP$$GT$2eq17hdc373c67b8b7a918E', symObjAddr: 0x0, symBinAddr: 0x19D68, symSize: 0x60 }
  - { offset: 0x6F1F1, size: 0x8, addend: 0x0, symName: '__ZN4core5slice4sort6stable5merge19MergeState$LT$T$GT$10merge_down17h1dd62a4c339412ceE', symObjAddr: 0x0, symBinAddr: 0x19DC8, symSize: 0x1C0 }
  - { offset: 0x6F747, size: 0x8, addend: 0x0, symName: __ZN4core5slice4sort6stable5merge5merge17hc967f4800d8c771cE, symObjAddr: 0x660, symBinAddr: 0x1A428, symSize: 0x234 }
  - { offset: 0x6F9C3, size: 0x8, addend: 0x0, symName: __ZN4core5slice4sort6stable5merge5merge17hd4bb15da5d8e8909E, symObjAddr: 0x894, symBinAddr: 0x1A65C, symSize: 0x234 }
  - { offset: 0x6FF0E, size: 0x8, addend: 0x0, symName: '__ZN4core5slice4sort6stable5merge19MergeState$LT$T$GT$10merge_down17h1dd62a4c339412ceE', symObjAddr: 0x0, symBinAddr: 0x19DC8, symSize: 0x1C0 }
  - { offset: 0x70103, size: 0x8, addend: 0x0, symName: '__ZN4core5slice4sort6stable5merge19MergeState$LT$T$GT$10merge_down17ha81403f2b4ddfd21E', symObjAddr: 0x1C0, symBinAddr: 0x19F88, symSize: 0x1C0 }
  - { offset: 0x70299, size: 0x8, addend: 0x0, symName: '__ZN4core5slice4sort6stable5merge19MergeState$LT$T$GT$8merge_up17ha0fccf5cca8602e7E', symObjAddr: 0x380, symBinAddr: 0x1A148, symSize: 0x170 }
  - { offset: 0x703DB, size: 0x8, addend: 0x0, symName: '__ZN4core5slice4sort6stable5merge19MergeState$LT$T$GT$8merge_up17hb88953fcc07e3e04E', symObjAddr: 0x4F0, symBinAddr: 0x1A2B8, symSize: 0x170 }
  - { offset: 0x70619, size: 0x8, addend: 0x0, symName: '__ZN5alloc5boxed16Box$LT$T$C$A$GT$13new_uninit_in17h863b141fb32249ecE', symObjAddr: 0x0, symBinAddr: 0x1A890, symSize: 0x78 }
  - { offset: 0x71000, size: 0x8, addend: 0x0, symName: '__ZN5alloc5boxed16Box$LT$T$C$A$GT$13new_uninit_in17h863b141fb32249ecE', symObjAddr: 0x0, symBinAddr: 0x1A890, symSize: 0x78 }
  - { offset: 0x7105E, size: 0x8, addend: 0x0, symName: '__ZN5alloc5boxed16Box$LT$T$C$A$GT$17try_new_uninit_in17hfe1e37b9cb5a0b64E', symObjAddr: 0x78, symBinAddr: 0x1A908, symSize: 0x114 }
  - { offset: 0x711FB, size: 0x8, addend: 0x0, symName: '__ZN5alloc5boxed16Box$LT$T$C$A$GT$6new_in17hf7344f82b77fc015E', symObjAddr: 0x18C, symBinAddr: 0x1AA1C, symSize: 0x128 }
  - { offset: 0x71A3D, size: 0x8, addend: 0x0, symName: '__ZN4core5array4iter10iter_inner78PolymorphicIter$LT$$u5b$core..mem..maybe_uninit..MaybeUninit$LT$T$GT$$u5d$$GT$4next17hf29f152ac65197b7E', symObjAddr: 0x0, symBinAddr: 0x1AB44, symSize: 0x17C }
  - { offset: 0x720E7, size: 0x8, addend: 0x0, symName: '__ZN4core5array4iter10iter_inner78PolymorphicIter$LT$$u5b$core..mem..maybe_uninit..MaybeUninit$LT$T$GT$$u5d$$GT$4next17hf29f152ac65197b7E', symObjAddr: 0x0, symBinAddr: 0x1AB44, symSize: 0x17C }
  - { offset: 0x7233A, size: 0x8, addend: 0x0, symName: '__ZN73_$LT$pyo3..types..any..PyAny$u20$as$u20$pyo3..type_object..PyTypeInfo$GT$15type_object_raw28_$u7b$$u7b$closure$u7d$$u7d$17h31f70cab6fac5261E', symObjAddr: 0x0, symBinAddr: 0x1ACC0, symSize: 0x18 }
  - { offset: 0x734A1, size: 0x8, addend: 0x0, symName: '__ZN73_$LT$pyo3..types..any..PyAny$u20$as$u20$pyo3..type_object..PyTypeInfo$GT$15type_object_raw28_$u7b$$u7b$closure$u7d$$u7d$17h31f70cab6fac5261E', symObjAddr: 0x0, symBinAddr: 0x1ACC0, symSize: 0x18 }
  - { offset: 0x73A12, size: 0x8, addend: 0x0, symName: '__ZN4core4iter6traits8iterator8Iterator8for_each4call28_$u7b$$u7b$closure$u7d$$u7d$17h0dc8a2627608f6cdE', symObjAddr: 0x0, symBinAddr: 0x1ACD8, symSize: 0x3C }
  - { offset: 0x741D8, size: 0x8, addend: 0x0, symName: '__ZN4core4iter6traits8iterator8Iterator8for_each4call28_$u7b$$u7b$closure$u7d$$u7d$17h0dc8a2627608f6cdE', symObjAddr: 0x0, symBinAddr: 0x1ACD8, symSize: 0x3C }
  - { offset: 0x74231, size: 0x8, addend: 0x0, symName: '__ZN4core4iter6traits8iterator8Iterator8for_each4call28_$u7b$$u7b$closure$u7d$$u7d$17hc38ee817d874866eE', symObjAddr: 0x3C, symBinAddr: 0x1AD14, symSize: 0x40 }
  - { offset: 0x7428A, size: 0x8, addend: 0x0, symName: '__ZN4core4iter6traits8iterator8Iterator8for_each4call28_$u7b$$u7b$closure$u7d$$u7d$17hcba44b1648a3d0a7E', symObjAddr: 0x7C, symBinAddr: 0x1AD54, symSize: 0x40 }
  - { offset: 0x742E3, size: 0x8, addend: 0x0, symName: '__ZN4core4iter6traits8iterator8Iterator8for_each4call28_$u7b$$u7b$closure$u7d$$u7d$17hebe19d2a1a67c7b8E', symObjAddr: 0xBC, symBinAddr: 0x1AD94, symSize: 0x2C }
  - { offset: 0x7434C, size: 0x8, addend: 0x0, symName: '__ZN87_$LT$I$u20$as$u20$core..iter..traits..iterator..Iterator..advance_by..SpecAdvanceBy$GT$15spec_advance_by28_$u7b$$u7b$closure$u7d$$u7d$17hcfa1fb4c3a03af64E', symObjAddr: 0xE8, symBinAddr: 0x1ADC0, symSize: 0x40 }
  - { offset: 0x74399, size: 0x8, addend: 0x0, symName: '__ZN87_$LT$I$u20$as$u20$core..iter..traits..iterator..Iterator..advance_by..SpecAdvanceBy$GT$15spec_advance_by28_$u7b$$u7b$closure$u7d$$u7d$17hcfa2b0123e792a9cE', symObjAddr: 0x128, symBinAddr: 0x1AE00, symSize: 0x40 }
  - { offset: 0x743E6, size: 0x8, addend: 0x0, symName: '__ZN87_$LT$I$u20$as$u20$core..iter..traits..iterator..Iterator..advance_by..SpecAdvanceBy$GT$15spec_advance_by28_$u7b$$u7b$closure$u7d$$u7d$17hd03ed9a1a8120a42E', symObjAddr: 0x168, symBinAddr: 0x1AE40, symSize: 0x40 }
  - { offset: 0x75CDF, size: 0x8, addend: 0x0, symName: __ZN4core5slice4sort6stable5drift10create_run17h8dddaa9f189cd2aeE, symObjAddr: 0x0, symBinAddr: 0x1AE80, symSize: 0x3D8 }
  - { offset: 0x7669E, size: 0x8, addend: 0x0, symName: __ZN4core5slice4sort6stable5drift10create_run17h8dddaa9f189cd2aeE, symObjAddr: 0x0, symBinAddr: 0x1AE80, symSize: 0x3D8 }
  - { offset: 0x76BAD, size: 0x8, addend: 0x0, symName: __ZN4core5slice4sort6stable5drift10create_run17ha7f932c2efea77dfE, symObjAddr: 0x3D8, symBinAddr: 0x1B258, symSize: 0x3D8 }
  - { offset: 0x770BC, size: 0x8, addend: 0x0, symName: __ZN4core5slice4sort6stable5drift16stable_quicksort17he9bee3031f89940eE, symObjAddr: 0x7B0, symBinAddr: 0x1B630, symSize: 0xB4 }
  - { offset: 0x771F6, size: 0x8, addend: 0x0, symName: __ZN4core5slice4sort6stable5drift16stable_quicksort17heb9cf66f3190fce1E, symObjAddr: 0x864, symBinAddr: 0x1B6E4, symSize: 0xB4 }
  - { offset: 0x7741B, size: 0x8, addend: 0x0, symName: __ZN4core5slice4sort6stable5drift4sort17h65418dfe3a0b65bcE, symObjAddr: 0x918, symBinAddr: 0x1B798, symSize: 0x61C }
  - { offset: 0x77D2B, size: 0x8, addend: 0x0, symName: __ZN4core5slice4sort6stable5drift4sort17h8817c7fff9c1051fE, symObjAddr: 0xF34, symBinAddr: 0x1BDB4, symSize: 0x61C }
  - { offset: 0x79359, size: 0x8, addend: 0x0, symName: __ZN4pyo35impl_5panic9PanicTrap3new17h3dcdfc4e2f2ca725E, symObjAddr: 0x0, symBinAddr: 0x1C3D0, symSize: 0x18 }
  - { offset: 0x793E8, size: 0x8, addend: 0x0, symName: __ZN4pyo35impl_5panic9PanicTrap3new17h3dcdfc4e2f2ca725E, symObjAddr: 0x0, symBinAddr: 0x1C3D0, symSize: 0x18 }
  - { offset: 0x7940A, size: 0x8, addend: 0x0, symName: __ZN4pyo35impl_5panic9PanicTrap6disarm17h9ce7943c5a5c1172E, symObjAddr: 0x18, symBinAddr: 0x1C3E8, symSize: 0x28 }
  - { offset: 0x7944A, size: 0x8, addend: 0x0, symName: '__ZN113_$LT$std..collections..hash..map..IntoIter$LT$K$C$V$C$A$GT$$u20$as$u20$core..iter..traits..iterator..Iterator$GT$4fold17h079065d647aee0b9E', symObjAddr: 0x0, symBinAddr: 0x1C410, symSize: 0x4C }
  - { offset: 0x79B42, size: 0x8, addend: 0x0, symName: __ZN4core4iter6traits8iterator8Iterator3map17h06474889c66b82ecE, symObjAddr: 0xAC8, symBinAddr: 0x1CED8, symSize: 0x30 }
  - { offset: 0x79BB0, size: 0x8, addend: 0x0, symName: __ZN4core4iter6traits8iterator8Iterator3map17hc8b3483ecdd62d8bE, symObjAddr: 0xAF8, symBinAddr: 0x1CF08, symSize: 0x50 }
  - { offset: 0x7C5E3, size: 0x8, addend: 0x0, symName: '__ZN113_$LT$std..collections..hash..map..IntoIter$LT$K$C$V$C$A$GT$$u20$as$u20$core..iter..traits..iterator..Iterator$GT$4fold17h079065d647aee0b9E', symObjAddr: 0x0, symBinAddr: 0x1C410, symSize: 0x4C }
  - { offset: 0x7C687, size: 0x8, addend: 0x0, symName: '__ZN113_$LT$std..collections..hash..map..IntoIter$LT$K$C$V$C$A$GT$$u20$as$u20$core..iter..traits..iterator..Iterator$GT$4next17h0ab256ef2be0b084E', symObjAddr: 0x4C, symBinAddr: 0x1C45C, symSize: 0x20 }
  - { offset: 0x7C6ED, size: 0x8, addend: 0x0, symName: '__ZN113_$LT$std..collections..hash..map..IntoIter$LT$K$C$V$C$A$GT$$u20$as$u20$core..iter..traits..iterator..Iterator$GT$4next17h25f483fe388cf470E', symObjAddr: 0x6C, symBinAddr: 0x1C47C, symSize: 0x20 }
  - { offset: 0x7C753, size: 0x8, addend: 0x0, symName: '__ZN113_$LT$std..collections..hash..map..IntoIter$LT$K$C$V$C$A$GT$$u20$as$u20$core..iter..traits..iterator..Iterator$GT$4next17h51d95604b952560dE', symObjAddr: 0x8C, symBinAddr: 0x1C49C, symSize: 0x20 }
  - { offset: 0x7C7B9, size: 0x8, addend: 0x0, symName: '__ZN113_$LT$std..collections..hash..map..IntoIter$LT$K$C$V$C$A$GT$$u20$as$u20$core..iter..traits..iterator..Iterator$GT$9size_hint17h90247ed230acac5eE', symObjAddr: 0xAC, symBinAddr: 0x1C4BC, symSize: 0x2C }
  - { offset: 0x7C849, size: 0x8, addend: 0x0, symName: '__ZN119_$LT$std..collections..hash..map..HashMap$LT$K$C$V$C$S$C$A$GT$$u20$as$u20$core..iter..traits..collect..IntoIterator$GT$9into_iter17h7eefda6426e331faE', symObjAddr: 0xD8, symBinAddr: 0x1C4E8, symSize: 0x58 }
  - { offset: 0x7C89C, size: 0x8, addend: 0x0, symName: '__ZN119_$LT$std..collections..hash..map..HashMap$LT$K$C$V$C$S$C$A$GT$$u20$as$u20$core..iter..traits..collect..IntoIterator$GT$9into_iter17h98fabb6a449c3940E', symObjAddr: 0x130, symBinAddr: 0x1C540, symSize: 0x58 }
  - { offset: 0x7C8EF, size: 0x8, addend: 0x0, symName: '__ZN119_$LT$std..collections..hash..map..HashMap$LT$K$C$V$C$S$C$A$GT$$u20$as$u20$core..iter..traits..collect..IntoIterator$GT$9into_iter17h9eac00120715aa1aE', symObjAddr: 0x188, symBinAddr: 0x1C598, symSize: 0x58 }
  - { offset: 0x7C942, size: 0x8, addend: 0x0, symName: '__ZN119_$LT$std..collections..hash..map..HashMap$LT$K$C$V$C$S$C$A$GT$$u20$as$u20$core..iter..traits..collect..IntoIterator$GT$9into_iter17hab0cfec95ce59623E', symObjAddr: 0x1E0, symBinAddr: 0x1C5F0, symSize: 0x58 }
  - { offset: 0x7CAD6, size: 0x8, addend: 0x0, symName: '__ZN136_$LT$std..collections..hash..map..HashMap$LT$K$C$V$C$S$GT$$u20$as$u20$core..iter..traits..collect..FromIterator$LT$$LP$K$C$V$RP$$GT$$GT$9from_iter17h2b94bfe959b06c52E', symObjAddr: 0x238, symBinAddr: 0x1C648, symSize: 0x134 }
  - { offset: 0x7D783, size: 0x8, addend: 0x0, symName: '__ZN3std11collections4hash3map20HashMap$LT$K$C$V$GT$3new17h2cc9a0974ce1c5fcE', symObjAddr: 0x36C, symBinAddr: 0x1C77C, symSize: 0x7C }
  - { offset: 0x7D898, size: 0x8, addend: 0x0, symName: '__ZN3std11collections4hash3map20HashMap$LT$K$C$V$GT$3new17h46b0ee6491a87927E', symObjAddr: 0x3E8, symBinAddr: 0x1C7F8, symSize: 0x7C }
  - { offset: 0x7D9AD, size: 0x8, addend: 0x0, symName: '__ZN3std11collections4hash3map20HashMap$LT$K$C$V$GT$3new17h73337bcba012bb77E', symObjAddr: 0x464, symBinAddr: 0x1C874, symSize: 0x7C }
  - { offset: 0x7DAE0, size: 0x8, addend: 0x0, symName: '__ZN3std11collections4hash3map20HashMap$LT$K$C$V$GT$3new17haed2dcf69664f564E', symObjAddr: 0x4E0, symBinAddr: 0x1C8F0, symSize: 0x7C }
  - { offset: 0x7DD07, size: 0x8, addend: 0x0, symName: '__ZN3std11collections4hash3map22Entry$LT$K$C$V$C$A$GT$9or_insert17h081017589def5e00E', symObjAddr: 0x55C, symBinAddr: 0x1C96C, symSize: 0x178 }
  - { offset: 0x7E0A6, size: 0x8, addend: 0x0, symName: '__ZN3std11collections4hash3map22Entry$LT$K$C$V$C$A$GT$9or_insert17ha15b1e13cf4055eeE', symObjAddr: 0x6D4, symBinAddr: 0x1CAE4, symSize: 0x15C }
  - { offset: 0x7E2D0, size: 0x8, addend: 0x0, symName: '__ZN3std11collections4hash3map24HashMap$LT$K$C$V$C$S$GT$24with_capacity_and_hasher17h7e48a3776d4bf294E', symObjAddr: 0x830, symBinAddr: 0x1CC40, symSize: 0x48 }
  - { offset: 0x7E344, size: 0x8, addend: 0x0, symName: '__ZN3std11collections4hash3map28HashMap$LT$K$C$V$C$S$C$A$GT$3get17h7ce60d705b16d129E', symObjAddr: 0x878, symBinAddr: 0x1CC88, symSize: 0x2C }
  - { offset: 0x7E3B0, size: 0x8, addend: 0x0, symName: '__ZN3std11collections4hash3map28HashMap$LT$K$C$V$C$S$C$A$GT$5entry17h4b243fd188666c48E', symObjAddr: 0x8A4, symBinAddr: 0x1CCB4, symSize: 0xB0 }
  - { offset: 0x7E467, size: 0x8, addend: 0x0, symName: '__ZN3std11collections4hash3map28HashMap$LT$K$C$V$C$S$C$A$GT$5entry17hed6b5a91ee4eab6dE', symObjAddr: 0x954, symBinAddr: 0x1CD64, symSize: 0xB0 }
  - { offset: 0x7E51E, size: 0x8, addend: 0x0, symName: '__ZN3std11collections4hash3map28HashMap$LT$K$C$V$C$S$C$A$GT$6insert17h22dac13e77f28c1eE', symObjAddr: 0xA04, symBinAddr: 0x1CE14, symSize: 0x24 }
  - { offset: 0x7E585, size: 0x8, addend: 0x0, symName: '__ZN3std11collections4hash3map28HashMap$LT$K$C$V$C$S$C$A$GT$6insert17h54acb48b4fb113f3E', symObjAddr: 0xA28, symBinAddr: 0x1CE38, symSize: 0x28 }
  - { offset: 0x7E5F8, size: 0x8, addend: 0x0, symName: '__ZN3std11collections4hash3map28HashMap$LT$K$C$V$C$S$C$A$GT$6insert17h569133d5df23bc2bE', symObjAddr: 0xA50, symBinAddr: 0x1CE60, symSize: 0x24 }
  - { offset: 0x7E66C, size: 0x8, addend: 0x0, symName: '__ZN3std11collections4hash3map28HashMap$LT$K$C$V$C$S$C$A$GT$6insert17he1415e5fc7431576E', symObjAddr: 0xA74, symBinAddr: 0x1CE84, symSize: 0x28 }
  - { offset: 0x7E6D2, size: 0x8, addend: 0x0, symName: '__ZN3std11collections4hash3map28HashMap$LT$K$C$V$C$S$C$A$GT$6remove17h0d16ae30ae66ab81E', symObjAddr: 0xA9C, symBinAddr: 0x1CEAC, symSize: 0x2C }
  - { offset: 0x7E77C, size: 0x8, addend: 0x0, symName: '__ZN4pyo311conversions3std3map165_$LT$impl$u20$pyo3..conversion..IntoPy$LT$pyo3..instance..Py$LT$pyo3..types..any..PyAny$GT$$GT$$u20$for$u20$std..collections..hash..map..HashMap$LT$K$C$V$C$H$GT$$GT$7into_py17h48715344f6864f9eE', symObjAddr: 0xFBC, symBinAddr: 0x1D3CC, symSize: 0x88 }
  - { offset: 0x7E801, size: 0x8, addend: 0x0, symName: '__ZN4pyo311conversions3std3map114_$LT$impl$u20$pyo3..conversion..FromPyObject$u20$for$u20$std..collections..hash..map..HashMap$LT$K$C$V$C$S$GT$$GT$13extract_bound17h1f154aaf79089980E', symObjAddr: 0xB48, symBinAddr: 0x1CF58, symSize: 0x474 }
  - { offset: 0x7E9BA, size: 0x8, addend: 0x0, symName: '__ZN71_$LT$T$u20$as$u20$pyo3..impl_..extract_argument..PyFunctionArgument$GT$7extract17hd95ada5a26e1b859E', symObjAddr: 0x1078, symBinAddr: 0x1D488, symSize: 0x28 }
  - { offset: 0x7EA06, size: 0x8, addend: 0x0, symName: '__ZN57_$LT$T$u20$as$u20$pyo3..conversion..FromPyObjectBound$GT$20from_py_object_bound17h7716c08db4a05f81E', symObjAddr: 0x1044, symBinAddr: 0x1D454, symSize: 0x34 }
  - { offset: 0x7F322, size: 0x8, addend: 0x0, symName: __ZN4pyo33err5PyErr10from_state17h219288a3cc71d4eeE, symObjAddr: 0x0, symBinAddr: 0x1D4B0, symSize: 0x3C }
  - { offset: 0x80ED9, size: 0x8, addend: 0x0, symName: __ZN4pyo33err5PyErr10from_state17h219288a3cc71d4eeE, symObjAddr: 0x0, symBinAddr: 0x1D4B0, symSize: 0x3C }
  - { offset: 0x80F5F, size: 0x8, addend: 0x0, symName: __ZN4pyo33err5PyErr22write_unraisable_bound17hffd89c0e9f592c07E, symObjAddr: 0x3C, symBinAddr: 0x1D4EC, symSize: 0x4C }
  - { offset: 0x80FC9, size: 0x8, addend: 0x0, symName: __ZN4pyo33err5PyErr7restore17hd64bef7564d9dac3E, symObjAddr: 0x88, symBinAddr: 0x1D538, symSize: 0x68 }
  - { offset: 0x81044, size: 0x8, addend: 0x0, symName: __ZN4core5slice20copy_from_slice_impl17h2eced757f7567d62E, symObjAddr: 0x0, symBinAddr: 0x1D5A0, symSize: 0xAC }
  - { offset: 0x81877, size: 0x8, addend: 0x0, symName: '__ZN4core5slice29_$LT$impl$u20$$u5b$T$u5d$$GT$12split_at_mut17h2cc272662ded9707E', symObjAddr: 0xAC, symBinAddr: 0x1D64C, symSize: 0xAC }
  - { offset: 0x8190E, size: 0x8, addend: 0x0, symName: '__ZN4core5slice29_$LT$impl$u20$$u5b$T$u5d$$GT$12split_at_mut17h8da8b38dc330eb7dE', symObjAddr: 0x158, symBinAddr: 0x1D6F8, symSize: 0xAC }
  - { offset: 0x81999, size: 0x8, addend: 0x0, symName: '__ZN4core5slice29_$LT$impl$u20$$u5b$T$u5d$$GT$22split_at_mut_unchecked17h55d6603847ff2589E', symObjAddr: 0x204, symBinAddr: 0x1D7A4, symSize: 0xF0 }
  - { offset: 0x81AD2, size: 0x8, addend: 0x0, symName: '__ZN4core5slice29_$LT$impl$u20$$u5b$T$u5d$$GT$22split_at_mut_unchecked17h9426246e5647cb83E', symObjAddr: 0x2F4, symBinAddr: 0x1D894, symSize: 0xF0 }
  - { offset: 0x81BE4, size: 0x8, addend: 0x0, symName: '__ZN4core5slice29_$LT$impl$u20$$u5b$T$u5d$$GT$5first17h31200ff3d294738aE', symObjAddr: 0x3E4, symBinAddr: 0x1D984, symSize: 0x44 }
  - { offset: 0x81C2E, size: 0x8, addend: 0x0, symName: '__ZN4core5slice29_$LT$impl$u20$$u5b$T$u5d$$GT$6chunks17h9daa535ea9d0444aE', symObjAddr: 0x428, symBinAddr: 0x1D9C8, symSize: 0x84 }
  - { offset: 0x81CE8, size: 0x8, addend: 0x0, symName: '__ZN4core5slice29_$LT$impl$u20$$u5b$T$u5d$$GT$7reverse17h10fde4efcf43988fE', symObjAddr: 0x4AC, symBinAddr: 0x1DA4C, symSize: 0xF8 }
  - { offset: 0x81EC2, size: 0x8, addend: 0x0, symName: '__ZN4core5slice29_$LT$impl$u20$$u5b$T$u5d$$GT$7reverse17h8c4b9a1e52d3e257E', symObjAddr: 0x5A4, symBinAddr: 0x1DB44, symSize: 0xF8 }
  - { offset: 0x82053, size: 0x8, addend: 0x0, symName: '__ZN4core5slice29_$LT$impl$u20$$u5b$T$u5d$$GT$7reverse7revswap17h500a86a56bc8960bE', symObjAddr: 0x69C, symBinAddr: 0x1DC3C, symSize: 0x190 }
  - { offset: 0x82110, size: 0x8, addend: 0x0, symName: '__ZN4core5slice29_$LT$impl$u20$$u5b$T$u5d$$GT$7reverse7revswap17hd657a72fd33f4e2aE', symObjAddr: 0x82C, symBinAddr: 0x1DDCC, symSize: 0x190 }
  - { offset: 0x821CF, size: 0x8, addend: 0x0, symName: __ZN4core5slice20copy_from_slice_impl17h2eced757f7567d62E, symObjAddr: 0x0, symBinAddr: 0x1D5A0, symSize: 0xAC }
  - { offset: 0x839B7, size: 0x8, addend: 0x0, symName: '__ZN4core3ptr9const_ptr66_$LT$impl$u20$core..cmp..PartialEq$u20$for$u20$$BP$const$u20$T$GT$2eq17h6c5c4031fc36049aE', symObjAddr: 0x0, symBinAddr: 0x1DF5C, symSize: 0x2C }
  - { offset: 0x839D8, size: 0x8, addend: 0x0, symName: '__ZN4core3ptr9const_ptr66_$LT$impl$u20$core..cmp..PartialEq$u20$for$u20$$BP$const$u20$T$GT$2eq17h6c5c4031fc36049aE', symObjAddr: 0x0, symBinAddr: 0x1DF5C, symSize: 0x2C }
  - { offset: 0x83A68, size: 0x8, addend: 0x0, symName: '__ZN102_$LT$core..iter..adapters..zip..Zip$LT$A$C$B$GT$$u20$as$u20$core..iter..traits..iterator..Iterator$GT$4next17h2e10ba9a44e822a7E', symObjAddr: 0x0, symBinAddr: 0x1DF88, symSize: 0x24 }
  - { offset: 0x84224, size: 0x8, addend: 0x0, symName: '__ZN102_$LT$core..iter..adapters..zip..Zip$LT$A$C$B$GT$$u20$as$u20$core..iter..traits..iterator..Iterator$GT$4next17h2e10ba9a44e822a7E', symObjAddr: 0x0, symBinAddr: 0x1DF88, symSize: 0x24 }
  - { offset: 0x84268, size: 0x8, addend: 0x0, symName: '__ZN111_$LT$core..iter..adapters..zip..Zip$LT$A$C$B$GT$$u20$as$u20$core..iter..adapters..zip..ZipImpl$LT$A$C$B$GT$$GT$3new17h428627ed5562be61E', symObjAddr: 0x24, symBinAddr: 0x1DFAC, symSize: 0x3C }
  - { offset: 0x842B4, size: 0x8, addend: 0x0, symName: '__ZN111_$LT$core..iter..adapters..zip..Zip$LT$A$C$B$GT$$u20$as$u20$core..iter..adapters..zip..ZipImpl$LT$A$C$B$GT$$GT$4next17h2d474623d10be667E', symObjAddr: 0x60, symBinAddr: 0x1DFE8, symSize: 0xE0 }
  - { offset: 0x844E1, size: 0x8, addend: 0x0, symName: '__ZN63_$LT$I$u20$as$u20$core..iter..traits..collect..IntoIterator$GT$9into_iter17h268358a8553667daE', symObjAddr: 0x140, symBinAddr: 0x1E0C8, symSize: 0x30 }
  - { offset: 0x84519, size: 0x8, addend: 0x0, symName: '__ZN63_$LT$I$u20$as$u20$core..iter..traits..collect..IntoIterator$GT$9into_iter17h3ac5fed52a2d9900E', symObjAddr: 0x170, symBinAddr: 0x1E0F8, symSize: 0x30 }
  - { offset: 0x85A2E, size: 0x8, addend: 0x0, symName: '__ZN75_$LT$pyo3..types..dict..PyDict$u20$as$u20$pyo3..type_object..PyTypeInfo$GT$16is_type_of_bound17h8df0c8a17d163abbE', symObjAddr: 0x0, symBinAddr: 0x1E128, symSize: 0x30 }
  - { offset: 0x86CDB, size: 0x8, addend: 0x0, symName: '__ZN75_$LT$pyo3..types..dict..PyDict$u20$as$u20$pyo3..type_object..PyTypeInfo$GT$16is_type_of_bound17h8df0c8a17d163abbE', symObjAddr: 0x0, symBinAddr: 0x1E128, symSize: 0x30 }
  - { offset: 0x86D0D, size: 0x8, addend: 0x0, symName: '__ZN95_$LT$pyo3..types..dict..BoundDictIterator$u20$as$u20$core..iter..traits..iterator..Iterator$GT$4next17h385beb9240a0edaeE', symObjAddr: 0x30, symBinAddr: 0x1E158, symSize: 0x19C }
  - { offset: 0x87412, size: 0x8, addend: 0x0, symName: __ZN4pyo35impl_10trampoline10trampoline17h343af4330c96d25fE, symObjAddr: 0x0, symBinAddr: 0x1E2F4, symSize: 0x168 }
  - { offset: 0x889DD, size: 0x8, addend: 0x0, symName: __ZN4pyo35impl_10trampoline10trampoline17h343af4330c96d25fE, symObjAddr: 0x0, symBinAddr: 0x1E2F4, symSize: 0x168 }
  - { offset: 0x88A81, size: 0x8, addend: 0x0, symName: __ZN4pyo35impl_10trampoline10trampoline17h446c0311c2e3d3a0E, symObjAddr: 0x168, symBinAddr: 0x1E45C, symSize: 0x164 }
  - { offset: 0x88B25, size: 0x8, addend: 0x0, symName: __ZN4pyo35impl_10trampoline10trampoline17h511ba472592d0490E, symObjAddr: 0x2CC, symBinAddr: 0x1E5C0, symSize: 0x164 }
  - { offset: 0x88BC9, size: 0x8, addend: 0x0, symName: __ZN4pyo35impl_10trampoline10trampoline17h861df8e6b5039f1fE, symObjAddr: 0x430, symBinAddr: 0x1E724, symSize: 0x158 }
  - { offset: 0x88C6C, size: 0x8, addend: 0x0, symName: __ZN4pyo35impl_10trampoline10trampoline17hbd5eb360f0fe178dE, symObjAddr: 0x588, symBinAddr: 0x1E87C, symSize: 0x16C }
  - { offset: 0x88D16, size: 0x8, addend: 0x0, symName: '__ZN4pyo35impl_10trampoline10trampoline28_$u7b$$u7b$closure$u7d$$u7d$17h628f86b6388eee20E', symObjAddr: 0x6F4, symBinAddr: 0x1E9E8, symSize: 0x2C }
  - { offset: 0x88D64, size: 0x8, addend: 0x0, symName: '__ZN4pyo35impl_10trampoline10trampoline28_$u7b$$u7b$closure$u7d$$u7d$17h924c9d5c6247328bE', symObjAddr: 0x720, symBinAddr: 0x1EA14, symSize: 0x40 }
  - { offset: 0x88DB3, size: 0x8, addend: 0x0, symName: '__ZN4pyo35impl_10trampoline10trampoline28_$u7b$$u7b$closure$u7d$$u7d$17h9f2c7f6d07fcec4aE', symObjAddr: 0x760, symBinAddr: 0x1EA54, symSize: 0x34 }
  - { offset: 0x88E02, size: 0x8, addend: 0x0, symName: '__ZN4pyo35impl_10trampoline10trampoline28_$u7b$$u7b$closure$u7d$$u7d$17he65544a97fdee3a8E', symObjAddr: 0x794, symBinAddr: 0x1EA88, symSize: 0x24 }
  - { offset: 0x88E50, size: 0x8, addend: 0x0, symName: '__ZN4pyo35impl_10trampoline10trampoline28_$u7b$$u7b$closure$u7d$$u7d$17he9314476b02b22e1E', symObjAddr: 0x7B8, symBinAddr: 0x1EAAC, symSize: 0x2C }
  - { offset: 0x88EA4, size: 0x8, addend: 0x0, symName: '__ZN4pyo35impl_10trampoline11module_init28_$u7b$$u7b$closure$u7d$$u7d$17hedc602db0b46ec03E', symObjAddr: 0x7E4, symBinAddr: 0x1EAD8, symSize: 0x40 }
  - { offset: 0x88EF0, size: 0x8, addend: 0x0, symName: '__ZN4pyo35impl_10trampoline11module_init28_$u7b$$u7b$closure$u7d$$u7d$28_$u7b$$u7b$closure$u7d$$u7d$17hc056b99024778b66E', symObjAddr: 0x824, symBinAddr: 0x1EB18, symSize: 0x24 }
  - { offset: 0x88F42, size: 0x8, addend: 0x0, symName: __ZN4pyo35impl_10trampoline21trampoline_unraisable17hac1f587adbe86f1bE, symObjAddr: 0x848, symBinAddr: 0x1EB3C, symSize: 0x218 }
  - { offset: 0x88FE5, size: 0x8, addend: 0x0, symName: '__ZN4pyo35impl_10trampoline21trampoline_unraisable28_$u7b$$u7b$closure$u7d$$u7d$17h11b46bcc4fb63eeeE', symObjAddr: 0xA60, symBinAddr: 0x1ED54, symSize: 0x50 }
  - { offset: 0x89024, size: 0x8, addend: 0x0, symName: '__ZN4pyo35impl_10trampoline21trampoline_unraisable28_$u7b$$u7b$closure$u7d$$u7d$17h7c006934c04ef950E', symObjAddr: 0xAB0, symBinAddr: 0x1EDA4, symSize: 0x2C }
  - { offset: 0x89076, size: 0x8, addend: 0x0, symName: '__ZN4pyo35impl_10trampoline22fastcall_with_keywords28_$u7b$$u7b$closure$u7d$$u7d$17h0aecf1d5d7d00c5fE', symObjAddr: 0xADC, symBinAddr: 0x1EDD0, symSize: 0x48 }
  - { offset: 0x8913D, size: 0x8, addend: 0x0, symName: __ZN4pyo35impl_10trampoline33panic_result_into_callback_output17h581ceb690bc40461E, symObjAddr: 0xB24, symBinAddr: 0x1EE18, symSize: 0xFC }
  - { offset: 0x89205, size: 0x8, addend: 0x0, symName: '__ZN4pyo35impl_10trampoline6noargs28_$u7b$$u7b$closure$u7d$$u7d$17h74128ddf36f1e0e2E', symObjAddr: 0xC20, symBinAddr: 0x1EF14, symSize: 0x34 }
  - { offset: 0x89282, size: 0x8, addend: 0x0, symName: '__ZN4pyo35impl_10trampoline7dealloc28_$u7b$$u7b$closure$u7d$$u7d$17h1f4ec70bf0292084E', symObjAddr: 0xC54, symBinAddr: 0x1EF48, symSize: 0x40 }
  - { offset: 0x892FF, size: 0x8, addend: 0x0, symName: '__ZN4pyo35impl_10trampoline7lenfunc28_$u7b$$u7b$closure$u7d$$u7d$17h09d4acc6f2ddf3bfE', symObjAddr: 0xC94, symBinAddr: 0x1EF88, symSize: 0x34 }
  - { offset: 0x8937C, size: 0x8, addend: 0x0, symName: '__ZN4pyo35impl_10trampoline7newfunc28_$u7b$$u7b$closure$u7d$$u7d$17h4ce8dba519d4494cE', symObjAddr: 0xCC8, symBinAddr: 0x1EFBC, symSize: 0x40 }
  - { offset: 0x89D99, size: 0x8, addend: 0x0, symName: '__ZN106_$LT$core..ops..range..Range$LT$usize$GT$$u20$as$u20$core..slice..index..SliceIndex$LT$$u5b$T$u5d$$GT$$GT$9index_mut17hf6cb7f6966e2b9c8E', symObjAddr: 0x0, symBinAddr: 0x1EFFC, symSize: 0xBC }
  - { offset: 0x8AFE8, size: 0x8, addend: 0x0, symName: '__ZN106_$LT$core..ops..range..Range$LT$usize$GT$$u20$as$u20$core..slice..index..SliceIndex$LT$$u5b$T$u5d$$GT$$GT$9index_mut17hf6cb7f6966e2b9c8E', symObjAddr: 0x0, symBinAddr: 0x1EFFC, symSize: 0xBC }
  - { offset: 0x8B099, size: 0x8, addend: 0x0, symName: '__ZN108_$LT$core..ops..range..RangeTo$LT$usize$GT$$u20$as$u20$core..slice..index..SliceIndex$LT$$u5b$T$u5d$$GT$$GT$9index_mut17ha3607f8732ea62a3E', symObjAddr: 0x2AC, symBinAddr: 0x1F2A8, symSize: 0x54 }
  - { offset: 0x8B120, size: 0x8, addend: 0x0, symName: '__ZN110_$LT$core..ops..range..RangeFrom$LT$usize$GT$$u20$as$u20$core..slice..index..SliceIndex$LT$$u5b$T$u5d$$GT$$GT$5index17hc1ed3e88b94d04b6E', symObjAddr: 0x300, symBinAddr: 0x1F2FC, symSize: 0x70 }
  - { offset: 0x8B1F3, size: 0x8, addend: 0x0, symName: '__ZN115_$LT$core..ops..range..RangeInclusive$LT$usize$GT$$u20$as$u20$core..slice..index..SliceIndex$LT$$u5b$T$u5d$$GT$$GT$5index17hf7458b3e54662108E', symObjAddr: 0x370, symBinAddr: 0x1F36C, symSize: 0xF4 }
  - { offset: 0x8B678, size: 0x8, addend: 0x0, symName: '__ZN107_$LT$core..ops..range..RangeInclusive$LT$T$GT$$u20$as$u20$core..iter..range..RangeInclusiveIteratorImpl$GT$14spec_next_back17haf0cd74ced78968aE', symObjAddr: 0xBC, symBinAddr: 0x1F0B8, symSize: 0xF8 }
  - { offset: 0x8B778, size: 0x8, addend: 0x0, symName: '__ZN107_$LT$core..ops..range..RangeInclusive$LT$T$GT$$u20$as$u20$core..iter..range..RangeInclusiveIteratorImpl$GT$9spec_next17h7a6e0d5129952485E', symObjAddr: 0x1B4, symBinAddr: 0x1F1B0, symSize: 0xF8 }
  - { offset: 0x8B879, size: 0x8, addend: 0x0, symName: '__ZN4core4iter5range110_$LT$impl$u20$core..iter..traits..iterator..Iterator$u20$for$u20$core..ops..range..RangeInclusive$LT$A$GT$$GT$4next17h0dcbc030e55d5988E', symObjAddr: 0x464, symBinAddr: 0x1F460, symSize: 0x24 }
  - { offset: 0x8B8B6, size: 0x8, addend: 0x0, symName: '__ZN4core4iter5range116_$LT$impl$u20$core..iter..traits..double_ended..DoubleEndedIterator$u20$for$u20$core..ops..range..Range$LT$A$GT$$GT$9next_back17h774cf51ad71e8463E', symObjAddr: 0x488, symBinAddr: 0x1F484, symSize: 0x24 }
  - { offset: 0x8B8F3, size: 0x8, addend: 0x0, symName: '__ZN4core4iter5range125_$LT$impl$u20$core..iter..traits..double_ended..DoubleEndedIterator$u20$for$u20$core..ops..range..RangeInclusive$LT$A$GT$$GT$9next_back17h0f6393b5d420a220E', symObjAddr: 0x4AC, symBinAddr: 0x1F4A8, symSize: 0x24 }
  - { offset: 0x8B930, size: 0x8, addend: 0x0, symName: '__ZN89_$LT$core..ops..range..Range$LT$T$GT$$u20$as$u20$core..iter..range..RangeIteratorImpl$GT$14spec_next_back17hcc6eb33a5ad153fbE', symObjAddr: 0x614, symBinAddr: 0x1F610, symSize: 0x88 }
  - { offset: 0x8BA8D, size: 0x8, addend: 0x0, symName: __ZN4core4iter6traits8iterator8Iterator3map17h06fa534d32695a53E, symObjAddr: 0x4D0, symBinAddr: 0x1F4CC, symSize: 0x28 }
  - { offset: 0x8BAFA, size: 0x8, addend: 0x0, symName: __ZN4core4iter6traits8iterator8Iterator3rev17h01c28a2f1c7e541bE, symObjAddr: 0x4F8, symBinAddr: 0x1F4F4, symSize: 0x14 }
  - { offset: 0x8BB31, size: 0x8, addend: 0x0, symName: __ZN4core4iter6traits8iterator8Iterator3rev17he8c04b0b6c0d4c79E, symObjAddr: 0x50C, symBinAddr: 0x1F508, symSize: 0x18 }
  - { offset: 0x8BB7D, size: 0x8, addend: 0x0, symName: __ZN4core4iter6traits8iterator8Iterator4fold17h7af36e959ce089c2E, symObjAddr: 0x524, symBinAddr: 0x1F520, symSize: 0xD8 }
  - { offset: 0x8BC38, size: 0x8, addend: 0x0, symName: '__ZN63_$LT$I$u20$as$u20$core..iter..traits..collect..IntoIterator$GT$9into_iter17h1f3a2221ee357efcE', symObjAddr: 0x5FC, symBinAddr: 0x1F5F8, symSize: 0x18 }
  - { offset: 0x8C85E, size: 0x8, addend: 0x0, symName: __ZN4pyo33gil7GILPool3new17h25bffa2f661757b4E, symObjAddr: 0x0, symBinAddr: 0x1F698, symSize: 0x3C }
  - { offset: 0x8CA7B, size: 0x8, addend: 0x0, symName: __ZN4pyo33gil7GILPool3new17h25bffa2f661757b4E, symObjAddr: 0x0, symBinAddr: 0x1F698, symSize: 0x3C }
  - { offset: 0x8CAB1, size: 0x8, addend: 0x0, symName: __ZN4pyo33gil7GILPool6python17h91e80d9c4401b787E, symObjAddr: 0x3C, symBinAddr: 0x1F6D4, symSize: 0x20 }
  - { offset: 0x8CAF2, size: 0x8, addend: 0x0, symName: '__ZN10rayon_core5latch17LatchRef$LT$L$GT$3new17h93bf5c9f413c227eE', symObjAddr: 0x0, symBinAddr: 0x1F6F4, symSize: 0x14 }
  - { offset: 0x8CB78, size: 0x8, addend: 0x0, symName: '__ZN80_$LT$rayon_core..latch..LatchRef$LT$L$GT$$u20$as$u20$core..ops..deref..Deref$GT$5deref17h4175336f35c17b4bE', symObjAddr: 0x14, symBinAddr: 0x1F708, symSize: 0x70 }
  - { offset: 0x8CBB5, size: 0x8, addend: 0x0, symName: '__ZN81_$LT$rayon_core..latch..LatchRef$LT$L$GT$$u20$as$u20$rayon_core..latch..Latch$GT$3set17hd8da6427e6bf7589E', symObjAddr: 0x84, symBinAddr: 0x1F778, symSize: 0x78 }
  - { offset: 0x8CF92, size: 0x8, addend: 0x0, symName: '__ZN10rayon_core5latch17LatchRef$LT$L$GT$3new17h93bf5c9f413c227eE', symObjAddr: 0x0, symBinAddr: 0x1F6F4, symSize: 0x14 }
  - { offset: 0x8CFF6, size: 0x8, addend: 0x0, symName: __ZN14neuralvault_rs9hnsw_core8HNSWCore10get_vector17h8cb0f4e0f521de08E, symObjAddr: 0x0, symBinAddr: 0x1F7F0, symSize: 0x9C }
  - { offset: 0x8D781, size: 0x8, addend: 0x0, symName: '__ZN81_$LT$neuralvault_rs..hnsw_core..SearchResult$u20$as$u20$core..cmp..PartialOrd$GT$11partial_cmp17he1c06003725ee5f8E', symObjAddr: 0x23A8, symBinAddr: 0x21B98, symSize: 0x7C }
  - { offset: 0x8E06E, size: 0x8, addend: 0x0, symName: __ZN14neuralvault_rs9hnsw_core8HNSWCore10get_vector17h8cb0f4e0f521de08E, symObjAddr: 0x0, symBinAddr: 0x1F7F0, symSize: 0x9C }
  - { offset: 0x8E0D4, size: 0x8, addend: 0x0, symName: __ZN14neuralvault_rs9hnsw_core8HNSWCore12search_layer17h5a43ddae38b18330E, symObjAddr: 0x9C, symBinAddr: 0x1F88C, symSize: 0x4EC }
  - { offset: 0x8E2DF, size: 0x8, addend: 0x0, symName: __ZN14neuralvault_rs9hnsw_core8HNSWCore13get_neighbors17h9485d2d057890234E, symObjAddr: 0x588, symBinAddr: 0x1FD78, symSize: 0x118 }
  - { offset: 0x8E35C, size: 0x8, addend: 0x0, symName: __ZN14neuralvault_rs9hnsw_core8HNSWCore14generate_level17h945c8614be91dfc7E, symObjAddr: 0x6A0, symBinAddr: 0x1FE90, symSize: 0xD8 }
  - { offset: 0x8E3EB, size: 0x8, addend: 0x0, symName: __ZN14neuralvault_rs9hnsw_core8HNSWCore16get_edges_sample17h0b41dcecb3cd1293E, symObjAddr: 0x778, symBinAddr: 0x1FF68, symSize: 0x438 }
  - { offset: 0x8E539, size: 0x8, addend: 0x0, symName: __ZN14neuralvault_rs9hnsw_core8HNSWCore16remove_edge_from17h661579b7ff206806E, symObjAddr: 0xBB0, symBinAddr: 0x203A0, symSize: 0x3E4 }
  - { offset: 0x8E62F, size: 0x8, addend: 0x0, symName: __ZN14neuralvault_rs9hnsw_core8HNSWCore16select_neighbors17h8d3a091def6c3045E, symObjAddr: 0xF94, symBinAddr: 0x20784, symSize: 0x68 }
  - { offset: 0x8E66E, size: 0x8, addend: 0x0, symName: __ZN14neuralvault_rs9hnsw_core8HNSWCore20shrink_neighbor_list17h5ba6598f18eb0ddeE, symObjAddr: 0xFFC, symBinAddr: 0x207EC, symSize: 0x3EC }
  - { offset: 0x8E774, size: 0x8, addend: 0x0, symName: __ZN14neuralvault_rs9hnsw_core8HNSWCore3new17h4bd8e1d05365fc10E, symObjAddr: 0x13E8, symBinAddr: 0x20BD8, symSize: 0x1A8 }
  - { offset: 0x8E7B9, size: 0x8, addend: 0x0, symName: __ZN14neuralvault_rs9hnsw_core8HNSWCore6delete17h246250b3bcec8ba7E, symObjAddr: 0x1590, symBinAddr: 0x20D80, symSize: 0x410 }
  - { offset: 0x8E8BC, size: 0x8, addend: 0x0, symName: __ZN14neuralvault_rs9hnsw_core8HNSWCore6insert17hbaa4a7e7f2bef186E, symObjAddr: 0x19A0, symBinAddr: 0x21190, symSize: 0x858 }
  - { offset: 0x8EAAC, size: 0x8, addend: 0x0, symName: __ZN14neuralvault_rs9hnsw_core8HNSWCore8add_edge17he5229f8995cb10d2E, symObjAddr: 0x21F8, symBinAddr: 0x219E8, symSize: 0x1B0 }
  - { offset: 0x8EE19, size: 0x8, addend: 0x0, symName: '__ZN14neuralvault_rs164_$LT$impl$u20$pyo3..impl_..pyclass..PyMethods$LT$neuralvault_rs..PyHNSW$GT$$u20$for$u20$pyo3..impl_..pyclass..PyClassImplCollector$LT$neuralvault_rs..PyHNSW$GT$$GT$10py_methods17hf5d1219fdd1173fbE', symObjAddr: 0x0, symBinAddr: 0x21C14, symSize: 0x14 }
  - { offset: 0x9044F, size: 0x8, addend: 0x0, symName: '__ZN14neuralvault_rs164_$LT$impl$u20$pyo3..impl_..pyclass..PyMethods$LT$neuralvault_rs..PyHNSW$GT$$u20$for$u20$pyo3..impl_..pyclass..PyClassImplCollector$LT$neuralvault_rs..PyHNSW$GT$$GT$10py_methods17hf5d1219fdd1173fbE', symObjAddr: 0x0, symBinAddr: 0x21C14, symSize: 0x14 }
  - { offset: 0x9049A, size: 0x8, addend: 0x0, symName: '__ZN14neuralvault_rs164_$LT$impl$u20$pyo3..impl_..pyclass..PyMethods$LT$neuralvault_rs..PyHNSW$GT$$u20$for$u20$pyo3..impl_..pyclass..PyClassImplCollector$LT$neuralvault_rs..PyHNSW$GT$$GT$10py_methods5ITEMS10trampoline178_$LT$impl$u20$pyo3..impl_..pyclass..PyClassNewTextSignature$LT$neuralvault_rs..PyHNSW$GT$$u20$for$u20$pyo3..impl_..pyclass..PyClassImplCollector$LT$neuralvault_rs..PyHNSW$GT$$GT$18new_text_signature17h1e6aeb314234d05cE', symObjAddr: 0x14, symBinAddr: 0x21C28, symSize: 0x1C }
  - { offset: 0x904DB, size: 0x8, addend: 0x0, symName: '__ZN14neuralvault_rs180_$LT$impl$u20$pyo3..impl_..pyclass..PyMethods$LT$neuralvault_rs..RustTurboQuant$GT$$u20$for$u20$pyo3..impl_..pyclass..PyClassImplCollector$LT$neuralvault_rs..RustTurboQuant$GT$$GT$10py_methods17h7051e57fa3aa8d17E', symObjAddr: 0x30, symBinAddr: 0x21C44, symSize: 0x14 }
  - { offset: 0x90526, size: 0x8, addend: 0x0, symName: '__ZN14neuralvault_rs180_$LT$impl$u20$pyo3..impl_..pyclass..PyMethods$LT$neuralvault_rs..RustTurboQuant$GT$$u20$for$u20$pyo3..impl_..pyclass..PyClassImplCollector$LT$neuralvault_rs..RustTurboQuant$GT$$GT$10py_methods5ITEMS10trampoline194_$LT$impl$u20$pyo3..impl_..pyclass..PyClassNewTextSignature$LT$neuralvault_rs..RustTurboQuant$GT$$u20$for$u20$pyo3..impl_..pyclass..PyClassImplCollector$LT$neuralvault_rs..RustTurboQuant$GT$$GT$18new_text_signature17h89d51178213af90dE', symObjAddr: 0x44, symBinAddr: 0x21C58, symSize: 0x1C }
  - { offset: 0x91595, size: 0x8, addend: 0x0, symName: __ZN4core3ptr19copy_nonoverlapping18precondition_check17h807f2645ba7d48a7E, symObjAddr: 0x0, symBinAddr: 0x21C74, symSize: 0x168 }
  - { offset: 0x91700, size: 0x8, addend: 0x0, symName: __ZN4core3ptr19copy_nonoverlapping18precondition_check17h807f2645ba7d48a7E, symObjAddr: 0x0, symBinAddr: 0x21C74, symSize: 0x168 }
  - { offset: 0x91927, size: 0x8, addend: 0x0, symName: __ZN4core3ptr25swap_nonoverlapping_bytes17ha50a77f2e6f06e2cE, symObjAddr: 0x2D4, symBinAddr: 0x21DDC, symSize: 0xD8 }
  - { offset: 0x91AD0, size: 0x8, addend: 0x0, symName: __ZN4core3ptr25swap_nonoverlapping_bytes25swap_nonoverlapping_short17h8a30063b9fb6211fE, symObjAddr: 0x3AC, symBinAddr: 0x21EB4, symSize: 0x11C }
  - { offset: 0x91C62, size: 0x8, addend: 0x0, symName: __ZN4core3ptr4copy18precondition_check17h353496602dab68f4E, symObjAddr: 0x4C8, symBinAddr: 0x21FD0, symSize: 0x130 }
  - { offset: 0x91F78, size: 0x8, addend: 0x0, symName: '__ZN100_$LT$core..array..iter..iter_inner..PolymorphicIter$LT$DATA$GT$$u20$as$u20$core..ops..drop..Drop$GT$4drop17h22ba45cf9b26bc3bE', symObjAddr: 0x0, symBinAddr: 0x22100, symSize: 0x30 }
  - { offset: 0x93171, size: 0x8, addend: 0x0, symName: '__ZN4core3ptr100drop_in_place$LT$hashbrown..map..IntoIter$LT$alloc..string..String$C$$LP$f32$C$f32$C$f32$RP$$GT$$GT$17he8f371a75d2c953aE', symObjAddr: 0x1594, symBinAddr: 0x23670, symSize: 0x24 }
  - { offset: 0x931A0, size: 0x8, addend: 0x0, symName: '__ZN4core3ptr101drop_in_place$LT$core..option..Option$LT$pyo3..pycell..PyRefMut$LT$neuralvault_rs..PyHNSW$GT$$GT$$GT$17haf62a62bc7737a0cE', symObjAddr: 0x15DC, symBinAddr: 0x23694, symSize: 0x44 }
  - { offset: 0x931CF, size: 0x8, addend: 0x0, symName: '__ZN4core3ptr101drop_in_place$LT$hashbrown..map..HashMap$LT$usize$C$$LP$$RP$$C$std..hash..random..RandomState$GT$$GT$17h6860dae06180e06bE', symObjAddr: 0x1620, symBinAddr: 0x236D8, symSize: 0x24 }
  - { offset: 0x931FE, size: 0x8, addend: 0x0, symName: '__ZN4core3ptr101drop_in_place$LT$pyo3..pyclass_init..PyClassInitializerImpl$LT$neuralvault_rs..RustTurboQuant$GT$$GT$17haeaf4de0835c0346E', symObjAddr: 0x1644, symBinAddr: 0x236FC, symSize: 0x40 }
  - { offset: 0x9322D, size: 0x8, addend: 0x0, symName: '__ZN4core3ptr102drop_in_place$LT$$u5b$std..collections..hash..map..HashMap$LT$alloc..string..String$C$f32$GT$$u5d$$GT$17h0790846706341b1cE', symObjAddr: 0x1684, symBinAddr: 0x2373C, symSize: 0xC4 }
  - { offset: 0x9325C, size: 0x8, addend: 0x0, symName: '__ZN4core3ptr1045drop_in_place$LT$$LT$core..iter..adapters..take..Take$LT$I$GT$$u20$as$u20$core..iter..traits..iterator..Iterator$GT$..try_fold..check$LT$$LP$usize$C$f32$RP$$C$$LP$$RP$$C$core..ops..try_trait..NeverShortCircuit$LT$$LP$$RP$$GT$$C$core..ops..try_trait..NeverShortCircuit$LT$$LP$$RP$$GT$..wrap_mut_2$LT$$LP$$RP$$C$$LP$usize$C$f32$RP$$C$core..iter..adapters..map..map_fold$LT$$LP$usize$C$f32$RP$$C$$LP$alloc..string..String$C$f32$RP$$C$$LP$$RP$$C$neuralvault_rs..PyHNSW..search..$u7b$$u7b$closure$u7d$$u7d$$C$core..iter..traits..iterator..Iterator..for_each..call$LT$$LP$alloc..string..String$C$f32$RP$$C$alloc..vec..Vec$LT$$LP$alloc..string..String$C$f32$RP$$GT$..extend_trusted$LT$core..iter..adapters..map..Map$LT$core..iter..adapters..take..Take$LT$alloc..vec..into_iter..IntoIter$LT$$LP$usize$C$f32$RP$$GT$$GT$$C$neuralvault_rs..PyHNSW..search..$u7b$$u7b$closure$u7d$$u7d$$GT$$GT$..$u7b$$u7b$closure$u7d$$u7d$$GT$..$u7b$$u7b$closure$u7d$$u7d$$GT$..$u7b$$u7b$closure$u7d$$u7d$$GT$..$u7b$$u7b$closure$u7d$$u7d$$GT$..$u7b$$u7b$closure$u7d$$u7d$$GT$17h89c79c9a4d1f0be5E', symObjAddr: 0x1748, symBinAddr: 0x23800, symSize: 0x24 }
  - { offset: 0x9328B, size: 0x8, addend: 0x0, symName: '__ZN4core3ptr104drop_in_place$LT$alloc..raw_vec..RawVec$LT$$LP$alloc..string..String$C$alloc..string..String$RP$$GT$$GT$17h4d5085adfd4026beE', symObjAddr: 0x176C, symBinAddr: 0x23824, symSize: 0x24 }
  - { offset: 0x932BA, size: 0x8, addend: 0x0, symName: '__ZN4core3ptr105drop_in_place$LT$alloc..collections..binary_heap..Hole$LT$neuralvault_rs..hnsw_core..SearchResult$GT$$GT$17h55724535f63f05a9E', symObjAddr: 0x17B4, symBinAddr: 0x23848, symSize: 0x24 }
  - { offset: 0x932E9, size: 0x8, addend: 0x0, symName: '__ZN4core3ptr105drop_in_place$LT$alloc..raw_vec..RawVec$LT$$LP$ordered_float..OrderedFloat$LT$f32$GT$$C$usize$RP$$GT$$GT$17h157fed1a4297d2b5E', symObjAddr: 0x17D8, symBinAddr: 0x2386C, symSize: 0x24 }
  - { offset: 0x93318, size: 0x8, addend: 0x0, symName: '__ZN4core3ptr106drop_in_place$LT$core..option..Option$LT$pyo3..pycell..PyRef$LT$neuralvault_rs..RustTurboQuant$GT$$GT$$GT$17h6c4aa14ac8351bd7E', symObjAddr: 0x1844, symBinAddr: 0x23890, symSize: 0x44 }
  - { offset: 0x93347, size: 0x8, addend: 0x0, symName: '__ZN4core3ptr106drop_in_place$LT$core..result..Result$LT$$BP$mut$u20$pyo3_ffi..object..PyObject$C$pyo3..err..PyErr$GT$$GT$17h49c665ec23d864feE', symObjAddr: 0x1888, symBinAddr: 0x238D4, symSize: 0x40 }
  - { offset: 0x93376, size: 0x8, addend: 0x0, symName: '__ZN4core3ptr107drop_in_place$LT$core..option..Option$LT$alloc..vec..Vec$LT$$LP$alloc..string..String$C$f32$RP$$GT$$GT$$GT$17h9c56d3b93c4e50e9E', symObjAddr: 0x18EC, symBinAddr: 0x23914, symSize: 0x48 }
  - { offset: 0x933A5, size: 0x8, addend: 0x0, symName: '__ZN4core3ptr108drop_in_place$LT$core..result..Result$LT$$LP$$RP$$C$alloc..borrow..Cow$LT$core..ffi..c_str..CStr$GT$$GT$$GT$17haa16cf08ef533c5dE', symObjAddr: 0x1958, symBinAddr: 0x2395C, symSize: 0x44 }
  - { offset: 0x933D4, size: 0x8, addend: 0x0, symName: '__ZN4core3ptr108drop_in_place$LT$hashbrown..raw..RawTable$LT$$LP$alloc..string..String$C$$LP$f32$C$f32$C$f32$RP$$RP$$GT$$GT$17h5bfb1ef3c4fbe8aaE', symObjAddr: 0x199C, symBinAddr: 0x239A0, symSize: 0x24 }
  - { offset: 0x93403, size: 0x8, addend: 0x0, symName: '__ZN4core3ptr111drop_in_place$LT$$LP$alloc..string..String$C$alloc..vec..Vec$LT$$LP$alloc..string..String$C$f32$RP$$GT$$RP$$GT$17hd8b5bcefb0731f8eE', symObjAddr: 0x19C0, symBinAddr: 0x239C4, symSize: 0x60 }
  - { offset: 0x93432, size: 0x8, addend: 0x0, symName: '__ZN4core3ptr111drop_in_place$LT$alloc..collections..binary_heap..BinaryHeap$LT$neuralvault_rs..hnsw_core..SearchResult$GT$$GT$17hb55912f9d8f22ae2E', symObjAddr: 0x1A20, symBinAddr: 0x23A24, symSize: 0x24 }
  - { offset: 0x93461, size: 0x8, addend: 0x0, symName: '__ZN4core3ptr111drop_in_place$LT$hashbrown..raw..RawIntoIter$LT$$LP$alloc..string..String$C$$LP$f32$C$f32$C$f32$RP$$RP$$GT$$GT$17he23e9f229a1e74f5E', symObjAddr: 0x1A44, symBinAddr: 0x23A48, symSize: 0x24 }
  - { offset: 0x93490, size: 0x8, addend: 0x0, symName: '__ZN4core3ptr112drop_in_place$LT$alloc..vec..in_place_drop..InPlaceDrop$LT$neuralvault_rs..causal_engine..RustCausalEdge$GT$$GT$17h5d49b4e47b14ff44E', symObjAddr: 0x1A68, symBinAddr: 0x23A6C, symSize: 0x24 }
  - { offset: 0x934BF, size: 0x8, addend: 0x0, symName: '__ZN4core3ptr112drop_in_place$LT$hashbrown..map..HashMap$LT$alloc..string..String$C$f32$C$std..hash..random..RandomState$GT$$GT$17h757a45a76481b7edE', symObjAddr: 0x1A8C, symBinAddr: 0x23A90, symSize: 0x24 }
  - { offset: 0x934EE, size: 0x8, addend: 0x0, symName: '__ZN4core3ptr112drop_in_place$LT$std..collections..hash..map..HashMap$LT$alloc..string..String$C$$LP$f32$C$f32$C$f32$RP$$GT$$GT$17h51fec8dc1bb467b7E', symObjAddr: 0x1AB0, symBinAddr: 0x23AB4, symSize: 0x24 }
  - { offset: 0x9351D, size: 0x8, addend: 0x0, symName: '__ZN4core3ptr113drop_in_place$LT$alloc..vec..into_iter..IntoIter$LT$$LP$alloc..string..String$C$alloc..string..String$RP$$GT$$GT$17hbebae8096f76c900E', symObjAddr: 0x1AD4, symBinAddr: 0x23AD8, symSize: 0x24 }
  - { offset: 0x9354C, size: 0x8, addend: 0x0, symName: '__ZN4core3ptr113drop_in_place$LT$std..collections..hash..map..IntoIter$LT$alloc..string..String$C$$LP$f32$C$f32$C$f32$RP$$GT$$GT$17hef3519f747bcb88aE', symObjAddr: 0x1B1C, symBinAddr: 0x23AFC, symSize: 0x24 }
  - { offset: 0x9357B, size: 0x8, addend: 0x0, symName: '__ZN4core3ptr114drop_in_place$LT$alloc..vec..into_iter..IntoIter$LT$$LP$ordered_float..OrderedFloat$LT$f32$GT$$C$usize$RP$$GT$$GT$17h78ef6b706bb37c02E', symObjAddr: 0x1B40, symBinAddr: 0x23B20, symSize: 0x24 }
  - { offset: 0x935AA, size: 0x8, addend: 0x0, symName: '__ZN4core3ptr114drop_in_place$LT$hashbrown..map..HashMap$LT$alloc..string..String$C$usize$C$std..hash..random..RandomState$GT$$GT$17h4f13ea54c6639cb3E', symObjAddr: 0x1B64, symBinAddr: 0x23B44, symSize: 0x24 }
  - { offset: 0x935D9, size: 0x8, addend: 0x0, symName: '__ZN4core3ptr115drop_in_place$LT$alloc..vec..Vec$LT$std..collections..hash..map..HashMap$LT$alloc..string..String$C$f32$GT$$GT$$GT$17h568a769f0a5299bbE', symObjAddr: 0x1B88, symBinAddr: 0x23B68, symSize: 0x5C }
  - { offset: 0x93608, size: 0x8, addend: 0x0, symName: '__ZN4core3ptr115drop_in_place$LT$core..array..iter..IntoIter$LT$pyo3..instance..Py$LT$pyo3..types..any..PyAny$GT$$C$3_usize$GT$$GT$17h8e0a701907a402bfE', symObjAddr: 0x1BE4, symBinAddr: 0x23BC4, symSize: 0x24 }
  - { offset: 0x93637, size: 0x8, addend: 0x0, symName: '__ZN4core3ptr117drop_in_place$LT$core..iter..adapters..take..Take$LT$alloc..vec..into_iter..IntoIter$LT$$LP$u32$C$f32$RP$$GT$$GT$$GT$17h782e4d258c1134baE', symObjAddr: 0x1C08, symBinAddr: 0x23BE8, symSize: 0x24 }
  - { offset: 0x93666, size: 0x8, addend: 0x0, symName: '__ZN4core3ptr117drop_in_place$LT$core..option..Option$LT$alloc..vec..Vec$LT$neuralvault_rs..causal_engine..RustCausalEdge$GT$$GT$$GT$17h485906c28197deacE', symObjAddr: 0x1C2C, symBinAddr: 0x23C0C, symSize: 0x48 }
  - { offset: 0x93695, size: 0x8, addend: 0x0, symName: '__ZN4core3ptr117drop_in_place$LT$hashbrown..map..IntoIter$LT$alloc..string..String$C$$LP$alloc..vec..Vec$LT$f32$GT$$C$f32$RP$$GT$$GT$17h65c32448ca72ac18E', symObjAddr: 0x1C74, symBinAddr: 0x23C54, symSize: 0x24 }
  - { offset: 0x936C4, size: 0x8, addend: 0x0, symName: '__ZN4core3ptr119drop_in_place$LT$core..iter..adapters..take..Take$LT$alloc..vec..into_iter..IntoIter$LT$$LP$usize$C$f32$RP$$GT$$GT$$GT$17hd86be3e113d68358E', symObjAddr: 0x1C98, symBinAddr: 0x23C78, symSize: 0x24 }
  - { offset: 0x936F3, size: 0x8, addend: 0x0, symName: '__ZN4core3ptr120drop_in_place$LT$alloc..collections..binary_heap..Hole$LT$$LP$ordered_float..OrderedFloat$LT$f32$GT$$C$usize$RP$$GT$$GT$17hbd13ca9915963566E', symObjAddr: 0x1CBC, symBinAddr: 0x23C9C, symSize: 0x24 }
  - { offset: 0x93722, size: 0x8, addend: 0x0, symName: '__ZN4core3ptr121drop_in_place$LT$$LP$alloc..string..String$C$alloc..vec..Vec$LT$neuralvault_rs..causal_engine..RustCausalEdge$GT$$RP$$GT$17haec036c7a883c3edE', symObjAddr: 0x1CE0, symBinAddr: 0x23CC0, symSize: 0x60 }
  - { offset: 0x93751, size: 0x8, addend: 0x0, symName: '__ZN4core3ptr121drop_in_place$LT$alloc..vec..in_place_drop..InPlaceDstDataSrcBufDrop$LT$$LP$usize$C$f32$RP$$C$$LP$usize$C$f32$RP$$GT$$GT$17h43dabb2b3ebf10ffE', symObjAddr: 0x1D40, symBinAddr: 0x23D20, symSize: 0x24 }
  - { offset: 0x93780, size: 0x8, addend: 0x0, symName: '__ZN4core3ptr122drop_in_place$LT$alloc..raw_vec..RawVec$LT$std..collections..hash..map..HashMap$LT$alloc..string..String$C$f32$GT$$GT$$GT$17h37f6671aa9d7c385E', symObjAddr: 0x1D64, symBinAddr: 0x23D44, symSize: 0x24 }
  - { offset: 0x937AF, size: 0x8, addend: 0x0, symName: '__ZN4core3ptr124drop_in_place$LT$alloc..collections..binary_heap..IntoIter$LT$$LP$ordered_float..OrderedFloat$LT$f32$GT$$C$usize$RP$$GT$$GT$17hb3e11484045551c3E', symObjAddr: 0x1D88, symBinAddr: 0x23D68, symSize: 0x24 }
  - { offset: 0x937DE, size: 0x8, addend: 0x0, symName: '__ZN4core3ptr125drop_in_place$LT$hashbrown..raw..RawTable$LT$$LP$alloc..string..String$C$$LP$alloc..vec..Vec$LT$f32$GT$$C$f32$RP$$RP$$GT$$GT$17h093494b361cf3fb2E', symObjAddr: 0x1DAC, symBinAddr: 0x23D8C, symSize: 0x24 }
  - { offset: 0x9380D, size: 0x8, addend: 0x0, symName: '__ZN4core3ptr126drop_in_place$LT$alloc..collections..binary_heap..BinaryHeap$LT$$LP$ordered_float..OrderedFloat$LT$f32$GT$$C$usize$RP$$GT$$GT$17h5e1464c538f69c14E', symObjAddr: 0x1DD0, symBinAddr: 0x23DB0, symSize: 0x24 }
  - { offset: 0x9383C, size: 0x8, addend: 0x0, symName: '__ZN4core3ptr127drop_in_place$LT$std..collections..hash..map..Entry$LT$alloc..string..String$C$$LP$alloc..vec..Vec$LT$f32$GT$$C$f32$RP$$GT$$GT$17h97b933d66ee1ea5cE', symObjAddr: 0x1E18, symBinAddr: 0x23DD4, symSize: 0x48 }
  - { offset: 0x9386B, size: 0x8, addend: 0x0, symName: '__ZN4core3ptr128drop_in_place$LT$hashbrown..raw..RawIntoIter$LT$$LP$alloc..string..String$C$$LP$alloc..vec..Vec$LT$f32$GT$$C$f32$RP$$RP$$GT$$GT$17h653fceea67d7ec6eE', symObjAddr: 0x1E60, symBinAddr: 0x23E1C, symSize: 0x24 }
  - { offset: 0x9389A, size: 0x8, addend: 0x0, symName: '__ZN4core3ptr129drop_in_place$LT$std..collections..hash..map..HashMap$LT$alloc..string..String$C$$LP$alloc..vec..Vec$LT$f32$GT$$C$f32$RP$$GT$$GT$17h8804035815a08a10E', symObjAddr: 0x1EA8, symBinAddr: 0x23E40, symSize: 0x24 }
  - { offset: 0x938C9, size: 0x8, addend: 0x0, symName: '__ZN4core3ptr130drop_in_place$LT$$LP$pyo3..instance..Py$LT$pyo3..types..any..PyAny$GT$$C$pyo3..instance..Py$LT$pyo3..types..any..PyAny$GT$$RP$$GT$17h3f73c337882bc28aE', symObjAddr: 0x1ECC, symBinAddr: 0x23E64, symSize: 0x60 }
  - { offset: 0x938F8, size: 0x8, addend: 0x0, symName: '__ZN4core3ptr130drop_in_place$LT$std..collections..hash..map..IntoIter$LT$alloc..string..String$C$$LP$alloc..vec..Vec$LT$f32$GT$$C$f32$RP$$GT$$GT$17h80a66b3ccf5d6a03E', symObjAddr: 0x1F2C, symBinAddr: 0x23EC4, symSize: 0x24 }
  - { offset: 0x93927, size: 0x8, addend: 0x0, symName: '__ZN4core3ptr131drop_in_place$LT$alloc..vec..into_iter..IntoIter$LT$std..collections..hash..map..HashMap$LT$alloc..string..String$C$f32$GT$$GT$$GT$17he08b112cf960e3a5E', symObjAddr: 0x1F50, symBinAddr: 0x23EE8, symSize: 0x24 }
  - { offset: 0x93956, size: 0x8, addend: 0x0, symName: '__ZN4core3ptr132drop_in_place$LT$hashbrown..map..HashMap$LT$alloc..string..String$C$$LP$f32$C$f32$C$f32$RP$$C$std..hash..random..RandomState$GT$$GT$17h50de2d6c313ff9a0E', symObjAddr: 0x1F98, symBinAddr: 0x23F0C, symSize: 0x24 }
  - { offset: 0x93985, size: 0x8, addend: 0x0, symName: '__ZN4core3ptr133drop_in_place$LT$hashbrown..rustc_entry..RustcVacantEntry$LT$alloc..string..String$C$$LP$alloc..vec..Vec$LT$f32$GT$$C$f32$RP$$GT$$GT$17h369d303e7ab627c4E', symObjAddr: 0x1FBC, symBinAddr: 0x23F30, symSize: 0x24 }
  - { offset: 0x939B4, size: 0x8, addend: 0x0, symName: '__ZN4core3ptr133drop_in_place$LT$std..collections..hash..map..VacantEntry$LT$alloc..string..String$C$$LP$alloc..vec..Vec$LT$f32$GT$$C$f32$RP$$GT$$GT$17h8556a38a52c30b0aE', symObjAddr: 0x1FE0, symBinAddr: 0x23F54, symSize: 0x24 }
  - { offset: 0x939E3, size: 0x8, addend: 0x0, symName: '__ZN4core3ptr134drop_in_place$LT$rayon..iter..extend..ListVecFolder$LT$std..collections..hash..map..HashMap$LT$alloc..string..String$C$f32$GT$$GT$$GT$17hd9929dbc31080ffaE', symObjAddr: 0x2028, symBinAddr: 0x23F78, symSize: 0x24 }
  - { offset: 0x93A12, size: 0x8, addend: 0x0, symName: '__ZN4core3ptr135drop_in_place$LT$hashbrown..map..IntoIter$LT$alloc..string..String$C$alloc..vec..Vec$LT$$LP$alloc..string..String$C$f32$RP$$GT$$GT$$GT$17he55da048e9732c73E', symObjAddr: 0x204C, symBinAddr: 0x23F9C, symSize: 0x24 }
  - { offset: 0x93A41, size: 0x8, addend: 0x0, symName: '__ZN4core3ptr143drop_in_place$LT$hashbrown..raw..RawTable$LT$$LP$alloc..string..String$C$alloc..vec..Vec$LT$$LP$alloc..string..String$C$f32$RP$$GT$$RP$$GT$$GT$17h7979d4ff2cd5eaa8E', symObjAddr: 0x2070, symBinAddr: 0x23FC0, symSize: 0x24 }
  - { offset: 0x93A70, size: 0x8, addend: 0x0, symName: '__ZN4core3ptr145drop_in_place$LT$rayon..iter..collect..consumer..CollectResult$LT$std..collections..hash..map..HashMap$LT$alloc..string..String$C$f32$GT$$GT$$GT$17h113c0dc2b3bdccbdE', symObjAddr: 0x2094, symBinAddr: 0x23FE4, symSize: 0x24 }
  - { offset: 0x93A9F, size: 0x8, addend: 0x0, symName: '__ZN4core3ptr146drop_in_place$LT$hashbrown..raw..RawIntoIter$LT$$LP$alloc..string..String$C$alloc..vec..Vec$LT$$LP$alloc..string..String$C$f32$RP$$GT$$RP$$GT$$GT$17h4606db8bebd521c8E', symObjAddr: 0x20B8, symBinAddr: 0x24008, symSize: 0x24 }
  - { offset: 0x93ACE, size: 0x8, addend: 0x0, symName: '__ZN4core3ptr147drop_in_place$LT$std..collections..hash..map..HashMap$LT$alloc..string..String$C$alloc..vec..Vec$LT$$LP$alloc..string..String$C$f32$RP$$GT$$GT$$GT$17hf31f1ba5551a0545E', symObjAddr: 0x20DC, symBinAddr: 0x2402C, symSize: 0x24 }
  - { offset: 0x93AFD, size: 0x8, addend: 0x0, symName: '__ZN4core3ptr148drop_in_place$LT$std..collections..hash..map..IntoIter$LT$alloc..string..String$C$alloc..vec..Vec$LT$$LP$alloc..string..String$C$f32$RP$$GT$$GT$$GT$17h87afe42c6911c539E', symObjAddr: 0x2100, symBinAddr: 0x24050, symSize: 0x24 }
  - { offset: 0x93B2C, size: 0x8, addend: 0x0, symName: '__ZN4core3ptr149drop_in_place$LT$hashbrown..map..HashMap$LT$alloc..string..String$C$$LP$alloc..vec..Vec$LT$f32$GT$$C$f32$RP$$C$std..hash..random..RandomState$GT$$GT$17h8b47e00ebabb0b4aE', symObjAddr: 0x2124, symBinAddr: 0x24074, symSize: 0x24 }
  - { offset: 0x93B5B, size: 0x8, addend: 0x0, symName: '__ZN4core3ptr153drop_in_place$LT$hashbrown..raw..RawTable$LT$$LP$alloc..string..String$C$alloc..vec..Vec$LT$neuralvault_rs..causal_engine..RustCausalEdge$GT$$RP$$GT$$GT$17hadbd264d961195c6E', symObjAddr: 0x2148, symBinAddr: 0x24098, symSize: 0x24 }
  - { offset: 0x93B8A, size: 0x8, addend: 0x0, symName: '__ZN4core3ptr156drop_in_place$LT$$LT$alloc..vec..into_iter..IntoIter$LT$T$C$A$GT$$u20$as$u20$core..ops..drop..Drop$GT$..drop..DropGuard$LT$u8$C$alloc..alloc..Global$GT$$GT$17h31228af97e3db7b8E', symObjAddr: 0x216C, symBinAddr: 0x240BC, symSize: 0x24 }
  - { offset: 0x93BB9, size: 0x8, addend: 0x0, symName: '__ZN4core3ptr156drop_in_place$LT$alloc..vec..in_place_drop..InPlaceDstDataSrcBufDrop$LT$$LP$ordered_float..OrderedFloat$LT$f32$GT$$C$usize$RP$$C$$LP$usize$C$f32$RP$$GT$$GT$17h754396700cab62efE', symObjAddr: 0x2190, symBinAddr: 0x240E0, symSize: 0x24 }
  - { offset: 0x93BE8, size: 0x8, addend: 0x0, symName: '__ZN4core3ptr157drop_in_place$LT$$LT$alloc..vec..into_iter..IntoIter$LT$T$C$A$GT$$u20$as$u20$core..ops..drop..Drop$GT$..drop..DropGuard$LT$u32$C$alloc..alloc..Global$GT$$GT$17h639625228bbdb1d2E', symObjAddr: 0x21B4, symBinAddr: 0x24104, symSize: 0x24 }
  - { offset: 0x93C17, size: 0x8, addend: 0x0, symName: '__ZN4core3ptr157drop_in_place$LT$std..collections..hash..map..HashMap$LT$alloc..string..String$C$alloc..vec..Vec$LT$neuralvault_rs..causal_engine..RustCausalEdge$GT$$GT$$GT$17ha2c84f39b8fc66fbE', symObjAddr: 0x21D8, symBinAddr: 0x24128, symSize: 0x24 }
  - { offset: 0x93C46, size: 0x8, addend: 0x0, symName: '__ZN4core3ptr160drop_in_place$LT$alloc..collections..linked_list..Node$LT$alloc..vec..Vec$LT$std..collections..hash..map..HashMap$LT$alloc..string..String$C$f32$GT$$GT$$GT$$GT$17he8a3945f60c75e56E', symObjAddr: 0x21FC, symBinAddr: 0x2414C, symSize: 0x24 }
  - { offset: 0x93C75, size: 0x8, addend: 0x0, symName: '__ZN4core3ptr163drop_in_place$LT$alloc..vec..in_place_drop..InPlaceDstDataSrcBufDrop$LT$$LP$alloc..string..String$C$f32$RP$$C$neuralvault_rs..causal_engine..RustCausalEdge$GT$$GT$17he02aeceb66979cfeE', symObjAddr: 0x2220, symBinAddr: 0x24170, symSize: 0x24 }
  - { offset: 0x93CA4, size: 0x8, addend: 0x0, symName: '__ZN4core3ptr164drop_in_place$LT$alloc..collections..linked_list..IntoIter$LT$alloc..vec..Vec$LT$std..collections..hash..map..HashMap$LT$alloc..string..String$C$f32$GT$$GT$$GT$$GT$17h324c43e2486c20edE', symObjAddr: 0x2244, symBinAddr: 0x24194, symSize: 0x24 }
  - { offset: 0x93CD3, size: 0x8, addend: 0x0, symName: '__ZN4core3ptr165drop_in_place$LT$core..iter..adapters..enumerate..Enumerate$LT$core..array..iter..IntoIter$LT$pyo3..instance..Py$LT$pyo3..types..any..PyAny$GT$$C$3_usize$GT$$GT$$GT$17h57ba2583d5973ec6E', symObjAddr: 0x2268, symBinAddr: 0x241B8, symSize: 0x24 }
  - { offset: 0x93D02, size: 0x8, addend: 0x0, symName: '__ZN4core3ptr166drop_in_place$LT$alloc..collections..linked_list..LinkedList$LT$alloc..vec..Vec$LT$std..collections..hash..map..HashMap$LT$alloc..string..String$C$f32$GT$$GT$$GT$$GT$17h2c71a90f80ef68a1E', symObjAddr: 0x228C, symBinAddr: 0x241DC, symSize: 0x24 }
  - { offset: 0x93D31, size: 0x8, addend: 0x0, symName: '__ZN4core3ptr167drop_in_place$LT$core..iter..adapters..enumerate..Enumerate$LT$core..iter..adapters..take..Take$LT$alloc..vec..into_iter..IntoIter$LT$$LP$u32$C$f32$RP$$GT$$GT$$GT$$GT$17hc3857932b68efeb8E', symObjAddr: 0x22B0, symBinAddr: 0x24200, symSize: 0x24 }
  - { offset: 0x93D60, size: 0x8, addend: 0x0, symName: '__ZN4core3ptr167drop_in_place$LT$hashbrown..map..HashMap$LT$alloc..string..String$C$alloc..vec..Vec$LT$$LP$alloc..string..String$C$f32$RP$$GT$$C$std..hash..random..RandomState$GT$$GT$17h457885f56d5d4591E', symObjAddr: 0x22D4, symBinAddr: 0x24224, symSize: 0x24 }
  - { offset: 0x93D8F, size: 0x8, addend: 0x0, symName: '__ZN4core3ptr171drop_in_place$LT$$LT$alloc..vec..into_iter..IntoIter$LT$T$C$A$GT$$u20$as$u20$core..ops..drop..Drop$GT$..drop..DropGuard$LT$$LP$u32$C$f32$RP$$C$alloc..alloc..Global$GT$$GT$17h99b83ada8c6adc9aE', symObjAddr: 0x22F8, symBinAddr: 0x24248, symSize: 0x24 }
  - { offset: 0x93DBE, size: 0x8, addend: 0x0, symName: '__ZN4core3ptr1739drop_in_place$LT$rayon_core..job..StackJob$LT$rayon_core..latch..SpinLatch$C$rayon_core..registry..Registry..in_worker_cross$LT$rayon_core..join..join_context$LT$rayon..iter..plumbing..bridge_producer_consumer..helper$LT$rayon..range..IterProducer$LT$usize$GT$$C$rayon..iter..map..MapConsumer$LT$rayon..iter..extend..ListVecConsumer$C$neuralvault_rs..causal_engine..run_stochastic_simulation_rs..$u7b$$u7b$closure$u7d$$u7d$$GT$$GT$..$u7b$$u7b$closure$u7d$$u7d$$C$rayon..iter..plumbing..bridge_producer_consumer..helper$LT$rayon..range..IterProducer$LT$usize$GT$$C$rayon..iter..map..MapConsumer$LT$rayon..iter..extend..ListVecConsumer$C$neuralvault_rs..causal_engine..run_stochastic_simulation_rs..$u7b$$u7b$closure$u7d$$u7d$$GT$$GT$..$u7b$$u7b$closure$u7d$$u7d$$C$alloc..collections..linked_list..LinkedList$LT$alloc..vec..Vec$LT$std..collections..hash..map..HashMap$LT$alloc..string..String$C$f32$GT$$GT$$GT$$C$alloc..collections..linked_list..LinkedList$LT$alloc..vec..Vec$LT$std..collections..hash..map..HashMap$LT$alloc..string..String$C$f32$GT$$GT$$GT$$GT$..$u7b$$u7b$closure$u7d$$u7d$$C$$LP$alloc..collections..linked_list..LinkedList$LT$alloc..vec..Vec$LT$std..collections..hash..map..HashMap$LT$alloc..string..String$C$f32$GT$$GT$$GT$$C$alloc..collections..linked_list..LinkedList$LT$alloc..vec..Vec$LT$std..collections..hash..map..HashMap$LT$alloc..string..String$C$f32$GT$$GT$$GT$$RP$$GT$..$u7b$$u7b$closure$u7d$$u7d$$C$$LP$alloc..collections..linked_list..LinkedList$LT$alloc..vec..Vec$LT$std..collections..hash..map..HashMap$LT$alloc..string..String$C$f32$GT$$GT$$GT$$C$alloc..collections..linked_list..LinkedList$LT$alloc..vec..Vec$LT$std..collections..hash..map..HashMap$LT$alloc..string..String$C$f32$GT$$GT$$GT$$RP$$GT$$GT$17hdcf8d994fb291a9cE', symObjAddr: 0x231C, symBinAddr: 0x2426C, symSize: 0x24 }
  - { offset: 0x93DED, size: 0x8, addend: 0x0, symName: '__ZN4core3ptr173drop_in_place$LT$$LT$alloc..vec..into_iter..IntoIter$LT$T$C$A$GT$$u20$as$u20$core..ops..drop..Drop$GT$..drop..DropGuard$LT$$LP$usize$C$f32$RP$$C$alloc..alloc..Global$GT$$GT$17he67ca867dfc9d987E', symObjAddr: 0x2340, symBinAddr: 0x24290, symSize: 0x24 }
  - { offset: 0x93E1C, size: 0x8, addend: 0x0, symName: '__ZN4core3ptr177drop_in_place$LT$hashbrown..map..HashMap$LT$alloc..string..String$C$alloc..vec..Vec$LT$neuralvault_rs..causal_engine..RustCausalEdge$GT$$C$std..hash..random..RandomState$GT$$GT$17hb54995bded1e9f23E', symObjAddr: 0x2364, symBinAddr: 0x242B4, symSize: 0x24 }
  - { offset: 0x93E4B, size: 0x8, addend: 0x0, symName: '__ZN4core3ptr1793drop_in_place$LT$rayon_core..job..StackJob$LT$rayon_core..latch..SpinLatch$C$rayon_core..registry..Registry..in_worker_cross$LT$rayon_core..join..join_context$LT$rayon..iter..plumbing..bridge_producer_consumer..helper$LT$rayon..range..IterProducer$LT$usize$GT$$C$rayon..iter..map..MapConsumer$LT$rayon..iter..collect..consumer..CollectConsumer$LT$std..collections..hash..map..HashMap$LT$alloc..string..String$C$f32$GT$$GT$$C$neuralvault_rs..causal_engine..run_stochastic_simulation_rs..$u7b$$u7b$closure$u7d$$u7d$$GT$$GT$..$u7b$$u7b$closure$u7d$$u7d$$C$rayon..iter..plumbing..bridge_producer_consumer..helper$LT$rayon..range..IterProducer$LT$usize$GT$$C$rayon..iter..map..MapConsumer$LT$rayon..iter..collect..consumer..CollectConsumer$LT$std..collections..hash..map..HashMap$LT$alloc..string..String$C$f32$GT$$GT$$C$neuralvault_rs..causal_engine..run_stochastic_simulation_rs..$u7b$$u7b$closure$u7d$$u7d$$GT$$GT$..$u7b$$u7b$closure$u7d$$u7d$$C$rayon..iter..collect..consumer..CollectResult$LT$std..collections..hash..map..HashMap$LT$alloc..string..String$C$f32$GT$$GT$$C$rayon..iter..collect..consumer..CollectResult$LT$std..collections..hash..map..HashMap$LT$alloc..string..String$C$f32$GT$$GT$$GT$..$u7b$$u7b$closure$u7d$$u7d$$C$$LP$rayon..iter..collect..consumer..CollectResult$LT$std..collections..hash..map..HashMap$LT$alloc..string..String$C$f32$GT$$GT$$C$rayon..iter..collect..consumer..CollectResult$LT$std..collections..hash..map..HashMap$LT$alloc..string..String$C$f32$GT$$GT$$RP$$GT$..$u7b$$u7b$closure$u7d$$u7d$$C$$LP$rayon..iter..collect..consumer..CollectResult$LT$std..collections..hash..map..HashMap$LT$alloc..string..String$C$f32$GT$$GT$$C$rayon..iter..collect..consumer..CollectResult$LT$std..collections..hash..map..HashMap$LT$alloc..string..String$C$f32$GT$$GT$$RP$$GT$$GT$17he4b0a6761566c9daE', symObjAddr: 0x2388, symBinAddr: 0x242D8, symSize: 0x24 }
  - { offset: 0x93E7A, size: 0x8, addend: 0x0, symName: '__ZN4core3ptr179drop_in_place$LT$rayon_core..job..JobResult$LT$rayon..iter..collect..consumer..CollectResult$LT$std..collections..hash..map..HashMap$LT$alloc..string..String$C$f32$GT$$GT$$GT$$GT$17h555501254ac9788aE', symObjAddr: 0x23AC, symBinAddr: 0x242FC, symSize: 0x64 }
  - { offset: 0x93EA9, size: 0x8, addend: 0x0, symName: '__ZN4core3ptr1802drop_in_place$LT$rayon_core..job..StackJob$LT$rayon_core..latch..LatchRef$LT$rayon_core..latch..LockLatch$GT$$C$rayon_core..registry..Registry..in_worker_cold$LT$rayon_core..join..join_context$LT$rayon..iter..plumbing..bridge_producer_consumer..helper$LT$rayon..range..IterProducer$LT$usize$GT$$C$rayon..iter..map..MapConsumer$LT$rayon..iter..extend..ListVecConsumer$C$neuralvault_rs..causal_engine..run_stochastic_simulation_rs..$u7b$$u7b$closure$u7d$$u7d$$GT$$GT$..$u7b$$u7b$closure$u7d$$u7d$$C$rayon..iter..plumbing..bridge_producer_consumer..helper$LT$rayon..range..IterProducer$LT$usize$GT$$C$rayon..iter..map..MapConsumer$LT$rayon..iter..extend..ListVecConsumer$C$neuralvault_rs..causal_engine..run_stochastic_simulation_rs..$u7b$$u7b$closure$u7d$$u7d$$GT$$GT$..$u7b$$u7b$closure$u7d$$u7d$$C$alloc..collections..linked_list..LinkedList$LT$alloc..vec..Vec$LT$std..collections..hash..map..HashMap$LT$alloc..string..String$C$f32$GT$$GT$$GT$$C$alloc..collections..linked_list..LinkedList$LT$alloc..vec..Vec$LT$std..collections..hash..map..HashMap$LT$alloc..string..String$C$f32$GT$$GT$$GT$$GT$..$u7b$$u7b$closure$u7d$$u7d$$C$$LP$alloc..collections..linked_list..LinkedList$LT$alloc..vec..Vec$LT$std..collections..hash..map..HashMap$LT$alloc..string..String$C$f32$GT$$GT$$GT$$C$alloc..collections..linked_list..LinkedList$LT$alloc..vec..Vec$LT$std..collections..hash..map..HashMap$LT$alloc..string..String$C$f32$GT$$GT$$GT$$RP$$GT$..$u7b$$u7b$closure$u7d$$u7d$..$u7b$$u7b$closure$u7d$$u7d$$C$$LP$alloc..collections..linked_list..LinkedList$LT$alloc..vec..Vec$LT$std..collections..hash..map..HashMap$LT$alloc..string..String$C$f32$GT$$GT$$GT$$C$alloc..collections..linked_list..LinkedList$LT$alloc..vec..Vec$LT$std..collections..hash..map..HashMap$LT$alloc..string..String$C$f32$GT$$GT$$GT$$RP$$GT$$GT$17h38e1505d64ca217aE', symObjAddr: 0x2410, symBinAddr: 0x24360, symSize: 0x24 }
  - { offset: 0x93ED8, size: 0x8, addend: 0x0, symName: '__ZN4core3ptr1856drop_in_place$LT$rayon_core..job..StackJob$LT$rayon_core..latch..LatchRef$LT$rayon_core..latch..LockLatch$GT$$C$rayon_core..registry..Registry..in_worker_cold$LT$rayon_core..join..join_context$LT$rayon..iter..plumbing..bridge_producer_consumer..helper$LT$rayon..range..IterProducer$LT$usize$GT$$C$rayon..iter..map..MapConsumer$LT$rayon..iter..collect..consumer..CollectConsumer$LT$std..collections..hash..map..HashMap$LT$alloc..string..String$C$f32$GT$$GT$$C$neuralvault_rs..causal_engine..run_stochastic_simulation_rs..$u7b$$u7b$closure$u7d$$u7d$$GT$$GT$..$u7b$$u7b$closure$u7d$$u7d$$C$rayon..iter..plumbing..bridge_producer_consumer..helper$LT$rayon..range..IterProducer$LT$usize$GT$$C$rayon..iter..map..MapConsumer$LT$rayon..iter..collect..consumer..CollectConsumer$LT$std..collections..hash..map..HashMap$LT$alloc..string..String$C$f32$GT$$GT$$C$neuralvault_rs..causal_engine..run_stochastic_simulation_rs..$u7b$$u7b$closure$u7d$$u7d$$GT$$GT$..$u7b$$u7b$closure$u7d$$u7d$$C$rayon..iter..collect..consumer..CollectResult$LT$std..collections..hash..map..HashMap$LT$alloc..string..String$C$f32$GT$$GT$$C$rayon..iter..collect..consumer..CollectResult$LT$std..collections..hash..map..HashMap$LT$alloc..string..String$C$f32$GT$$GT$$GT$..$u7b$$u7b$closure$u7d$$u7d$$C$$LP$rayon..iter..collect..consumer..CollectResult$LT$std..collections..hash..map..HashMap$LT$alloc..string..String$C$f32$GT$$GT$$C$rayon..iter..collect..consumer..CollectResult$LT$std..collections..hash..map..HashMap$LT$alloc..string..String$C$f32$GT$$GT$$RP$$GT$..$u7b$$u7b$closure$u7d$$u7d$..$u7b$$u7b$closure$u7d$$u7d$$C$$LP$rayon..iter..collect..consumer..CollectResult$LT$std..collections..hash..map..HashMap$LT$alloc..string..String$C$f32$GT$$GT$$C$rayon..iter..collect..consumer..CollectResult$LT$std..collections..hash..map..HashMap$LT$alloc..string..String$C$f32$GT$$GT$$RP$$GT$$GT$17h30debd83c372e5f9E', symObjAddr: 0x2434, symBinAddr: 0x24384, symSize: 0x24 }
  - { offset: 0x93F07, size: 0x8, addend: 0x0, symName: '__ZN4core3ptr189drop_in_place$LT$$LT$alloc..vec..into_iter..IntoIter$LT$T$C$A$GT$$u20$as$u20$core..ops..drop..Drop$GT$..drop..DropGuard$LT$$LP$alloc..string..String$C$f32$RP$$C$alloc..alloc..Global$GT$$GT$17h8173b1b1a4cd6c47E', symObjAddr: 0x2458, symBinAddr: 0x243A8, symSize: 0x24 }
  - { offset: 0x93F36, size: 0x8, addend: 0x0, symName: '__ZN4core3ptr189drop_in_place$LT$core..array..iter..iter_inner..PolymorphicIter$LT$$u5b$core..mem..maybe_uninit..MaybeUninit$LT$pyo3..instance..Py$LT$pyo3..types..any..PyAny$GT$$GT$$u3b$$u20$3$u5d$$GT$$GT$17h71569291a41c27b8E', symObjAddr: 0x247C, symBinAddr: 0x243CC, symSize: 0x24 }
  - { offset: 0x93F65, size: 0x8, addend: 0x0, symName: '__ZN4core3ptr190drop_in_place$LT$core..iter..adapters..map..Map$LT$alloc..vec..into_iter..IntoIter$LT$u32$GT$$C$neuralvault_rs..hnsw_core..HNSWCore..shrink_neighbor_list..$u7b$$u7b$closure$u7d$$u7d$$GT$$GT$17ha93f6e018f7a2450E', symObjAddr: 0x24A0, symBinAddr: 0x243F0, symSize: 0x24 }
  - { offset: 0x93F94, size: 0x8, addend: 0x0, symName: '__ZN4core3ptr200drop_in_place$LT$rayon_core..job..JobResult$LT$alloc..collections..linked_list..LinkedList$LT$alloc..vec..Vec$LT$std..collections..hash..map..HashMap$LT$alloc..string..String$C$f32$GT$$GT$$GT$$GT$$GT$17h501d73db8ab6d872E', symObjAddr: 0x24C4, symBinAddr: 0x24414, symSize: 0x64 }
  - { offset: 0x93FC3, size: 0x8, addend: 0x0, symName: '__ZN4core3ptr207drop_in_place$LT$$LT$alloc..vec..into_iter..IntoIter$LT$T$C$A$GT$$u20$as$u20$core..ops..drop..Drop$GT$..drop..DropGuard$LT$$LP$alloc..string..String$C$alloc..string..String$RP$$C$alloc..alloc..Global$GT$$GT$17hd1cac1c6865255d9E', symObjAddr: 0x2528, symBinAddr: 0x24478, symSize: 0x24 }
  - { offset: 0x93FF2, size: 0x8, addend: 0x0, symName: '__ZN4core3ptr208drop_in_place$LT$$LT$alloc..vec..into_iter..IntoIter$LT$T$C$A$GT$$u20$as$u20$core..ops..drop..Drop$GT$..drop..DropGuard$LT$$LP$ordered_float..OrderedFloat$LT$f32$GT$$C$usize$RP$$C$alloc..alloc..Global$GT$$GT$17h9574776aad63aa39E', symObjAddr: 0x254C, symBinAddr: 0x2449C, symSize: 0x24 }
  - { offset: 0x94021, size: 0x8, addend: 0x0, symName: '__ZN4core3ptr209drop_in_place$LT$core..cell..UnsafeCell$LT$rayon_core..job..JobResult$LT$rayon..iter..collect..consumer..CollectResult$LT$std..collections..hash..map..HashMap$LT$alloc..string..String$C$f32$GT$$GT$$GT$$GT$$GT$17ha7f93623d6bd8512E', symObjAddr: 0x2570, symBinAddr: 0x244C0, symSize: 0x24 }
  - { offset: 0x94050, size: 0x8, addend: 0x0, symName: '__ZN4core3ptr212drop_in_place$LT$alloc..boxed..Box$LT$alloc..collections..linked_list..Node$LT$alloc..vec..Vec$LT$std..collections..hash..map..HashMap$LT$alloc..string..String$C$f32$GT$$GT$$GT$$C$$RF$alloc..alloc..Global$GT$$GT$17h41666004855254e9E', symObjAddr: 0x2594, symBinAddr: 0x244E4, symSize: 0x60 }
  - { offset: 0x9407F, size: 0x8, addend: 0x0, symName: '__ZN4core3ptr219drop_in_place$LT$core..iter..adapters..map..Map$LT$core..iter..adapters..take..Take$LT$alloc..vec..into_iter..IntoIter$LT$$LP$usize$C$f32$RP$$GT$$GT$$C$neuralvault_rs..PyHNSW..search..$u7b$$u7b$closure$u7d$$u7d$$GT$$GT$17h3fb53ac468682d64E', symObjAddr: 0x25F4, symBinAddr: 0x24544, symSize: 0x24 }
  - { offset: 0x940AE, size: 0x8, addend: 0x0, symName: '__ZN4core3ptr225drop_in_place$LT$$LT$alloc..vec..into_iter..IntoIter$LT$T$C$A$GT$$u20$as$u20$core..ops..drop..Drop$GT$..drop..DropGuard$LT$std..collections..hash..map..HashMap$LT$alloc..string..String$C$f32$GT$$C$alloc..alloc..Global$GT$$GT$17h1a5fa43a923c60a3E', symObjAddr: 0x2618, symBinAddr: 0x24568, symSize: 0x24 }
  - { offset: 0x940DD, size: 0x8, addend: 0x0, symName: '__ZN4core3ptr230drop_in_place$LT$core..cell..UnsafeCell$LT$rayon_core..job..JobResult$LT$alloc..collections..linked_list..LinkedList$LT$alloc..vec..Vec$LT$std..collections..hash..map..HashMap$LT$alloc..string..String$C$f32$GT$$GT$$GT$$GT$$GT$$GT$17h64d74dfcbae080afE', symObjAddr: 0x263C, symBinAddr: 0x2458C, symSize: 0x24 }
  - { offset: 0x9410C, size: 0x8, addend: 0x0, symName: '__ZN4core3ptr240drop_in_place$LT$core..option..Option$LT$alloc..boxed..Box$LT$alloc..collections..linked_list..Node$LT$alloc..vec..Vec$LT$std..collections..hash..map..HashMap$LT$alloc..string..String$C$f32$GT$$GT$$GT$$C$$RF$alloc..alloc..Global$GT$$GT$$GT$17hc6dc2a1c4e412f7aE', symObjAddr: 0x2660, symBinAddr: 0x245B0, symSize: 0x44 }
  - { offset: 0x9413B, size: 0x8, addend: 0x0, symName: '__ZN4core3ptr243drop_in_place$LT$core..iter..adapters..map..Map$LT$alloc..collections..binary_heap..IntoIter$LT$$LP$ordered_float..OrderedFloat$LT$f32$GT$$C$usize$RP$$GT$$C$neuralvault_rs..hnsw_core..HNSWCore..search_layer..$u7b$$u7b$closure$u7d$$u7d$$GT$$GT$17h488bd69366a094c0E', symObjAddr: 0x26A4, symBinAddr: 0x245F4, symSize: 0x24 }
  - { offset: 0x9416A, size: 0x8, addend: 0x0, symName: '__ZN4core3ptr253drop_in_place$LT$core..iter..adapters..map..Map$LT$alloc..vec..into_iter..IntoIter$LT$$LP$alloc..string..String$C$f32$RP$$GT$$C$neuralvault_rs..causal_engine..run_stochastic_simulation_rs..$u7b$$u7b$closure$u7d$$u7d$..$u7b$$u7b$closure$u7d$$u7d$$GT$$GT$17haf4656179ee145c5E', symObjAddr: 0x26C8, symBinAddr: 0x24618, symSize: 0x24 }
  - { offset: 0x94199, size: 0x8, addend: 0x0, symName: '__ZN4core3ptr260drop_in_place$LT$$LT$alloc..collections..linked_list..LinkedList$LT$T$C$A$GT$$u20$as$u20$core..ops..drop..Drop$GT$..drop..DropGuard$LT$alloc..vec..Vec$LT$std..collections..hash..map..HashMap$LT$alloc..string..String$C$f32$GT$$GT$$C$alloc..alloc..Global$GT$$GT$17h4ef586231810a7c1E', symObjAddr: 0x26EC, symBinAddr: 0x2463C, symSize: 0x24 }
  - { offset: 0x941C8, size: 0x8, addend: 0x0, symName: '__ZN4core3ptr260drop_in_place$LT$rayon..iter..map..MapFolder$LT$rayon..iter..extend..ListVecFolder$LT$std..collections..hash..map..HashMap$LT$alloc..string..String$C$f32$GT$$GT$$C$neuralvault_rs..causal_engine..run_stochastic_simulation_rs..$u7b$$u7b$closure$u7d$$u7d$$GT$$GT$17h039999678c836b97E', symObjAddr: 0x2710, symBinAddr: 0x24660, symSize: 0x24 }
  - { offset: 0x941F7, size: 0x8, addend: 0x0, symName: '__ZN4core3ptr271drop_in_place$LT$rayon..iter..map..MapFolder$LT$rayon..iter..collect..consumer..CollectResult$LT$std..collections..hash..map..HashMap$LT$alloc..string..String$C$f32$GT$$GT$$C$neuralvault_rs..causal_engine..run_stochastic_simulation_rs..$u7b$$u7b$closure$u7d$$u7d$$GT$$GT$17hcd3d65245648bf8cE', symObjAddr: 0x2734, symBinAddr: 0x24684, symSize: 0x24 }
  - { offset: 0x94226, size: 0x8, addend: 0x0, symName: '__ZN4core3ptr277drop_in_place$LT$core..iter..adapters..map..Map$LT$std..collections..hash..map..IntoIter$LT$alloc..string..String$C$alloc..vec..Vec$LT$$LP$alloc..string..String$C$f32$RP$$GT$$GT$$C$neuralvault_rs..causal_engine..run_stochastic_simulation_rs..$u7b$$u7b$closure$u7d$$u7d$$GT$$GT$17he134cbd320d2c518E', symObjAddr: 0x2758, symBinAddr: 0x246A8, symSize: 0x24 }
  - { offset: 0x94255, size: 0x8, addend: 0x0, symName: '__ZN4core3ptr280drop_in_place$LT$$LP$rayon..iter..collect..consumer..CollectResult$LT$std..collections..hash..map..HashMap$LT$alloc..string..String$C$f32$GT$$GT$$C$rayon..iter..collect..consumer..CollectResult$LT$std..collections..hash..map..HashMap$LT$alloc..string..String$C$f32$GT$$GT$$RP$$GT$17h2fc85f8a6b1dddaeE', symObjAddr: 0x277C, symBinAddr: 0x246CC, symSize: 0x60 }
  - { offset: 0x94284, size: 0x8, addend: 0x0, symName: '__ZN4core3ptr283drop_in_place$LT$alloc..vec..Vec$LT$$LP$u32$C$f32$RP$$GT$..extend_trusted$LT$core..iter..adapters..map..Map$LT$alloc..vec..into_iter..IntoIter$LT$u32$GT$$C$neuralvault_rs..hnsw_core..HNSWCore..shrink_neighbor_list..$u7b$$u7b$closure$u7d$$u7d$$GT$$GT$..$u7b$$u7b$closure$u7d$$u7d$$GT$17ha898808fde7aef4bE', symObjAddr: 0x27DC, symBinAddr: 0x2472C, symSize: 0x24 }
  - { offset: 0x942B3, size: 0x8, addend: 0x0, symName: '__ZN4core3ptr306drop_in_place$LT$core..iter..adapters..map..Map$LT$alloc..vec..into_iter..IntoIter$LT$u8$GT$$C$pyo3..conversions..std..vec..$LT$impl$u20$pyo3..conversion..IntoPy$LT$pyo3..instance..Py$LT$pyo3..types..any..PyAny$GT$$GT$$u20$for$u20$alloc..vec..Vec$LT$u8$GT$$GT$..into_py..$u7b$$u7b$closure$u7d$$u7d$$GT$$GT$17h644dc5b9b9ead176E', symObjAddr: 0x2800, symBinAddr: 0x24750, symSize: 0x24 }
  - { offset: 0x942E2, size: 0x8, addend: 0x0, symName: '__ZN4core3ptr314drop_in_place$LT$rayon_core..job..JobResult$LT$$LP$rayon..iter..collect..consumer..CollectResult$LT$std..collections..hash..map..HashMap$LT$alloc..string..String$C$f32$GT$$GT$$C$rayon..iter..collect..consumer..CollectResult$LT$std..collections..hash..map..HashMap$LT$alloc..string..String$C$f32$GT$$GT$$RP$$GT$$GT$17hbc90b8f94c675c63E', symObjAddr: 0x2824, symBinAddr: 0x24774, symSize: 0x64 }
  - { offset: 0x94311, size: 0x8, addend: 0x0, symName: '__ZN4core3ptr322drop_in_place$LT$$LP$alloc..collections..linked_list..LinkedList$LT$alloc..vec..Vec$LT$std..collections..hash..map..HashMap$LT$alloc..string..String$C$f32$GT$$GT$$GT$$C$alloc..collections..linked_list..LinkedList$LT$alloc..vec..Vec$LT$std..collections..hash..map..HashMap$LT$alloc..string..String$C$f32$GT$$GT$$GT$$RP$$GT$17hfc37031e92d363b9E', symObjAddr: 0x2888, symBinAddr: 0x247D8, symSize: 0x60 }
  - { offset: 0x94340, size: 0x8, addend: 0x0, symName: '__ZN4core3ptr330drop_in_place$LT$alloc..vec..Vec$LT$$LP$alloc..string..String$C$f32$RP$$GT$..extend_trusted$LT$core..iter..adapters..map..Map$LT$core..iter..adapters..take..Take$LT$alloc..vec..into_iter..IntoIter$LT$$LP$usize$C$f32$RP$$GT$$GT$$C$neuralvault_rs..PyHNSW..search..$u7b$$u7b$closure$u7d$$u7d$$GT$$GT$..$u7b$$u7b$closure$u7d$$u7d$$GT$17had70af429ef52b58E', symObjAddr: 0x28E8, symBinAddr: 0x24838, symSize: 0x24 }
  - { offset: 0x9436F, size: 0x8, addend: 0x0, symName: '__ZN4core3ptr337drop_in_place$LT$alloc..vec..Vec$LT$std..collections..hash..map..HashMap$LT$alloc..string..String$C$f32$GT$$GT$..extend_trusted$LT$core..iter..adapters..map..Map$LT$core..ops..range..Range$LT$usize$GT$$C$$RF$neuralvault_rs..causal_engine..run_stochastic_simulation_rs..$u7b$$u7b$closure$u7d$$u7d$$GT$$GT$..$u7b$$u7b$closure$u7d$$u7d$$GT$17h11310edc780c661fE', symObjAddr: 0x290C, symBinAddr: 0x2485C, symSize: 0x24 }
  - { offset: 0x9439E, size: 0x8, addend: 0x0, symName: '__ZN4core3ptr344drop_in_place$LT$core..cell..UnsafeCell$LT$rayon_core..job..JobResult$LT$$LP$rayon..iter..collect..consumer..CollectResult$LT$std..collections..hash..map..HashMap$LT$alloc..string..String$C$f32$GT$$GT$$C$rayon..iter..collect..consumer..CollectResult$LT$std..collections..hash..map..HashMap$LT$alloc..string..String$C$f32$GT$$GT$$RP$$GT$$GT$$GT$17hb1d32390bd01c75aE', symObjAddr: 0x2930, symBinAddr: 0x24880, symSize: 0x24 }
  - { offset: 0x943CD, size: 0x8, addend: 0x0, symName: '__ZN4core3ptr356drop_in_place$LT$rayon_core..job..JobResult$LT$$LP$alloc..collections..linked_list..LinkedList$LT$alloc..vec..Vec$LT$std..collections..hash..map..HashMap$LT$alloc..string..String$C$f32$GT$$GT$$GT$$C$alloc..collections..linked_list..LinkedList$LT$alloc..vec..Vec$LT$std..collections..hash..map..HashMap$LT$alloc..string..String$C$f32$GT$$GT$$GT$$RP$$GT$$GT$17h13c39f41c9c7e95aE', symObjAddr: 0x2954, symBinAddr: 0x248A4, symSize: 0x64 }
  - { offset: 0x943FC, size: 0x8, addend: 0x0, symName: '__ZN4core3ptr372drop_in_place$LT$core..iter..adapters..map..Map$LT$alloc..vec..into_iter..IntoIter$LT$$LP$alloc..string..String$C$f32$RP$$GT$$C$pyo3..conversions..std..vec..$LT$impl$u20$pyo3..conversion..IntoPy$LT$pyo3..instance..Py$LT$pyo3..types..any..PyAny$GT$$GT$$u20$for$u20$alloc..vec..Vec$LT$$LP$alloc..string..String$C$f32$RP$$GT$$GT$..into_py..$u7b$$u7b$closure$u7d$$u7d$$GT$$GT$17h1adf9f2db5d05a5aE', symObjAddr: 0x29B8, symBinAddr: 0x24908, symSize: 0x24 }
  - { offset: 0x9442B, size: 0x8, addend: 0x0, symName: '__ZN4core3ptr386drop_in_place$LT$core..cell..UnsafeCell$LT$rayon_core..job..JobResult$LT$$LP$alloc..collections..linked_list..LinkedList$LT$alloc..vec..Vec$LT$std..collections..hash..map..HashMap$LT$alloc..string..String$C$f32$GT$$GT$$GT$$C$alloc..collections..linked_list..LinkedList$LT$alloc..vec..Vec$LT$std..collections..hash..map..HashMap$LT$alloc..string..String$C$f32$GT$$GT$$GT$$RP$$GT$$GT$$GT$17h490a7efd944be0c8E', symObjAddr: 0x29DC, symBinAddr: 0x2492C, symSize: 0x24 }
  - { offset: 0x9445A, size: 0x8, addend: 0x0, symName: '__ZN4core3ptr394drop_in_place$LT$core..iter..traits..iterator..Iterator..for_each..call$LT$$LP$u32$C$f32$RP$$C$alloc..vec..Vec$LT$$LP$u32$C$f32$RP$$GT$..extend_trusted$LT$core..iter..adapters..map..Map$LT$alloc..vec..into_iter..IntoIter$LT$u32$GT$$C$neuralvault_rs..hnsw_core..HNSWCore..shrink_neighbor_list..$u7b$$u7b$closure$u7d$$u7d$$GT$$GT$..$u7b$$u7b$closure$u7d$$u7d$$GT$..$u7b$$u7b$closure$u7d$$u7d$$GT$17h0667fa16cbd4dbd4E', symObjAddr: 0x2A00, symBinAddr: 0x24950, symSize: 0x24 }
  - { offset: 0x94489, size: 0x8, addend: 0x0, symName: '__ZN4core3ptr408drop_in_place$LT$core..iter..adapters..map..Map$LT$alloc..vec..into_iter..IntoIter$LT$$LP$alloc..string..String$C$alloc..string..String$RP$$GT$$C$pyo3..conversions..std..vec..$LT$impl$u20$pyo3..conversion..IntoPy$LT$pyo3..instance..Py$LT$pyo3..types..any..PyAny$GT$$GT$$u20$for$u20$alloc..vec..Vec$LT$$LP$alloc..string..String$C$alloc..string..String$RP$$GT$$GT$..into_py..$u7b$$u7b$closure$u7d$$u7d$$GT$$GT$17h30cd62fb2bde77e8E', symObjAddr: 0x2A24, symBinAddr: 0x24974, symSize: 0x24 }
  - { offset: 0x944B8, size: 0x8, addend: 0x0, symName: '__ZN4core3ptr423drop_in_place$LT$core..iter..adapters..map..Map$LT$std..collections..hash..map..IntoIter$LT$alloc..string..String$C$$LP$f32$C$f32$C$f32$RP$$GT$$C$pyo3..conversions..std..map..$LT$impl$u20$pyo3..conversion..IntoPy$LT$pyo3..instance..Py$LT$pyo3..types..any..PyAny$GT$$GT$$u20$for$u20$std..collections..hash..map..HashMap$LT$alloc..string..String$C$$LP$f32$C$f32$C$f32$RP$$GT$$GT$..into_py..$u7b$$u7b$closure$u7d$$u7d$$GT$$GT$17hc1a2519ec33d4cfeE', symObjAddr: 0x2A48, symBinAddr: 0x24998, symSize: 0x24 }
  - { offset: 0x944E7, size: 0x8, addend: 0x0, symName: '__ZN4core3ptr43drop_in_place$LT$neuralvault_rs..PyHNSW$GT$17h164bb1bd66967741E', symObjAddr: 0x2A6C, symBinAddr: 0x249BC, symSize: 0x24 }
  - { offset: 0x94516, size: 0x8, addend: 0x0, symName: '__ZN4core3ptr459drop_in_place$LT$core..iter..traits..iterator..Iterator..for_each..call$LT$$LP$alloc..string..String$C$f32$RP$$C$alloc..vec..Vec$LT$$LP$alloc..string..String$C$f32$RP$$GT$..extend_trusted$LT$core..iter..adapters..map..Map$LT$core..iter..adapters..take..Take$LT$alloc..vec..into_iter..IntoIter$LT$$LP$usize$C$f32$RP$$GT$$GT$$C$neuralvault_rs..PyHNSW..search..$u7b$$u7b$closure$u7d$$u7d$$GT$$GT$..$u7b$$u7b$closure$u7d$$u7d$$GT$..$u7b$$u7b$closure$u7d$$u7d$$GT$17h4029b1575b00c91dE', symObjAddr: 0x2A90, symBinAddr: 0x249E0, symSize: 0x24 }
  - { offset: 0x94545, size: 0x8, addend: 0x0, symName: '__ZN4core3ptr47drop_in_place$LT$alloc..vec..Vec$LT$f32$GT$$GT$17h20b333475a6e65f7E', symObjAddr: 0x2AB4, symBinAddr: 0x24A04, symSize: 0x5C }
  - { offset: 0x94574, size: 0x8, addend: 0x0, symName: '__ZN4core3ptr502drop_in_place$LT$core..iter..traits..iterator..Iterator..for_each..call$LT$std..collections..hash..map..HashMap$LT$alloc..string..String$C$f32$GT$$C$alloc..vec..Vec$LT$std..collections..hash..map..HashMap$LT$alloc..string..String$C$f32$GT$$GT$..extend_trusted$LT$core..iter..adapters..map..Map$LT$core..ops..range..Range$LT$usize$GT$$C$$RF$neuralvault_rs..causal_engine..run_stochastic_simulation_rs..$u7b$$u7b$closure$u7d$$u7d$$GT$$GT$..$u7b$$u7b$closure$u7d$$u7d$$GT$..$u7b$$u7b$closure$u7d$$u7d$$GT$17hff31f4b422283c4aE', symObjAddr: 0x2B10, symBinAddr: 0x24A60, symSize: 0x24 }
  - { offset: 0x945A3, size: 0x8, addend: 0x0, symName: '__ZN4core3ptr50drop_in_place$LT$rand..rngs..thread..ThreadRng$GT$17hd9de8fe5beef40bfE', symObjAddr: 0x2B34, symBinAddr: 0x24A84, symSize: 0x24 }
  - { offset: 0x945D2, size: 0x8, addend: 0x0, symName: '__ZN4core3ptr52drop_in_place$LT$$u5b$alloc..string..String$u5d$$GT$17h0e1cb5cd428a37e7E', symObjAddr: 0x2B58, symBinAddr: 0x24AA8, symSize: 0xC4 }
  - { offset: 0x94601, size: 0x8, addend: 0x0, symName: '__ZN4core3ptr54drop_in_place$LT$alloc..raw_vec..RawVec$LT$f32$GT$$GT$17hd9ccf2770006a24fE', symObjAddr: 0x2C40, symBinAddr: 0x24B6C, symSize: 0x24 }
  - { offset: 0x94630, size: 0x8, addend: 0x0, symName: '__ZN4core3ptr56drop_in_place$LT$$LP$alloc..string..String$C$f32$RP$$GT$17h7c96188d503427bcE', symObjAddr: 0x2C64, symBinAddr: 0x24B90, symSize: 0x24 }
  - { offset: 0x9465F, size: 0x8, addend: 0x0, symName: '__ZN4core3ptr56drop_in_place$LT$neuralvault_rs..hnsw_core..HNSWCore$GT$17hb4ee9dd9a61e6f45E', symObjAddr: 0x2C88, symBinAddr: 0x24BB4, symSize: 0xF4 }
  - { offset: 0x9468E, size: 0x8, addend: 0x0, symName: '__ZN4core3ptr57drop_in_place$LT$$u5b$alloc..vec..Vec$LT$u32$GT$$u5d$$GT$17h3e28aacc70fb2997E', symObjAddr: 0x2D7C, symBinAddr: 0x24CA8, symSize: 0xC4 }
  - { offset: 0x946BD, size: 0x8, addend: 0x0, symName: '__ZN4core3ptr57drop_in_place$LT$pyo3..types..dict..BoundDictIterator$GT$17h5a7b5877ec883d3eE', symObjAddr: 0x2E40, symBinAddr: 0x24D6C, symSize: 0x24 }
  - { offset: 0x946EC, size: 0x8, addend: 0x0, symName: '__ZN4core3ptr58drop_in_place$LT$$LP$alloc..string..String$C$usize$RP$$GT$17h7d2cf54ea1236e68E', symObjAddr: 0x2E64, symBinAddr: 0x24D90, symSize: 0x24 }
  - { offset: 0x9471B, size: 0x8, addend: 0x0, symName: '__ZN4core3ptr592drop_in_place$LT$core..iter..adapters..map..map_fold$LT$u32$C$$LP$u32$C$f32$RP$$C$$LP$$RP$$C$neuralvault_rs..hnsw_core..HNSWCore..shrink_neighbor_list..$u7b$$u7b$closure$u7d$$u7d$$C$core..iter..traits..iterator..Iterator..for_each..call$LT$$LP$u32$C$f32$RP$$C$alloc..vec..Vec$LT$$LP$u32$C$f32$RP$$GT$..extend_trusted$LT$core..iter..adapters..map..Map$LT$alloc..vec..into_iter..IntoIter$LT$u32$GT$$C$neuralvault_rs..hnsw_core..HNSWCore..shrink_neighbor_list..$u7b$$u7b$closure$u7d$$u7d$$GT$$GT$..$u7b$$u7b$closure$u7d$$u7d$$GT$..$u7b$$u7b$closure$u7d$$u7d$$GT$..$u7b$$u7b$closure$u7d$$u7d$$GT$17h95211d92cd20546cE', symObjAddr: 0x2E88, symBinAddr: 0x24DB4, symSize: 0x24 }
  - { offset: 0x9474A, size: 0x8, addend: 0x0, symName: '__ZN4core3ptr61drop_in_place$LT$$LP$alloc..vec..Vec$LT$f32$GT$$C$f32$RP$$GT$17h70712ddfff11399aE', symObjAddr: 0x2EAC, symBinAddr: 0x24DD8, symSize: 0x24 }
  - { offset: 0x94779, size: 0x8, addend: 0x0, symName: '__ZN4core3ptr61drop_in_place$LT$alloc..vec..Vec$LT$$LP$u32$C$f32$RP$$GT$$GT$17h74f0847570468ae6E', symObjAddr: 0x2ED0, symBinAddr: 0x24DFC, symSize: 0x5C }
  - { offset: 0x947A8, size: 0x8, addend: 0x0, symName: '__ZN4core3ptr62drop_in_place$LT$alloc..vec..into_iter..IntoIter$LT$u8$GT$$GT$17h3f32279f23b2883cE', symObjAddr: 0x2F2C, symBinAddr: 0x24E58, symSize: 0x24 }
  - { offset: 0x947D7, size: 0x8, addend: 0x0, symName: '__ZN4core3ptr63drop_in_place$LT$alloc..vec..Vec$LT$$LP$usize$C$f32$RP$$GT$$GT$17h3e6aef5756eec5e0E', symObjAddr: 0x2F50, symBinAddr: 0x24E7C, symSize: 0x5C }
  - { offset: 0x94806, size: 0x8, addend: 0x0, symName: '__ZN4core3ptr63drop_in_place$LT$alloc..vec..into_iter..IntoIter$LT$u32$GT$$GT$17h973cbd7ba45fc899E', symObjAddr: 0x2FAC, symBinAddr: 0x24ED8, symSize: 0x24 }
  - { offset: 0x94835, size: 0x8, addend: 0x0, symName: '__ZN4core3ptr65drop_in_place$LT$alloc..vec..Vec$LT$alloc..string..String$GT$$GT$17hb69ddd0f1f8831fcE', symObjAddr: 0x2FD0, symBinAddr: 0x24EFC, symSize: 0x5C }
  - { offset: 0x94864, size: 0x8, addend: 0x0, symName: '__ZN4core3ptr664drop_in_place$LT$core..iter..adapters..map..map_fold$LT$$LP$usize$C$f32$RP$$C$$LP$alloc..string..String$C$f32$RP$$C$$LP$$RP$$C$neuralvault_rs..PyHNSW..search..$u7b$$u7b$closure$u7d$$u7d$$C$core..iter..traits..iterator..Iterator..for_each..call$LT$$LP$alloc..string..String$C$f32$RP$$C$alloc..vec..Vec$LT$$LP$alloc..string..String$C$f32$RP$$GT$..extend_trusted$LT$core..iter..adapters..map..Map$LT$core..iter..adapters..take..Take$LT$alloc..vec..into_iter..IntoIter$LT$$LP$usize$C$f32$RP$$GT$$GT$$C$neuralvault_rs..PyHNSW..search..$u7b$$u7b$closure$u7d$$u7d$$GT$$GT$..$u7b$$u7b$closure$u7d$$u7d$$GT$..$u7b$$u7b$closure$u7d$$u7d$$GT$..$u7b$$u7b$closure$u7d$$u7d$$GT$17hd14b6da2116a9880E', symObjAddr: 0x302C, symBinAddr: 0x24F58, symSize: 0x24 }
  - { offset: 0x94893, size: 0x8, addend: 0x0, symName: '__ZN4core3ptr66drop_in_place$LT$$u5b$$LP$alloc..string..String$C$f32$RP$$u5d$$GT$17hcf53525941f2f7dfE', symObjAddr: 0x3050, symBinAddr: 0x24F7C, symSize: 0xB4 }
  - { offset: 0x948C2, size: 0x8, addend: 0x0, symName: '__ZN4core3ptr66drop_in_place$LT$neuralvault_rs..causal_engine..RustCausalEdge$GT$17ha5fde7a6b008a480E', symObjAddr: 0x3104, symBinAddr: 0x25030, symSize: 0x24 }
  - { offset: 0x948F1, size: 0x8, addend: 0x0, symName: '__ZN4core3ptr68drop_in_place$LT$alloc..raw_vec..RawVec$LT$$LP$u32$C$f32$RP$$GT$$GT$17h14656256d1a1a173E', symObjAddr: 0x3128, symBinAddr: 0x25054, symSize: 0x24 }
  - { offset: 0x94920, size: 0x8, addend: 0x0, symName: '__ZN4core3ptr69drop_in_place$LT$pyo3..instance..Py$LT$neuralvault_rs..PyHNSW$GT$$GT$17h5c2b6d9bea3f081fE', symObjAddr: 0x314C, symBinAddr: 0x25078, symSize: 0x24 }
  - { offset: 0x9494F, size: 0x8, addend: 0x0, symName: '__ZN4core3ptr70drop_in_place$LT$alloc..raw_vec..RawVec$LT$$LP$usize$C$f32$RP$$GT$$GT$17hbdfd0b622b86bcfbE', symObjAddr: 0x3170, symBinAddr: 0x2509C, symSize: 0x24 }
  - { offset: 0x9497E, size: 0x8, addend: 0x0, symName: '__ZN4core3ptr70drop_in_place$LT$alloc..vec..Vec$LT$alloc..vec..Vec$LT$u32$GT$$GT$$GT$17h832ba2c0dabcc0f2E', symObjAddr: 0x3194, symBinAddr: 0x250C0, symSize: 0x5C }
  - { offset: 0x949AD, size: 0x8, addend: 0x0, symName: '__ZN4core3ptr70drop_in_place$LT$pyo3..pycell..PyRef$LT$neuralvault_rs..PyHNSW$GT$$GT$17h877f563f964c94b0E', symObjAddr: 0x31F0, symBinAddr: 0x2511C, symSize: 0x5C }
  - { offset: 0x949DC, size: 0x8, addend: 0x0, symName: '__ZN4core3ptr70drop_in_place$LT$std..collections..hash..set..HashSet$LT$usize$GT$$GT$17ha78b3fa284b33e9dE', symObjAddr: 0x324C, symBinAddr: 0x25178, symSize: 0x24 }
  - { offset: 0x94A0B, size: 0x8, addend: 0x0, symName: '__ZN4core3ptr71drop_in_place$LT$core..array..iter..IntoIter$LT$usize$C$2_usize$GT$$GT$17hf231a1260ff20923E', symObjAddr: 0x3270, symBinAddr: 0x2519C, symSize: 0x24 }
  - { offset: 0x94A3A, size: 0x8, addend: 0x0, symName: '__ZN4core3ptr72drop_in_place$LT$alloc..raw_vec..RawVec$LT$alloc..string..String$GT$$GT$17ha1d51431c7d31a6bE', symObjAddr: 0x3294, symBinAddr: 0x251C0, symSize: 0x24 }
  - { offset: 0x94A69, size: 0x8, addend: 0x0, symName: '__ZN4core3ptr72drop_in_place$LT$pyo3..instance..Bound$LT$neuralvault_rs..PyHNSW$GT$$GT$17ha767cfda4a2ed3dfE', symObjAddr: 0x32B8, symBinAddr: 0x251E4, symSize: 0x24 }
  - { offset: 0x94A98, size: 0x8, addend: 0x0, symName: '__ZN4core3ptr73drop_in_place$LT$core..cell..UnsafeCell$LT$neuralvault_rs..PyHNSW$GT$$GT$17h3c6580218cd665c0E', symObjAddr: 0x32DC, symBinAddr: 0x25208, symSize: 0x24 }
  - { offset: 0x94AC7, size: 0x8, addend: 0x0, symName: '__ZN4core3ptr73drop_in_place$LT$core..result..Result$LT$usize$C$pyo3..err..PyErr$GT$$GT$17h1c9b95c47654720aE', symObjAddr: 0x3300, symBinAddr: 0x2522C, symSize: 0x40 }
  - { offset: 0x94AF6, size: 0x8, addend: 0x0, symName: '__ZN4core3ptr73drop_in_place$LT$pyo3..pycell..PyRefMut$LT$neuralvault_rs..PyHNSW$GT$$GT$17hb67a67647aa29b3aE', symObjAddr: 0x3340, symBinAddr: 0x2526C, symSize: 0x5C }
  - { offset: 0x94B25, size: 0x8, addend: 0x0, symName: '__ZN4core3ptr74drop_in_place$LT$$LP$alloc..string..String$C$alloc..string..String$RP$$GT$17h2b161812cd4cfb67E', symObjAddr: 0x339C, symBinAddr: 0x252C8, symSize: 0x60 }
  - { offset: 0x94B54, size: 0x8, addend: 0x0, symName: '__ZN4core3ptr754drop_in_place$LT$rayon_core..job..StackJob$LT$rayon_core..latch..SpinLatch$C$rayon_core..join..join_context..call_b$LT$alloc..collections..linked_list..LinkedList$LT$alloc..vec..Vec$LT$std..collections..hash..map..HashMap$LT$alloc..string..String$C$f32$GT$$GT$$GT$$C$rayon..iter..plumbing..bridge_producer_consumer..helper$LT$rayon..range..IterProducer$LT$usize$GT$$C$rayon..iter..map..MapConsumer$LT$rayon..iter..extend..ListVecConsumer$C$neuralvault_rs..causal_engine..run_stochastic_simulation_rs..$u7b$$u7b$closure$u7d$$u7d$$GT$$GT$..$u7b$$u7b$closure$u7d$$u7d$$GT$..$u7b$$u7b$closure$u7d$$u7d$$C$alloc..collections..linked_list..LinkedList$LT$alloc..vec..Vec$LT$std..collections..hash..map..HashMap$LT$alloc..string..String$C$f32$GT$$GT$$GT$$GT$$GT$17heb04ef6ab6c6f48dE', symObjAddr: 0x33FC, symBinAddr: 0x25328, symSize: 0x24 }
  - { offset: 0x94B83, size: 0x8, addend: 0x0, symName: '__ZN4core3ptr762drop_in_place$LT$core..iter..adapters..map..map_fold$LT$usize$C$std..collections..hash..map..HashMap$LT$alloc..string..String$C$f32$GT$$C$$LP$$RP$$C$$RF$neuralvault_rs..causal_engine..run_stochastic_simulation_rs..$u7b$$u7b$closure$u7d$$u7d$$C$core..iter..traits..iterator..Iterator..for_each..call$LT$std..collections..hash..map..HashMap$LT$alloc..string..String$C$f32$GT$$C$alloc..vec..Vec$LT$std..collections..hash..map..HashMap$LT$alloc..string..String$C$f32$GT$$GT$..extend_trusted$LT$core..iter..adapters..map..Map$LT$core..ops..range..Range$LT$usize$GT$$C$$RF$neuralvault_rs..causal_engine..run_stochastic_simulation_rs..$u7b$$u7b$closure$u7d$$u7d$$GT$$GT$..$u7b$$u7b$closure$u7d$$u7d$$GT$..$u7b$$u7b$closure$u7d$$u7d$$GT$..$u7b$$u7b$closure$u7d$$u7d$$GT$17h14762d8b5a610e74E', symObjAddr: 0x3420, symBinAddr: 0x2534C, symSize: 0x24 }
  - { offset: 0x94BB2, size: 0x8, addend: 0x0, symName: '__ZN4core3ptr76drop_in_place$LT$$LP$alloc..string..String$C$$LP$f32$C$f32$C$f32$RP$$RP$$GT$17h4be99e65b3d83b48E', symObjAddr: 0x3444, symBinAddr: 0x25370, symSize: 0x24 }
  - { offset: 0x94BE1, size: 0x8, addend: 0x0, symName: '__ZN4core3ptr76drop_in_place$LT$$u5b$neuralvault_rs..causal_engine..RustCausalEdge$u5d$$GT$17hc40bdfa9718c60a8E', symObjAddr: 0x3468, symBinAddr: 0x25394, symSize: 0xB4 }
  - { offset: 0x94C10, size: 0x8, addend: 0x0, symName: '__ZN4core3ptr77drop_in_place$LT$alloc..raw_vec..RawVec$LT$alloc..vec..Vec$LT$u32$GT$$GT$$GT$17h4cb05e73f4051baaE', symObjAddr: 0x351C, symBinAddr: 0x25448, symSize: 0x24 }
  - { offset: 0x94C3F, size: 0x8, addend: 0x0, symName: '__ZN4core3ptr77drop_in_place$LT$alloc..vec..into_iter..IntoIter$LT$$LP$u32$C$f32$RP$$GT$$GT$17h2a8cbb6b6123534aE', symObjAddr: 0x3540, symBinAddr: 0x2546C, symSize: 0x24 }
  - { offset: 0x94C6E, size: 0x8, addend: 0x0, symName: '__ZN4core3ptr77drop_in_place$LT$hashbrown..raw..RawTable$LT$$LP$usize$C$$LP$$RP$$RP$$GT$$GT$17h7a5796522b49c8c9E', symObjAddr: 0x3564, symBinAddr: 0x25490, symSize: 0x24 }
  - { offset: 0x94C9D, size: 0x8, addend: 0x0, symName: '__ZN4core3ptr77drop_in_place$LT$pyo3..instance..Py$LT$neuralvault_rs..RustTurboQuant$GT$$GT$17h4c73ca3082a23f75E', symObjAddr: 0x3588, symBinAddr: 0x254B4, symSize: 0x24 }
  - { offset: 0x94CCC, size: 0x8, addend: 0x0, symName: '__ZN4core3ptr78drop_in_place$LT$pyo3..pycell..PyRef$LT$neuralvault_rs..RustTurboQuant$GT$$GT$17h1b8de26bb176f74eE', symObjAddr: 0x35AC, symBinAddr: 0x254D8, symSize: 0x5C }
  - { offset: 0x94CFB, size: 0x8, addend: 0x0, symName: '__ZN4core3ptr79drop_in_place$LT$alloc..vec..Vec$LT$$LP$alloc..string..String$C$f32$RP$$GT$$GT$17h201909848bc36290E', symObjAddr: 0x3608, symBinAddr: 0x25534, symSize: 0x5C }
  - { offset: 0x94D2A, size: 0x8, addend: 0x0, symName: '__ZN4core3ptr79drop_in_place$LT$alloc..vec..into_iter..IntoIter$LT$$LP$usize$C$f32$RP$$GT$$GT$17h2887eb7239f22011E', symObjAddr: 0x3664, symBinAddr: 0x25590, symSize: 0x24 }
  - { offset: 0x94D59, size: 0x8, addend: 0x0, symName: '__ZN4core3ptr801drop_in_place$LT$core..ops..try_trait..NeverShortCircuit$LT$$LP$$RP$$GT$..wrap_mut_2$LT$$LP$$RP$$C$$LP$usize$C$f32$RP$$C$core..iter..adapters..map..map_fold$LT$$LP$usize$C$f32$RP$$C$$LP$alloc..string..String$C$f32$RP$$C$$LP$$RP$$C$neuralvault_rs..PyHNSW..search..$u7b$$u7b$closure$u7d$$u7d$$C$core..iter..traits..iterator..Iterator..for_each..call$LT$$LP$alloc..string..String$C$f32$RP$$C$alloc..vec..Vec$LT$$LP$alloc..string..String$C$f32$RP$$GT$..extend_trusted$LT$core..iter..adapters..map..Map$LT$core..iter..adapters..take..Take$LT$alloc..vec..into_iter..IntoIter$LT$$LP$usize$C$f32$RP$$GT$$GT$$C$neuralvault_rs..PyHNSW..search..$u7b$$u7b$closure$u7d$$u7d$$GT$$GT$..$u7b$$u7b$closure$u7d$$u7d$$GT$..$u7b$$u7b$closure$u7d$$u7d$$GT$..$u7b$$u7b$closure$u7d$$u7d$$GT$..$u7b$$u7b$closure$u7d$$u7d$$GT$17h61dd182b48a32c41E', symObjAddr: 0x3688, symBinAddr: 0x255B4, symSize: 0x24 }
  - { offset: 0x94D88, size: 0x8, addend: 0x0, symName: '__ZN4core3ptr802drop_in_place$LT$rayon_core..job..StackJob$LT$rayon_core..latch..SpinLatch$C$rayon_core..join..join_context..call_b$LT$rayon..iter..collect..consumer..CollectResult$LT$std..collections..hash..map..HashMap$LT$alloc..string..String$C$f32$GT$$GT$$C$rayon..iter..plumbing..bridge_producer_consumer..helper$LT$rayon..range..IterProducer$LT$usize$GT$$C$rayon..iter..map..MapConsumer$LT$rayon..iter..collect..consumer..CollectConsumer$LT$std..collections..hash..map..HashMap$LT$alloc..string..String$C$f32$GT$$GT$$C$neuralvault_rs..causal_engine..run_stochastic_simulation_rs..$u7b$$u7b$closure$u7d$$u7d$$GT$$GT$..$u7b$$u7b$closure$u7d$$u7d$$GT$..$u7b$$u7b$closure$u7d$$u7d$$C$rayon..iter..collect..consumer..CollectResult$LT$std..collections..hash..map..HashMap$LT$alloc..string..String$C$f32$GT$$GT$$GT$$GT$17h87fcfcd231da7c0fE', symObjAddr: 0x36AC, symBinAddr: 0x255D8, symSize: 0x24 }
  - { offset: 0x94DB7, size: 0x8, addend: 0x0, symName: '__ZN4core3ptr80drop_in_place$LT$hashbrown..map..IntoIter$LT$alloc..string..String$C$f32$GT$$GT$17hd2b4229fa37cfa21E', symObjAddr: 0x36D0, symBinAddr: 0x255FC, symSize: 0x24 }
  - { offset: 0x94DE6, size: 0x8, addend: 0x0, symName: '__ZN4core3ptr80drop_in_place$LT$pyo3..instance..Bound$LT$neuralvault_rs..RustTurboQuant$GT$$GT$17h2168311d711e08a0E', symObjAddr: 0x3754, symBinAddr: 0x25620, symSize: 0x24 }
  - { offset: 0x94E15, size: 0x8, addend: 0x0, symName: '__ZN4core3ptr83drop_in_place$LT$alloc..vec..Vec$LT$neuralvault_rs..hnsw_core..SearchResult$GT$$GT$17h24bcc9acba1486f6E', symObjAddr: 0x3778, symBinAddr: 0x25644, symSize: 0x5C }
  - { offset: 0x94E44, size: 0x8, addend: 0x0, symName: '__ZN4core3ptr84drop_in_place$LT$$u5b$$LP$alloc..string..String$C$alloc..string..String$RP$$u5d$$GT$17h7b1e13b2f5804849E', symObjAddr: 0x37D4, symBinAddr: 0x256A0, symSize: 0xC4 }
  - { offset: 0x94E73, size: 0x8, addend: 0x0, symName: '__ZN4core3ptr86drop_in_place$LT$alloc..raw_vec..RawVec$LT$$LP$alloc..string..String$C$f32$RP$$GT$$GT$17hce887b99041c282cE', symObjAddr: 0x3898, symBinAddr: 0x25764, symSize: 0x24 }
  - { offset: 0x94EA2, size: 0x8, addend: 0x0, symName: '__ZN4core3ptr86drop_in_place$LT$alloc..vec..in_place_drop..InPlaceDrop$LT$$LP$usize$C$f32$RP$$GT$$GT$17h2d530cb3440695c0E', symObjAddr: 0x38BC, symBinAddr: 0x25788, symSize: 0x24 }
  - { offset: 0x94ED1, size: 0x8, addend: 0x0, symName: '__ZN4core3ptr88drop_in_place$LT$hashbrown..raw..RawTable$LT$$LP$alloc..string..String$C$f32$RP$$GT$$GT$17h404532185249a540E', symObjAddr: 0x38E0, symBinAddr: 0x257AC, symSize: 0x24 }
  - { offset: 0x94F00, size: 0x8, addend: 0x0, symName: '__ZN4core3ptr89drop_in_place$LT$alloc..vec..Vec$LT$neuralvault_rs..causal_engine..RustCausalEdge$GT$$GT$17hf4bbe7a9db0842daE', symObjAddr: 0x3904, symBinAddr: 0x257D0, symSize: 0x5C }
  - { offset: 0x94F2F, size: 0x8, addend: 0x0, symName: '__ZN4core3ptr89drop_in_place$LT$pyo3..pyclass_init..PyClassInitializer$LT$neuralvault_rs..PyHNSW$GT$$GT$17h495ec3f41deaf655E', symObjAddr: 0x3960, symBinAddr: 0x2582C, symSize: 0x24 }
  - { offset: 0x94F5E, size: 0x8, addend: 0x0, symName: '__ZN4core3ptr90drop_in_place$LT$alloc..raw_vec..RawVec$LT$neuralvault_rs..hnsw_core..SearchResult$GT$$GT$17h35caad75adae72bdE', symObjAddr: 0x3984, symBinAddr: 0x25850, symSize: 0x24 }
  - { offset: 0x94F8D, size: 0x8, addend: 0x0, symName: '__ZN4core3ptr90drop_in_place$LT$core..slice..sort..stable..merge..MergeState$LT$$LP$u32$C$f32$RP$$GT$$GT$17h303acc369c46db2bE', symObjAddr: 0x39A8, symBinAddr: 0x25874, symSize: 0x24 }
  - { offset: 0x94FBC, size: 0x8, addend: 0x0, symName: '__ZN4core3ptr90drop_in_place$LT$hashbrown..raw..RawTable$LT$$LP$alloc..string..String$C$usize$RP$$GT$$GT$17he8e0281bc0085c8aE', symObjAddr: 0x39CC, symBinAddr: 0x25898, symSize: 0x24 }
  - { offset: 0x94FEB, size: 0x8, addend: 0x0, symName: '__ZN4core3ptr90drop_in_place$LT$hashbrown..set..HashSet$LT$usize$C$std..hash..random..RandomState$GT$$GT$17h19f51d6347d88752E', symObjAddr: 0x39F0, symBinAddr: 0x258BC, symSize: 0x24 }
  - { offset: 0x9501A, size: 0x8, addend: 0x0, symName: '__ZN4core3ptr91drop_in_place$LT$$u5b$pyo3..instance..Py$LT$pyo3..types..any..PyAny$GT$$u3b$$u20$3$u5d$$GT$17h63755417a034e507E', symObjAddr: 0x3A14, symBinAddr: 0x258E0, symSize: 0xA4 }
  - { offset: 0x95049, size: 0x8, addend: 0x0, symName: '__ZN4core3ptr91drop_in_place$LT$hashbrown..raw..RawIntoIter$LT$$LP$alloc..string..String$C$f32$RP$$GT$$GT$17h3a5d8b960f0f6aaaE', symObjAddr: 0x3AB8, symBinAddr: 0x25984, symSize: 0x24 }
  - { offset: 0x95078, size: 0x8, addend: 0x0, symName: '__ZN4core3ptr92drop_in_place$LT$core..slice..sort..stable..merge..MergeState$LT$$LP$usize$C$f32$RP$$GT$$GT$17hec94db7e91fef57bE', symObjAddr: 0x3ADC, symBinAddr: 0x259A8, symSize: 0x24 }
  - { offset: 0x950A7, size: 0x8, addend: 0x0, symName: '__ZN4core3ptr92drop_in_place$LT$std..collections..hash..map..HashMap$LT$alloc..string..String$C$f32$GT$$GT$17hdb6732f7077a0dd2E', symObjAddr: 0x3B00, symBinAddr: 0x259CC, symSize: 0x24 }
  - { offset: 0x950D6, size: 0x8, addend: 0x0, symName: '__ZN4core3ptr93drop_in_place$LT$$LP$alloc..string..String$C$$LP$alloc..vec..Vec$LT$f32$GT$$C$f32$RP$$RP$$GT$17hf94dc2356c65e5f3E', symObjAddr: 0x3B24, symBinAddr: 0x259F0, symSize: 0x60 }
  - { offset: 0x95105, size: 0x8, addend: 0x0, symName: '__ZN4core3ptr93drop_in_place$LT$pyo3..pyclass_init..PyClassInitializerImpl$LT$neuralvault_rs..PyHNSW$GT$$GT$17h1aabd85002478b6aE', symObjAddr: 0x3B84, symBinAddr: 0x25A50, symSize: 0x54 }
  - { offset: 0x95134, size: 0x8, addend: 0x0, symName: '__ZN4core3ptr93drop_in_place$LT$std..collections..hash..map..IntoIter$LT$alloc..string..String$C$f32$GT$$GT$17h3b8c7b646a5e4fe1E', symObjAddr: 0x3BD8, symBinAddr: 0x25AA4, symSize: 0x24 }
  - { offset: 0x95163, size: 0x8, addend: 0x0, symName: '__ZN4core3ptr94drop_in_place$LT$core..slice..sort..shared..smallsort..CopyOnDrop$LT$$LP$u32$C$f32$RP$$GT$$GT$17hc13323fccafad13fE', symObjAddr: 0x3BFC, symBinAddr: 0x25AC8, symSize: 0x24 }
  - { offset: 0x95192, size: 0x8, addend: 0x0, symName: '__ZN4core3ptr94drop_in_place$LT$std..collections..hash..map..HashMap$LT$alloc..string..String$C$usize$GT$$GT$17h3d04332405820ca4E', symObjAddr: 0x3C20, symBinAddr: 0x25AEC, symSize: 0x24 }
  - { offset: 0x951C1, size: 0x8, addend: 0x0, symName: '__ZN4core3ptr95drop_in_place$LT$alloc..vec..into_iter..IntoIter$LT$$LP$alloc..string..String$C$f32$RP$$GT$$GT$17h7b050631b80a2862E', symObjAddr: 0x3C44, symBinAddr: 0x25B10, symSize: 0x24 }
  - { offset: 0x951F0, size: 0x8, addend: 0x0, symName: '__ZN4core3ptr96drop_in_place$LT$alloc..raw_vec..RawVec$LT$neuralvault_rs..causal_engine..RustCausalEdge$GT$$GT$17h59cb642eac9831b9E', symObjAddr: 0x3C68, symBinAddr: 0x25B34, symSize: 0x24 }
  - { offset: 0x9521F, size: 0x8, addend: 0x0, symName: '__ZN4core3ptr96drop_in_place$LT$core..slice..sort..shared..smallsort..CopyOnDrop$LT$$LP$usize$C$f32$RP$$GT$$GT$17hf73bfc4afb125b85E', symObjAddr: 0x3CB0, symBinAddr: 0x25B58, symSize: 0x24 }
  - { offset: 0x9524E, size: 0x8, addend: 0x0, symName: '__ZN4core3ptr97drop_in_place$LT$alloc..vec..Vec$LT$$LP$alloc..string..String$C$alloc..string..String$RP$$GT$$GT$17h2543f274d5ac2afeE', symObjAddr: 0x3CD4, symBinAddr: 0x25B7C, symSize: 0x5C }
  - { offset: 0x9527D, size: 0x8, addend: 0x0, symName: '__ZN4core3ptr97drop_in_place$LT$pyo3..pyclass_init..PyClassInitializer$LT$neuralvault_rs..RustTurboQuant$GT$$GT$17h0a98f133d7398cb8E', symObjAddr: 0x3D30, symBinAddr: 0x25BD8, symSize: 0x24 }
  - { offset: 0x952AC, size: 0x8, addend: 0x0, symName: '__ZN4core3ptr98drop_in_place$LT$alloc..vec..Vec$LT$$LP$ordered_float..OrderedFloat$LT$f32$GT$$C$usize$RP$$GT$$GT$17h6461c15a4d5e87ccE', symObjAddr: 0x3D54, symBinAddr: 0x25BFC, symSize: 0x5C }
  - { offset: 0x952DB, size: 0x8, addend: 0x0, symName: '__ZN4core3ptr98drop_in_place$LT$core..option..Option$LT$pyo3..pycell..PyRef$LT$neuralvault_rs..PyHNSW$GT$$GT$$GT$17heecb08a37a80bbceE', symObjAddr: 0x3DB0, symBinAddr: 0x25C58, symSize: 0x44 }
  - { offset: 0x955C9, size: 0x8, addend: 0x0, symName: __ZN4core3ops8function5FnMut8call_mut17h0bc40f4bf3260004E, symObjAddr: 0x6C0, symBinAddr: 0x227C0, symSize: 0x28 }
  - { offset: 0x9560D, size: 0x8, addend: 0x0, symName: __ZN4core3ops8function5FnMut8call_mut17h5ba9940d57fe73b6E, symObjAddr: 0x6E8, symBinAddr: 0x227E8, symSize: 0x30 }
  - { offset: 0x95651, size: 0x8, addend: 0x0, symName: __ZN4core3ops8function5FnMut8call_mut17h655cb6981ce8e68fE, symObjAddr: 0x718, symBinAddr: 0x22818, symSize: 0x28 }
  - { offset: 0x9569B, size: 0x8, addend: 0x0, symName: '__ZN4core3ops8function6FnOnce40call_once$u7b$$u7b$vtable.shim$u7d$$u7d$17h0987334c2c51a5bbE', symObjAddr: 0x740, symBinAddr: 0x22840, symSize: 0x38 }
  - { offset: 0x956DF, size: 0x8, addend: 0x0, symName: '__ZN4core3ops8function6FnOnce40call_once$u7b$$u7b$vtable.shim$u7d$$u7d$17h0f09f9a5943bdbf1E', symObjAddr: 0x778, symBinAddr: 0x22878, symSize: 0x38 }
  - { offset: 0x95723, size: 0x8, addend: 0x0, symName: '__ZN4core3ops8function6FnOnce40call_once$u7b$$u7b$vtable.shim$u7d$$u7d$17h105220c61c75009bE', symObjAddr: 0x7B0, symBinAddr: 0x228B0, symSize: 0x38 }
  - { offset: 0x95767, size: 0x8, addend: 0x0, symName: '__ZN4core3ops8function6FnOnce40call_once$u7b$$u7b$vtable.shim$u7d$$u7d$17h16f891e2845fe9dbE', symObjAddr: 0x7E8, symBinAddr: 0x228E8, symSize: 0x38 }
  - { offset: 0x957AB, size: 0x8, addend: 0x0, symName: '__ZN4core3ops8function6FnOnce40call_once$u7b$$u7b$vtable.shim$u7d$$u7d$17h1f696214415bf5a5E', symObjAddr: 0x820, symBinAddr: 0x22920, symSize: 0x38 }
  - { offset: 0x957EF, size: 0x8, addend: 0x0, symName: '__ZN4core3ops8function6FnOnce40call_once$u7b$$u7b$vtable.shim$u7d$$u7d$17h20d7881451468ca9E', symObjAddr: 0x858, symBinAddr: 0x22958, symSize: 0x38 }
  - { offset: 0x95833, size: 0x8, addend: 0x0, symName: '__ZN4core3ops8function6FnOnce40call_once$u7b$$u7b$vtable.shim$u7d$$u7d$17h2c2e891932357e3cE', symObjAddr: 0x890, symBinAddr: 0x22990, symSize: 0x38 }
  - { offset: 0x95877, size: 0x8, addend: 0x0, symName: '__ZN4core3ops8function6FnOnce40call_once$u7b$$u7b$vtable.shim$u7d$$u7d$17h41f431c0987361f3E', symObjAddr: 0x8C8, symBinAddr: 0x229C8, symSize: 0x38 }
  - { offset: 0x958BB, size: 0x8, addend: 0x0, symName: '__ZN4core3ops8function6FnOnce40call_once$u7b$$u7b$vtable.shim$u7d$$u7d$17h58109d270162d77fE', symObjAddr: 0x900, symBinAddr: 0x22A00, symSize: 0x38 }
  - { offset: 0x958FF, size: 0x8, addend: 0x0, symName: '__ZN4core3ops8function6FnOnce40call_once$u7b$$u7b$vtable.shim$u7d$$u7d$17h7f7e8d2af993d6a5E', symObjAddr: 0x938, symBinAddr: 0x22A38, symSize: 0x38 }
  - { offset: 0x95943, size: 0x8, addend: 0x0, symName: '__ZN4core3ops8function6FnOnce40call_once$u7b$$u7b$vtable.shim$u7d$$u7d$17h933ba33c3cb6b03aE', symObjAddr: 0x970, symBinAddr: 0x22A70, symSize: 0x38 }
  - { offset: 0x95987, size: 0x8, addend: 0x0, symName: '__ZN4core3ops8function6FnOnce40call_once$u7b$$u7b$vtable.shim$u7d$$u7d$17h9f16ab423a106f1cE', symObjAddr: 0x9A8, symBinAddr: 0x22AA8, symSize: 0x38 }
  - { offset: 0x959CB, size: 0x8, addend: 0x0, symName: '__ZN4core3ops8function6FnOnce40call_once$u7b$$u7b$vtable.shim$u7d$$u7d$17hb85f7234ed9bc675E', symObjAddr: 0x9E0, symBinAddr: 0x22AE0, symSize: 0x38 }
  - { offset: 0x95A0F, size: 0x8, addend: 0x0, symName: '__ZN4core3ops8function6FnOnce40call_once$u7b$$u7b$vtable.shim$u7d$$u7d$17hc59cb0250072640dE', symObjAddr: 0xA18, symBinAddr: 0x22B18, symSize: 0x20 }
  - { offset: 0x95A53, size: 0x8, addend: 0x0, symName: '__ZN4core3ops8function6FnOnce40call_once$u7b$$u7b$vtable.shim$u7d$$u7d$17he3270cebdf6d48adE', symObjAddr: 0xA38, symBinAddr: 0x22B38, symSize: 0x38 }
  - { offset: 0x95A97, size: 0x8, addend: 0x0, symName: '__ZN4core3ops8function6FnOnce40call_once$u7b$$u7b$vtable.shim$u7d$$u7d$17hea81912ef331a195E', symObjAddr: 0xA70, symBinAddr: 0x22B70, symSize: 0x38 }
  - { offset: 0x95ADB, size: 0x8, addend: 0x0, symName: '__ZN4core3ops8function6FnOnce40call_once$u7b$$u7b$vtable.shim$u7d$$u7d$17hfc0193799fd852b4E', symObjAddr: 0xAA8, symBinAddr: 0x22BA8, symSize: 0x38 }
  - { offset: 0x95B1F, size: 0x8, addend: 0x0, symName: '__ZN4core3ops8function6FnOnce40call_once$u7b$$u7b$vtable.shim$u7d$$u7d$17hfc47b56fa9f6bd31E', symObjAddr: 0xAE0, symBinAddr: 0x22BE0, symSize: 0x38 }
  - { offset: 0x95B63, size: 0x8, addend: 0x0, symName: __ZN4core3ops8function6FnOnce9call_once17h06bf09165af998fbE, symObjAddr: 0xB18, symBinAddr: 0x22C18, symSize: 0x44 }
  - { offset: 0x95BA3, size: 0x8, addend: 0x0, symName: __ZN4core3ops8function6FnOnce9call_once17h0b32c70e5eff8bf7E, symObjAddr: 0xB5C, symBinAddr: 0x22C5C, symSize: 0x5C }
  - { offset: 0x95BE7, size: 0x8, addend: 0x0, symName: __ZN4core3ops8function6FnOnce9call_once17h11a00f404df8aae4E, symObjAddr: 0xBB8, symBinAddr: 0x22CB8, symSize: 0x58 }
  - { offset: 0x95C2B, size: 0x8, addend: 0x0, symName: __ZN4core3ops8function6FnOnce9call_once17h122a2e0e4bd452aeE, symObjAddr: 0xC10, symBinAddr: 0x22D10, symSize: 0x44 }
  - { offset: 0x95C6B, size: 0x8, addend: 0x0, symName: __ZN4core3ops8function6FnOnce9call_once17h166f8085c46135cdE, symObjAddr: 0xC54, symBinAddr: 0x22D54, symSize: 0x5C }
  - { offset: 0x95CAF, size: 0x8, addend: 0x0, symName: __ZN4core3ops8function6FnOnce9call_once17h343c46291fd59bdeE, symObjAddr: 0xCB0, symBinAddr: 0x22DB0, symSize: 0x58 }
  - { offset: 0x95CF3, size: 0x8, addend: 0x0, symName: __ZN4core3ops8function6FnOnce9call_once17h344ccca0dcc066afE, symObjAddr: 0xD08, symBinAddr: 0x22E08, symSize: 0x58 }
  - { offset: 0x95D37, size: 0x8, addend: 0x0, symName: __ZN4core3ops8function6FnOnce9call_once17h3734ae0e6b1ef3cbE, symObjAddr: 0xD60, symBinAddr: 0x22E60, symSize: 0x24 }
  - { offset: 0x95D7B, size: 0x8, addend: 0x0, symName: __ZN4core3ops8function6FnOnce9call_once17h39385dab78e5f3cfE, symObjAddr: 0xD84, symBinAddr: 0x22E84, symSize: 0x44 }
  - { offset: 0x95DBB, size: 0x8, addend: 0x0, symName: __ZN4core3ops8function6FnOnce9call_once17h4d588d572b9220c2E, symObjAddr: 0xDC8, symBinAddr: 0x22EC8, symSize: 0x44 }
  - { offset: 0x95DFB, size: 0x8, addend: 0x0, symName: __ZN4core3ops8function6FnOnce9call_once17h4db2d658fe90fb73E, symObjAddr: 0xE0C, symBinAddr: 0x22F0C, symSize: 0x3C }
  - { offset: 0x95E3F, size: 0x8, addend: 0x0, symName: __ZN4core3ops8function6FnOnce9call_once17h5086be1a790e14fbE, symObjAddr: 0xE48, symBinAddr: 0x22F48, symSize: 0x4C }
  - { offset: 0x95E83, size: 0x8, addend: 0x0, symName: __ZN4core3ops8function6FnOnce9call_once17h610b7d48a72b7ba2E, symObjAddr: 0xE94, symBinAddr: 0x22F94, symSize: 0x5C }
  - { offset: 0x95EC7, size: 0x8, addend: 0x0, symName: __ZN4core3ops8function6FnOnce9call_once17h61423d510a5cf67aE, symObjAddr: 0xEF0, symBinAddr: 0x22FF0, symSize: 0x3C }
  - { offset: 0x95F0B, size: 0x8, addend: 0x0, symName: __ZN4core3ops8function6FnOnce9call_once17h6a9e7ba17f6dc704E, symObjAddr: 0xF2C, symBinAddr: 0x2302C, symSize: 0x4C }
  - { offset: 0x95F4F, size: 0x8, addend: 0x0, symName: __ZN4core3ops8function6FnOnce9call_once17h6f49d4292ddc941aE, symObjAddr: 0xF78, symBinAddr: 0x23078, symSize: 0x58 }
  - { offset: 0x95F93, size: 0x8, addend: 0x0, symName: __ZN4core3ops8function6FnOnce9call_once17h7d5bd3d4a6143e12E, symObjAddr: 0xFD0, symBinAddr: 0x230D0, symSize: 0x24 }
  - { offset: 0x95FD7, size: 0x8, addend: 0x0, symName: __ZN4core3ops8function6FnOnce9call_once17h84f2720562391802E, symObjAddr: 0xFF4, symBinAddr: 0x230F4, symSize: 0x58 }
  - { offset: 0x9601B, size: 0x8, addend: 0x0, symName: __ZN4core3ops8function6FnOnce9call_once17h8676812baf7ecedbE, symObjAddr: 0x104C, symBinAddr: 0x2314C, symSize: 0x24 }
  - { offset: 0x9605F, size: 0x8, addend: 0x0, symName: __ZN4core3ops8function6FnOnce9call_once17h90a3f0d1476ac7cdE, symObjAddr: 0x1070, symBinAddr: 0x23170, symSize: 0x24 }
  - { offset: 0x960A3, size: 0x8, addend: 0x0, symName: __ZN4core3ops8function6FnOnce9call_once17h9fff40982b26e8b6E, symObjAddr: 0x1094, symBinAddr: 0x23194, symSize: 0x58 }
  - { offset: 0x960E7, size: 0x8, addend: 0x0, symName: __ZN4core3ops8function6FnOnce9call_once17ha50b5299cb0b328bE, symObjAddr: 0x10EC, symBinAddr: 0x231EC, symSize: 0x58 }
  - { offset: 0x9612B, size: 0x8, addend: 0x0, symName: __ZN4core3ops8function6FnOnce9call_once17haa42f34a673805fbE, symObjAddr: 0x1144, symBinAddr: 0x23244, symSize: 0x44 }
  - { offset: 0x9616B, size: 0x8, addend: 0x0, symName: __ZN4core3ops8function6FnOnce9call_once17hb00a4dd80e5f8790E, symObjAddr: 0x1188, symBinAddr: 0x23288, symSize: 0x4C }
  - { offset: 0x961AF, size: 0x8, addend: 0x0, symName: __ZN4core3ops8function6FnOnce9call_once17hb80ff5664d957d72E, symObjAddr: 0x11D4, symBinAddr: 0x232D4, symSize: 0x58 }
  - { offset: 0x961F3, size: 0x8, addend: 0x0, symName: __ZN4core3ops8function6FnOnce9call_once17hb8d3d32e106ffbb4E, symObjAddr: 0x122C, symBinAddr: 0x2332C, symSize: 0x24 }
  - { offset: 0x96237, size: 0x8, addend: 0x0, symName: __ZN4core3ops8function6FnOnce9call_once17hb9dd004f2d937516E, symObjAddr: 0x1250, symBinAddr: 0x23350, symSize: 0x5C }
  - { offset: 0x9627B, size: 0x8, addend: 0x0, symName: __ZN4core3ops8function6FnOnce9call_once17hc13f7ff8688aad6fE, symObjAddr: 0x12AC, symBinAddr: 0x233AC, symSize: 0x58 }
  - { offset: 0x962BF, size: 0x8, addend: 0x0, symName: __ZN4core3ops8function6FnOnce9call_once17hc387d2cd04f0f4cfE, symObjAddr: 0x1304, symBinAddr: 0x23404, symSize: 0x24 }
  - { offset: 0x96303, size: 0x8, addend: 0x0, symName: __ZN4core3ops8function6FnOnce9call_once17hd177fdea68518ff9E, symObjAddr: 0x1328, symBinAddr: 0x23428, symSize: 0x5C }
  - { offset: 0x96347, size: 0x8, addend: 0x0, symName: __ZN4core3ops8function6FnOnce9call_once17hd6041bd33582a206E, symObjAddr: 0x13A8, symBinAddr: 0x23484, symSize: 0x4C }
  - { offset: 0x9638B, size: 0x8, addend: 0x0, symName: __ZN4core3ops8function6FnOnce9call_once17he79b12b73bc95d31E, symObjAddr: 0x13F4, symBinAddr: 0x234D0, symSize: 0x5C }
  - { offset: 0x963CF, size: 0x8, addend: 0x0, symName: __ZN4core3ops8function6FnOnce9call_once17hf27ec5f60a49a952E, symObjAddr: 0x1450, symBinAddr: 0x2352C, symSize: 0x58 }
  - { offset: 0x96413, size: 0x8, addend: 0x0, symName: __ZN4core3ops8function6FnOnce9call_once17hf53584db17c42c91E, symObjAddr: 0x14A8, symBinAddr: 0x23584, symSize: 0x44 }
  - { offset: 0x96453, size: 0x8, addend: 0x0, symName: __ZN4core3ops8function6FnOnce9call_once17hf80b65bb2764a06bE, symObjAddr: 0x14EC, symBinAddr: 0x235C8, symSize: 0x5C }
  - { offset: 0x96497, size: 0x8, addend: 0x0, symName: __ZN4core3ops8function6FnOnce9call_once17hfc8630fbf82a6c5fE, symObjAddr: 0x1548, symBinAddr: 0x23624, symSize: 0x4C }
  - { offset: 0x96547, size: 0x8, addend: 0x0, symName: '__ZN100_$LT$core..array..iter..iter_inner..PolymorphicIter$LT$DATA$GT$$u20$as$u20$core..ops..drop..Drop$GT$4drop17h22ba45cf9b26bc3bE', symObjAddr: 0x0, symBinAddr: 0x22100, symSize: 0x30 }
  - { offset: 0x965EF, size: 0x8, addend: 0x0, symName: '__ZN82_$LT$core..array..iter..IntoIter$LT$T$C$_$GT$$u20$as$u20$core..ops..drop..Drop$GT$4drop17h95cae409aaed0834E', symObjAddr: 0x48C4, symBinAddr: 0x26748, symSize: 0x14 }
  - { offset: 0x96622, size: 0x8, addend: 0x0, symName: '__ZN82_$LT$core..array..iter..IntoIter$LT$T$C$_$GT$$u20$as$u20$core..ops..drop..Drop$GT$4drop17hc9e18654b88c8231E', symObjAddr: 0x48D8, symBinAddr: 0x2675C, symSize: 0x30 }
  - { offset: 0x96782, size: 0x8, addend: 0x0, symName: __ZN4core6marker5FnPtr4addr17ha582ca7514245af7E, symObjAddr: 0x3E18, symBinAddr: 0x25C9C, symSize: 0x14 }
  - { offset: 0x98970, size: 0x8, addend: 0x0, symName: '__ZN95_$LT$core..slice..sort..stable..merge..MergeState$LT$T$GT$$u20$as$u20$core..ops..drop..Drop$GT$4drop17h73ed9b3ec3d5c361E', symObjAddr: 0x5064, symBinAddr: 0x26EE8, symSize: 0xF0 }
  - { offset: 0x98A66, size: 0x8, addend: 0x0, symName: '__ZN95_$LT$core..slice..sort..stable..merge..MergeState$LT$T$GT$$u20$as$u20$core..ops..drop..Drop$GT$4drop17h80a66f9e141fad48E', symObjAddr: 0x5154, symBinAddr: 0x26FD8, symSize: 0xF0 }
  - { offset: 0x98BDA, size: 0x8, addend: 0x0, symName: '__ZN99_$LT$core..slice..sort..shared..smallsort..CopyOnDrop$LT$T$GT$$u20$as$u20$core..ops..drop..Drop$GT$4drop17h0beed429ab88a463E', symObjAddr: 0x5480, symBinAddr: 0x272CC, symSize: 0x88 }
  - { offset: 0x98C3B, size: 0x8, addend: 0x0, symName: '__ZN99_$LT$core..slice..sort..shared..smallsort..CopyOnDrop$LT$T$GT$$u20$as$u20$core..ops..drop..Drop$GT$4drop17h5d022726f45f3031E', symObjAddr: 0x5508, symBinAddr: 0x27354, symSize: 0x88 }
  - { offset: 0x9A139, size: 0x8, addend: 0x0, symName: '__ZN77_$LT$alloc..raw_vec..RawVec$LT$T$C$A$GT$$u20$as$u20$core..ops..drop..Drop$GT$4drop17h204f1531d82d8989E', symObjAddr: 0x44EC, symBinAddr: 0x26370, symSize: 0x34 }
  - { offset: 0x9A175, size: 0x8, addend: 0x0, symName: '__ZN77_$LT$alloc..raw_vec..RawVec$LT$T$C$A$GT$$u20$as$u20$core..ops..drop..Drop$GT$4drop17h2ec016e83ae83db5E', symObjAddr: 0x4520, symBinAddr: 0x263A4, symSize: 0x34 }
  - { offset: 0x9A1B1, size: 0x8, addend: 0x0, symName: '__ZN77_$LT$alloc..raw_vec..RawVec$LT$T$C$A$GT$$u20$as$u20$core..ops..drop..Drop$GT$4drop17h33972f45b7b977fdE', symObjAddr: 0x4554, symBinAddr: 0x263D8, symSize: 0x34 }
  - { offset: 0x9A1ED, size: 0x8, addend: 0x0, symName: '__ZN77_$LT$alloc..raw_vec..RawVec$LT$T$C$A$GT$$u20$as$u20$core..ops..drop..Drop$GT$4drop17h42a17fcb6ec6a336E', symObjAddr: 0x4588, symBinAddr: 0x2640C, symSize: 0x34 }
  - { offset: 0x9A229, size: 0x8, addend: 0x0, symName: '__ZN77_$LT$alloc..raw_vec..RawVec$LT$T$C$A$GT$$u20$as$u20$core..ops..drop..Drop$GT$4drop17h45820066381ce734E', symObjAddr: 0x45BC, symBinAddr: 0x26440, symSize: 0x34 }
  - { offset: 0x9A265, size: 0x8, addend: 0x0, symName: '__ZN77_$LT$alloc..raw_vec..RawVec$LT$T$C$A$GT$$u20$as$u20$core..ops..drop..Drop$GT$4drop17h77be751c2455b8fcE', symObjAddr: 0x45F0, symBinAddr: 0x26474, symSize: 0x34 }
  - { offset: 0x9A2A1, size: 0x8, addend: 0x0, symName: '__ZN77_$LT$alloc..raw_vec..RawVec$LT$T$C$A$GT$$u20$as$u20$core..ops..drop..Drop$GT$4drop17h7c03c95ebb2a9665E', symObjAddr: 0x4624, symBinAddr: 0x264A8, symSize: 0x30 }
  - { offset: 0x9A2DD, size: 0x8, addend: 0x0, symName: '__ZN77_$LT$alloc..raw_vec..RawVec$LT$T$C$A$GT$$u20$as$u20$core..ops..drop..Drop$GT$4drop17hbd821f0ebbc58af5E', symObjAddr: 0x4654, symBinAddr: 0x264D8, symSize: 0x34 }
  - { offset: 0x9A319, size: 0x8, addend: 0x0, symName: '__ZN77_$LT$alloc..raw_vec..RawVec$LT$T$C$A$GT$$u20$as$u20$core..ops..drop..Drop$GT$4drop17hc15682c3d842021bE', symObjAddr: 0x4688, symBinAddr: 0x2650C, symSize: 0x34 }
  - { offset: 0x9A355, size: 0x8, addend: 0x0, symName: '__ZN77_$LT$alloc..raw_vec..RawVec$LT$T$C$A$GT$$u20$as$u20$core..ops..drop..Drop$GT$4drop17hf2c28303f779c43cE', symObjAddr: 0x46BC, symBinAddr: 0x26540, symSize: 0x34 }
  - { offset: 0x9A391, size: 0x8, addend: 0x0, symName: '__ZN77_$LT$alloc..raw_vec..RawVec$LT$T$C$A$GT$$u20$as$u20$core..ops..drop..Drop$GT$4drop17hf55a916e2a16151fE', symObjAddr: 0x46F0, symBinAddr: 0x26574, symSize: 0x34 }
  - { offset: 0x9A4B8, size: 0x8, addend: 0x0, symName: '__ZN111_$LT$alloc..vec..in_place_drop..InPlaceDstDataSrcBufDrop$LT$Src$C$Dest$GT$$u20$as$u20$core..ops..drop..Drop$GT$4drop17h3b0b4a78d4960f1dE', symObjAddr: 0x30, symBinAddr: 0x22130, symSize: 0x88 }
  - { offset: 0x9A634, size: 0x8, addend: 0x0, symName: '__ZN111_$LT$alloc..vec..in_place_drop..InPlaceDstDataSrcBufDrop$LT$Src$C$Dest$GT$$u20$as$u20$core..ops..drop..Drop$GT$4drop17hcec74c0e883db623E', symObjAddr: 0xB8, symBinAddr: 0x221B8, symSize: 0xB4 }
  - { offset: 0x9A7B0, size: 0x8, addend: 0x0, symName: '__ZN111_$LT$alloc..vec..in_place_drop..InPlaceDstDataSrcBufDrop$LT$Src$C$Dest$GT$$u20$as$u20$core..ops..drop..Drop$GT$4drop17hcfdaac2b7837efbdE', symObjAddr: 0x16C, symBinAddr: 0x2226C, symSize: 0x88 }
  - { offset: 0x9A932, size: 0x8, addend: 0x0, symName: '__ZN89_$LT$alloc..vec..in_place_drop..InPlaceDrop$LT$T$GT$$u20$as$u20$core..ops..drop..Drop$GT$4drop17h587c77742a004de0E', symObjAddr: 0x4FF4, symBinAddr: 0x26E78, symSize: 0x30 }
  - { offset: 0x9A963, size: 0x8, addend: 0x0, symName: '__ZN89_$LT$alloc..vec..in_place_drop..InPlaceDrop$LT$T$GT$$u20$as$u20$core..ops..drop..Drop$GT$4drop17hbd33743cdd011a70E', symObjAddr: 0x5024, symBinAddr: 0x26EA8, symSize: 0x40 }
  - { offset: 0x9AB12, size: 0x8, addend: 0x0, symName: '__ZN157_$LT$$LT$alloc..vec..into_iter..IntoIter$LT$T$C$A$GT$$u20$as$u20$core..ops..drop..Drop$GT$..drop..DropGuard$LT$T$C$A$GT$$u20$as$u20$core..ops..drop..Drop$GT$4drop17h0a441258b88968c3E', symObjAddr: 0x1F4, symBinAddr: 0x222F4, symSize: 0x6C }
  - { offset: 0x9AC55, size: 0x8, addend: 0x0, symName: '__ZN157_$LT$$LT$alloc..vec..into_iter..IntoIter$LT$T$C$A$GT$$u20$as$u20$core..ops..drop..Drop$GT$..drop..DropGuard$LT$T$C$A$GT$$u20$as$u20$core..ops..drop..Drop$GT$4drop17h27ed02500b7759c2E', symObjAddr: 0x260, symBinAddr: 0x22360, symSize: 0x6C }
  - { offset: 0x9AD98, size: 0x8, addend: 0x0, symName: '__ZN157_$LT$$LT$alloc..vec..into_iter..IntoIter$LT$T$C$A$GT$$u20$as$u20$core..ops..drop..Drop$GT$..drop..DropGuard$LT$T$C$A$GT$$u20$as$u20$core..ops..drop..Drop$GT$4drop17h82f1d5b6e73c0911E', symObjAddr: 0x2CC, symBinAddr: 0x223CC, symSize: 0x6C }
  - { offset: 0x9AEDB, size: 0x8, addend: 0x0, symName: '__ZN157_$LT$$LT$alloc..vec..into_iter..IntoIter$LT$T$C$A$GT$$u20$as$u20$core..ops..drop..Drop$GT$..drop..DropGuard$LT$T$C$A$GT$$u20$as$u20$core..ops..drop..Drop$GT$4drop17hb20622e07504782dE', symObjAddr: 0x338, symBinAddr: 0x22438, symSize: 0x6C }
  - { offset: 0x9B01E, size: 0x8, addend: 0x0, symName: '__ZN157_$LT$$LT$alloc..vec..into_iter..IntoIter$LT$T$C$A$GT$$u20$as$u20$core..ops..drop..Drop$GT$..drop..DropGuard$LT$T$C$A$GT$$u20$as$u20$core..ops..drop..Drop$GT$4drop17hbe4a847cde804fd7E', symObjAddr: 0x3A4, symBinAddr: 0x224A4, symSize: 0x6C }
  - { offset: 0x9B161, size: 0x8, addend: 0x0, symName: '__ZN157_$LT$$LT$alloc..vec..into_iter..IntoIter$LT$T$C$A$GT$$u20$as$u20$core..ops..drop..Drop$GT$..drop..DropGuard$LT$T$C$A$GT$$u20$as$u20$core..ops..drop..Drop$GT$4drop17hd7b36ee0ae8d23d8E', symObjAddr: 0x410, symBinAddr: 0x22510, symSize: 0x6C }
  - { offset: 0x9B2A4, size: 0x8, addend: 0x0, symName: '__ZN157_$LT$$LT$alloc..vec..into_iter..IntoIter$LT$T$C$A$GT$$u20$as$u20$core..ops..drop..Drop$GT$..drop..DropGuard$LT$T$C$A$GT$$u20$as$u20$core..ops..drop..Drop$GT$4drop17hdfdccce6416893b0E', symObjAddr: 0x47C, symBinAddr: 0x2257C, symSize: 0x6C }
  - { offset: 0x9B3E7, size: 0x8, addend: 0x0, symName: '__ZN157_$LT$$LT$alloc..vec..into_iter..IntoIter$LT$T$C$A$GT$$u20$as$u20$core..ops..drop..Drop$GT$..drop..DropGuard$LT$T$C$A$GT$$u20$as$u20$core..ops..drop..Drop$GT$4drop17he7f946d3c49215bfE', symObjAddr: 0x4E8, symBinAddr: 0x225E8, symSize: 0x6C }
  - { offset: 0x9B664, size: 0x8, addend: 0x0, symName: '__ZN86_$LT$alloc..vec..into_iter..IntoIter$LT$T$C$A$GT$$u20$as$u20$core..ops..drop..Drop$GT$4drop17h275ffeadc649bda2E', symObjAddr: 0x4AD8, symBinAddr: 0x2695C, symSize: 0x78 }
  - { offset: 0x9B6B6, size: 0x8, addend: 0x0, symName: '__ZN86_$LT$alloc..vec..into_iter..IntoIter$LT$T$C$A$GT$$u20$as$u20$core..ops..drop..Drop$GT$4drop17h2c75135e3e201e64E', symObjAddr: 0x4B50, symBinAddr: 0x269D4, symSize: 0x64 }
  - { offset: 0x9B708, size: 0x8, addend: 0x0, symName: '__ZN86_$LT$alloc..vec..into_iter..IntoIter$LT$T$C$A$GT$$u20$as$u20$core..ops..drop..Drop$GT$4drop17h8df87ec05e843b23E', symObjAddr: 0x4BB4, symBinAddr: 0x26A38, symSize: 0x64 }
  - { offset: 0x9B75A, size: 0x8, addend: 0x0, symName: '__ZN86_$LT$alloc..vec..into_iter..IntoIter$LT$T$C$A$GT$$u20$as$u20$core..ops..drop..Drop$GT$4drop17h98dac25050c4db5cE', symObjAddr: 0x4C18, symBinAddr: 0x26A9C, symSize: 0x64 }
  - { offset: 0x9B7AC, size: 0x8, addend: 0x0, symName: '__ZN86_$LT$alloc..vec..into_iter..IntoIter$LT$T$C$A$GT$$u20$as$u20$core..ops..drop..Drop$GT$4drop17hb04ebfe8f604d5a1E', symObjAddr: 0x4C7C, symBinAddr: 0x26B00, symSize: 0x78 }
  - { offset: 0x9B7FE, size: 0x8, addend: 0x0, symName: '__ZN86_$LT$alloc..vec..into_iter..IntoIter$LT$T$C$A$GT$$u20$as$u20$core..ops..drop..Drop$GT$4drop17hbeee76c7335c4647E', symObjAddr: 0x4CF4, symBinAddr: 0x26B78, symSize: 0x64 }
  - { offset: 0x9B850, size: 0x8, addend: 0x0, symName: '__ZN86_$LT$alloc..vec..into_iter..IntoIter$LT$T$C$A$GT$$u20$as$u20$core..ops..drop..Drop$GT$4drop17hd9d5383eafcb447aE', symObjAddr: 0x4D58, symBinAddr: 0x26BDC, symSize: 0x64 }
  - { offset: 0x9B8A2, size: 0x8, addend: 0x0, symName: '__ZN86_$LT$alloc..vec..into_iter..IntoIter$LT$T$C$A$GT$$u20$as$u20$core..ops..drop..Drop$GT$4drop17hdaa6cc65da023608E', symObjAddr: 0x4DBC, symBinAddr: 0x26C40, symSize: 0x78 }
  - { offset: 0x9BCC9, size: 0x8, addend: 0x0, symName: '__ZN70_$LT$alloc..vec..Vec$LT$T$C$A$GT$$u20$as$u20$core..ops..drop..Drop$GT$4drop17h038de4cb9c99a0b9E', symObjAddr: 0x3E7C, symBinAddr: 0x25D00, symSize: 0x38 }
  - { offset: 0x9BD79, size: 0x8, addend: 0x0, symName: '__ZN70_$LT$alloc..vec..Vec$LT$T$C$A$GT$$u20$as$u20$core..ops..drop..Drop$GT$4drop17h1b30fd8dcc4e6f32E', symObjAddr: 0x3EB4, symBinAddr: 0x25D38, symSize: 0x24 }
  - { offset: 0x9BE29, size: 0x8, addend: 0x0, symName: '__ZN70_$LT$alloc..vec..Vec$LT$T$C$A$GT$$u20$as$u20$core..ops..drop..Drop$GT$4drop17h37414b17a7627eb2E', symObjAddr: 0x3ED8, symBinAddr: 0x25D5C, symSize: 0x38 }
  - { offset: 0x9BED9, size: 0x8, addend: 0x0, symName: '__ZN70_$LT$alloc..vec..Vec$LT$T$C$A$GT$$u20$as$u20$core..ops..drop..Drop$GT$4drop17h5f9594581539bdadE', symObjAddr: 0x3F10, symBinAddr: 0x25D94, symSize: 0x24 }
  - { offset: 0x9BF89, size: 0x8, addend: 0x0, symName: '__ZN70_$LT$alloc..vec..Vec$LT$T$C$A$GT$$u20$as$u20$core..ops..drop..Drop$GT$4drop17h6479dac2ac7e8ca8E', symObjAddr: 0x3F34, symBinAddr: 0x25DB8, symSize: 0x24 }
  - { offset: 0x9C039, size: 0x8, addend: 0x0, symName: '__ZN70_$LT$alloc..vec..Vec$LT$T$C$A$GT$$u20$as$u20$core..ops..drop..Drop$GT$4drop17habf9c1a1ea41288fE', symObjAddr: 0x3F58, symBinAddr: 0x25DDC, symSize: 0x38 }
  - { offset: 0x9C0E9, size: 0x8, addend: 0x0, symName: '__ZN70_$LT$alloc..vec..Vec$LT$T$C$A$GT$$u20$as$u20$core..ops..drop..Drop$GT$4drop17had23c477d1032a93E', symObjAddr: 0x3F90, symBinAddr: 0x25E14, symSize: 0x24 }
  - { offset: 0x9C199, size: 0x8, addend: 0x0, symName: '__ZN70_$LT$alloc..vec..Vec$LT$T$C$A$GT$$u20$as$u20$core..ops..drop..Drop$GT$4drop17hb793f453aded6742E', symObjAddr: 0x3FB4, symBinAddr: 0x25E38, symSize: 0x38 }
  - { offset: 0x9C249, size: 0x8, addend: 0x0, symName: '__ZN70_$LT$alloc..vec..Vec$LT$T$C$A$GT$$u20$as$u20$core..ops..drop..Drop$GT$4drop17he042e069d88f84f9E', symObjAddr: 0x3FEC, symBinAddr: 0x25E70, symSize: 0x38 }
  - { offset: 0x9C2F9, size: 0x8, addend: 0x0, symName: '__ZN70_$LT$alloc..vec..Vec$LT$T$C$A$GT$$u20$as$u20$core..ops..drop..Drop$GT$4drop17heae2981fddfd7967E', symObjAddr: 0x4024, symBinAddr: 0x25EA8, symSize: 0x24 }
  - { offset: 0x9C3A9, size: 0x8, addend: 0x0, symName: '__ZN70_$LT$alloc..vec..Vec$LT$T$C$A$GT$$u20$as$u20$core..ops..drop..Drop$GT$4drop17hf924588226d8ae92E', symObjAddr: 0x4048, symBinAddr: 0x25ECC, symSize: 0x38 }
  - { offset: 0x9CB36, size: 0x8, addend: 0x0, symName: '__ZN169_$LT$$LT$alloc..collections..linked_list..LinkedList$LT$T$C$A$GT$$u20$as$u20$core..ops..drop..Drop$GT$..drop..DropGuard$LT$T$C$A$GT$$u20$as$u20$core..ops..drop..Drop$GT$4drop17h38c1926bb9454415E', symObjAddr: 0x554, symBinAddr: 0x22654, symSize: 0x16C }
  - { offset: 0x9CCD9, size: 0x8, addend: 0x0, symName: '__ZN98_$LT$alloc..collections..linked_list..LinkedList$LT$T$C$A$GT$$u20$as$u20$core..ops..drop..Drop$GT$4drop17h146bf7a581bf50d7E', symObjAddr: 0x52B8, symBinAddr: 0x27104, symSize: 0x1C8 }
  - { offset: 0x9CEA5, size: 0x8, addend: 0x0, symName: '__ZN88_$LT$alloc..collections..binary_heap..Hole$LT$T$GT$$u20$as$u20$core..ops..drop..Drop$GT$4drop17h5248305414312904E', symObjAddr: 0x4E34, symBinAddr: 0x26CB8, symSize: 0xE0 }
  - { offset: 0x9CF60, size: 0x8, addend: 0x0, symName: '__ZN88_$LT$alloc..collections..binary_heap..Hole$LT$T$GT$$u20$as$u20$core..ops..drop..Drop$GT$4drop17he09ce789e66d477bE', symObjAddr: 0x4F14, symBinAddr: 0x26D98, symSize: 0xE0 }
  - { offset: 0x9D1BA, size: 0x8, addend: 0x0, symName: '__ZN72_$LT$alloc..boxed..Box$LT$T$C$A$GT$$u20$as$u20$core..ops..drop..Drop$GT$4drop17hc10a9bd2f189b3caE', symObjAddr: 0x40D8, symBinAddr: 0x25F5C, symSize: 0xB0 }
  - { offset: 0x9D2F3, size: 0x8, addend: 0x0, symName: '__ZN72_$LT$alloc..boxed..Box$LT$T$C$A$GT$$u20$as$u20$core..ops..drop..Drop$GT$4drop17hee83a015f95e093eE', symObjAddr: 0x4188, symBinAddr: 0x2600C, symSize: 0xB0 }
  - { offset: 0x9E8FB, size: 0x8, addend: 0x0, symName: '__ZN79_$LT$hashbrown..raw..RawTable$LT$T$C$A$GT$$u20$as$u20$core..ops..drop..Drop$GT$4drop17h05b7df21bd15ab3aE', symObjAddr: 0x4724, symBinAddr: 0x265A8, symSize: 0x3C }
  - { offset: 0x9E937, size: 0x8, addend: 0x0, symName: '__ZN79_$LT$hashbrown..raw..RawTable$LT$T$C$A$GT$$u20$as$u20$core..ops..drop..Drop$GT$4drop17h8bbdca877ef961c1E', symObjAddr: 0x4760, symBinAddr: 0x265E4, symSize: 0x3C }
  - { offset: 0x9E973, size: 0x8, addend: 0x0, symName: '__ZN79_$LT$hashbrown..raw..RawTable$LT$T$C$A$GT$$u20$as$u20$core..ops..drop..Drop$GT$4drop17h93b24f1d3045a30aE', symObjAddr: 0x479C, symBinAddr: 0x26620, symSize: 0x3C }
  - { offset: 0x9E9AF, size: 0x8, addend: 0x0, symName: '__ZN79_$LT$hashbrown..raw..RawTable$LT$T$C$A$GT$$u20$as$u20$core..ops..drop..Drop$GT$4drop17h9c44e6831d5f9732E', symObjAddr: 0x47D8, symBinAddr: 0x2665C, symSize: 0x3C }
  - { offset: 0x9E9EB, size: 0x8, addend: 0x0, symName: '__ZN79_$LT$hashbrown..raw..RawTable$LT$T$C$A$GT$$u20$as$u20$core..ops..drop..Drop$GT$4drop17ha5f7028fe964a35bE', symObjAddr: 0x4814, symBinAddr: 0x26698, symSize: 0x38 }
  - { offset: 0x9EA27, size: 0x8, addend: 0x0, symName: '__ZN79_$LT$hashbrown..raw..RawTable$LT$T$C$A$GT$$u20$as$u20$core..ops..drop..Drop$GT$4drop17he87466053bb09f92E', symObjAddr: 0x484C, symBinAddr: 0x266D0, symSize: 0x3C }
  - { offset: 0x9EA63, size: 0x8, addend: 0x0, symName: '__ZN79_$LT$hashbrown..raw..RawTable$LT$T$C$A$GT$$u20$as$u20$core..ops..drop..Drop$GT$4drop17he9aa5e1d60ee3242E', symObjAddr: 0x4888, symBinAddr: 0x2670C, symSize: 0x3C }
  - { offset: 0x9EAA5, size: 0x8, addend: 0x0, symName: '__ZN82_$LT$hashbrown..raw..RawIntoIter$LT$T$C$A$GT$$u20$as$u20$core..ops..drop..Drop$GT$4drop17h0cc19923da04293fE', symObjAddr: 0x4908, symBinAddr: 0x2678C, symSize: 0x74 }
  - { offset: 0x9EB1F, size: 0x8, addend: 0x0, symName: '__ZN82_$LT$hashbrown..raw..RawIntoIter$LT$T$C$A$GT$$u20$as$u20$core..ops..drop..Drop$GT$4drop17h206311d147864815E', symObjAddr: 0x497C, symBinAddr: 0x26800, symSize: 0x74 }
  - { offset: 0x9EB99, size: 0x8, addend: 0x0, symName: '__ZN82_$LT$hashbrown..raw..RawIntoIter$LT$T$C$A$GT$$u20$as$u20$core..ops..drop..Drop$GT$4drop17h7021be3c23990bf8E', symObjAddr: 0x49F0, symBinAddr: 0x26874, symSize: 0x74 }
  - { offset: 0x9EC13, size: 0x8, addend: 0x0, symName: '__ZN82_$LT$hashbrown..raw..RawIntoIter$LT$T$C$A$GT$$u20$as$u20$core..ops..drop..Drop$GT$4drop17hb15b699e68919d52E', symObjAddr: 0x4A64, symBinAddr: 0x268E8, symSize: 0x74 }
  - { offset: 0x9F854, size: 0x8, addend: 0x0, symName: '__ZN69_$LT$pyo3..instance..Py$LT$T$GT$$u20$as$u20$core..ops..drop..Drop$GT$4drop17h98cca34df59cb387E', symObjAddr: 0x3E2C, symBinAddr: 0x25CB0, symSize: 0x28 }
  - { offset: 0x9F887, size: 0x8, addend: 0x0, symName: '__ZN69_$LT$pyo3..instance..Py$LT$T$GT$$u20$as$u20$core..ops..drop..Drop$GT$4drop17hbc7b7420ee1521a8E', symObjAddr: 0x3E54, symBinAddr: 0x25CD8, symSize: 0x28 }
  - { offset: 0x9F8C0, size: 0x8, addend: 0x0, symName: '__ZN72_$LT$pyo3..instance..Bound$LT$T$GT$$u20$as$u20$core..ops..drop..Drop$GT$4drop17haeb26b508f1dc7c3E', symObjAddr: 0x4238, symBinAddr: 0x260BC, symSize: 0x144 }
  - { offset: 0x9F911, size: 0x8, addend: 0x0, symName: '__ZN72_$LT$pyo3..instance..Bound$LT$T$GT$$u20$as$u20$core..ops..drop..Drop$GT$4drop17hb891e48d2c85c31aE', symObjAddr: 0x437C, symBinAddr: 0x26200, symSize: 0x144 }
  - { offset: 0x9FB3C, size: 0x8, addend: 0x0, symName: '__ZN70_$LT$pyo3..pycell..PyRef$LT$T$GT$$u20$as$u20$core..ops..drop..Drop$GT$4drop17h63c919d7dc77d03eE', symObjAddr: 0x4080, symBinAddr: 0x25F04, symSize: 0x2C }
  - { offset: 0x9FB6F, size: 0x8, addend: 0x0, symName: '__ZN70_$LT$pyo3..pycell..PyRef$LT$T$GT$$u20$as$u20$core..ops..drop..Drop$GT$4drop17he495f1a6a96013ddE', symObjAddr: 0x40AC, symBinAddr: 0x25F30, symSize: 0x2C }
  - { offset: 0x9FBA8, size: 0x8, addend: 0x0, symName: '__ZN73_$LT$pyo3..pycell..PyRefMut$LT$T$GT$$u20$as$u20$core..ops..drop..Drop$GT$4drop17he5b8fb2bb5596154E', symObjAddr: 0x44C0, symBinAddr: 0x26344, symSize: 0x2C }
  - { offset: 0xA0EA5, size: 0x8, addend: 0x0, symName: '__ZN96_$LT$rayon..iter..collect..consumer..CollectResult$LT$T$GT$$u20$as$u20$core..ops..drop..Drop$GT$4drop17h141e7e3630eb0444E', symObjAddr: 0x527C, symBinAddr: 0x270C8, symSize: 0x3C }
  - { offset: 0xA3477, size: 0x8, addend: 0x0, symName: '__ZN10rayon_core3job18JobResult$LT$T$GT$17into_return_value17h62431ea8b738eacaE', symObjAddr: 0x0, symBinAddr: 0x273DC, symSize: 0x90 }
  - { offset: 0xA39E6, size: 0x8, addend: 0x0, symName: '__ZN10rayon_core3job18JobResult$LT$T$GT$4call28_$u7b$$u7b$closure$u7d$$u7d$17h288f1f1664a424c6E', symObjAddr: 0x690, symBinAddr: 0x27A6C, symSize: 0x48 }
  - { offset: 0xA3A26, size: 0x8, addend: 0x0, symName: '__ZN10rayon_core3job18JobResult$LT$T$GT$4call28_$u7b$$u7b$closure$u7d$$u7d$17h3126bb51300a0eccE', symObjAddr: 0x6D8, symBinAddr: 0x27AB4, symSize: 0x48 }
  - { offset: 0xA3A66, size: 0x8, addend: 0x0, symName: '__ZN10rayon_core3job18JobResult$LT$T$GT$4call28_$u7b$$u7b$closure$u7d$$u7d$17h91421b565dc9aef6E', symObjAddr: 0x720, symBinAddr: 0x27AFC, symSize: 0x48 }
  - { offset: 0xA3AA6, size: 0x8, addend: 0x0, symName: '__ZN10rayon_core3job18JobResult$LT$T$GT$4call28_$u7b$$u7b$closure$u7d$$u7d$17hcee003917d83b608E', symObjAddr: 0x768, symBinAddr: 0x27B44, symSize: 0x48 }
  - { offset: 0xA3AE6, size: 0x8, addend: 0x0, symName: '__ZN10rayon_core3job18JobResult$LT$T$GT$4call28_$u7b$$u7b$closure$u7d$$u7d$17hdc82f141947af979E', symObjAddr: 0x7B0, symBinAddr: 0x27B8C, symSize: 0x48 }
  - { offset: 0xA3B26, size: 0x8, addend: 0x0, symName: '__ZN10rayon_core3job18JobResult$LT$T$GT$4call28_$u7b$$u7b$closure$u7d$$u7d$17hfbe4af7350ccc7e0E', symObjAddr: 0x7F8, symBinAddr: 0x27BD4, symSize: 0x48 }
  - { offset: 0xA41DA, size: 0x8, addend: 0x0, symName: '__ZN83_$LT$rayon_core..job..StackJob$LT$L$C$F$C$R$GT$$u20$as$u20$rayon_core..job..Job$GT$7execute17h364a18dc124b740dE', symObjAddr: 0x12F0, symBinAddr: 0x286CC, symSize: 0x2F0 }
  - { offset: 0xA42B8, size: 0x8, addend: 0x0, symName: '__ZN83_$LT$rayon_core..job..StackJob$LT$L$C$F$C$R$GT$$u20$as$u20$rayon_core..job..Job$GT$7execute17h5293c9ea7d9d7dd2E', symObjAddr: 0x15E0, symBinAddr: 0x289BC, symSize: 0x2E4 }
  - { offset: 0xA4396, size: 0x8, addend: 0x0, symName: '__ZN83_$LT$rayon_core..job..StackJob$LT$L$C$F$C$R$GT$$u20$as$u20$rayon_core..job..Job$GT$7execute17h5ced2fd7da023d84E', symObjAddr: 0x18C4, symBinAddr: 0x28CA0, symSize: 0x2E8 }
  - { offset: 0xA4474, size: 0x8, addend: 0x0, symName: '__ZN83_$LT$rayon_core..job..StackJob$LT$L$C$F$C$R$GT$$u20$as$u20$rayon_core..job..Job$GT$7execute17ha5ca792ff68aea5cE', symObjAddr: 0x1BAC, symBinAddr: 0x28F88, symSize: 0x2E4 }
  - { offset: 0xA4552, size: 0x8, addend: 0x0, symName: '__ZN83_$LT$rayon_core..job..StackJob$LT$L$C$F$C$R$GT$$u20$as$u20$rayon_core..job..Job$GT$7execute17haf586827b1382261E', symObjAddr: 0x1E90, symBinAddr: 0x2926C, symSize: 0x2DC }
  - { offset: 0xA4630, size: 0x8, addend: 0x0, symName: '__ZN83_$LT$rayon_core..job..StackJob$LT$L$C$F$C$R$GT$$u20$as$u20$rayon_core..job..Job$GT$7execute17hde92eee32c6c205bE', symObjAddr: 0x216C, symBinAddr: 0x29548, symSize: 0x2DC }
  - { offset: 0xA608A, size: 0x8, addend: 0x0, symName: '__ZN10rayon_core3job18JobResult$LT$T$GT$17into_return_value17h62431ea8b738eacaE', symObjAddr: 0x0, symBinAddr: 0x273DC, symSize: 0x90 }
  - { offset: 0xA60D3, size: 0x8, addend: 0x0, symName: '__ZN10rayon_core3job18JobResult$LT$T$GT$17into_return_value17h644cb25f0fed2cbeE', symObjAddr: 0x90, symBinAddr: 0x2746C, symSize: 0x90 }
  - { offset: 0xA63F5, size: 0x8, addend: 0x0, symName: '__ZN10rayon_core3job18JobResult$LT$T$GT$17into_return_value17ha294b7d4375b03a1E', symObjAddr: 0x120, symBinAddr: 0x274FC, symSize: 0x90 }
  - { offset: 0xA643E, size: 0x8, addend: 0x0, symName: '__ZN10rayon_core3job18JobResult$LT$T$GT$17into_return_value17he57dc340ec739d16E', symObjAddr: 0x1B0, symBinAddr: 0x2758C, symSize: 0x90 }
  - { offset: 0xA6565, size: 0x8, addend: 0x0, symName: '__ZN10rayon_core3job18JobResult$LT$T$GT$4call17h09d3dfbb3fd63b42E', symObjAddr: 0x240, symBinAddr: 0x2761C, symSize: 0xC0 }
  - { offset: 0xA65E2, size: 0x8, addend: 0x0, symName: '__ZN10rayon_core3job18JobResult$LT$T$GT$4call17h15c4f805713a6f01E', symObjAddr: 0x300, symBinAddr: 0x276DC, symSize: 0xC0 }
  - { offset: 0xA6652, size: 0x8, addend: 0x0, symName: '__ZN10rayon_core3job18JobResult$LT$T$GT$4call17h16bff80ca4228c57E', symObjAddr: 0x3C0, symBinAddr: 0x2779C, symSize: 0xA8 }
  - { offset: 0xA66C1, size: 0x8, addend: 0x0, symName: '__ZN10rayon_core3job18JobResult$LT$T$GT$4call17h271b153f4ccdf5c1E', symObjAddr: 0x468, symBinAddr: 0x27844, symSize: 0xA8 }
  - { offset: 0xA6730, size: 0x8, addend: 0x0, symName: '__ZN10rayon_core3job18JobResult$LT$T$GT$4call17h34b91d45d1547394E', symObjAddr: 0x510, symBinAddr: 0x278EC, symSize: 0xC0 }
  - { offset: 0xA67A0, size: 0x8, addend: 0x0, symName: '__ZN10rayon_core3job18JobResult$LT$T$GT$4call17h92f1f6b8c89e4094E', symObjAddr: 0x5D0, symBinAddr: 0x279AC, symSize: 0xC0 }
  - { offset: 0xA6A98, size: 0x8, addend: 0x0, symName: '__ZN10rayon_core3job25StackJob$LT$L$C$F$C$R$GT$10as_job_ref17h2f98409e3b94a570E', symObjAddr: 0x840, symBinAddr: 0x27C1C, symSize: 0x24 }
  - { offset: 0xA6AFC, size: 0x8, addend: 0x0, symName: '__ZN10rayon_core3job25StackJob$LT$L$C$F$C$R$GT$10as_job_ref17h3d42f681d26e53eaE', symObjAddr: 0x864, symBinAddr: 0x27C40, symSize: 0x24 }
  - { offset: 0xA6B46, size: 0x8, addend: 0x0, symName: '__ZN10rayon_core3job25StackJob$LT$L$C$F$C$R$GT$10as_job_ref17h59ddb5d838220c60E', symObjAddr: 0x888, symBinAddr: 0x27C64, symSize: 0x24 }
  - { offset: 0xA6B90, size: 0x8, addend: 0x0, symName: '__ZN10rayon_core3job25StackJob$LT$L$C$F$C$R$GT$10as_job_ref17h5c494d76fe91ca28E', symObjAddr: 0x8AC, symBinAddr: 0x27C88, symSize: 0x24 }
  - { offset: 0xA6BDA, size: 0x8, addend: 0x0, symName: '__ZN10rayon_core3job25StackJob$LT$L$C$F$C$R$GT$10as_job_ref17hbf615a61ef0abeabE', symObjAddr: 0x8D0, symBinAddr: 0x27CAC, symSize: 0x24 }
  - { offset: 0xA6C24, size: 0x8, addend: 0x0, symName: '__ZN10rayon_core3job25StackJob$LT$L$C$F$C$R$GT$10as_job_ref17hc440d05ddb797672E', symObjAddr: 0x8F4, symBinAddr: 0x27CD0, symSize: 0x24 }
  - { offset: 0xA6D01, size: 0x8, addend: 0x0, symName: '__ZN10rayon_core3job25StackJob$LT$L$C$F$C$R$GT$10run_inline17h5ff86987871338acE', symObjAddr: 0x918, symBinAddr: 0x27CF4, symSize: 0xE0 }
  - { offset: 0xA6DD0, size: 0x8, addend: 0x0, symName: '__ZN10rayon_core3job25StackJob$LT$L$C$F$C$R$GT$10run_inline17he465123b7a8108cfE', symObjAddr: 0x9F8, symBinAddr: 0x27DD4, symSize: 0xF4 }
  - { offset: 0xA6E74, size: 0x8, addend: 0x0, symName: '__ZN10rayon_core3job25StackJob$LT$L$C$F$C$R$GT$11into_result17h028b9b271d0445dfE', symObjAddr: 0xAEC, symBinAddr: 0x27EC8, symSize: 0x70 }
  - { offset: 0xA6EEB, size: 0x8, addend: 0x0, symName: '__ZN10rayon_core3job25StackJob$LT$L$C$F$C$R$GT$11into_result17h0efbd43773cd7a36E', symObjAddr: 0xB5C, symBinAddr: 0x27F38, symSize: 0x70 }
  - { offset: 0xA6F62, size: 0x8, addend: 0x0, symName: '__ZN10rayon_core3job25StackJob$LT$L$C$F$C$R$GT$11into_result17h3a3003e5887e97c8E', symObjAddr: 0xBCC, symBinAddr: 0x27FA8, symSize: 0x7C }
  - { offset: 0xA6FDA, size: 0x8, addend: 0x0, symName: '__ZN10rayon_core3job25StackJob$LT$L$C$F$C$R$GT$11into_result17h7ce3d7c8d4336761E', symObjAddr: 0xC48, symBinAddr: 0x28024, symSize: 0x7C }
  - { offset: 0xA7036, size: 0x8, addend: 0x0, symName: '__ZN10rayon_core3job25StackJob$LT$L$C$F$C$R$GT$11into_result17h907082fa6f856a32E', symObjAddr: 0xCC4, symBinAddr: 0x280A0, symSize: 0x7C }
  - { offset: 0xA7092, size: 0x8, addend: 0x0, symName: '__ZN10rayon_core3job25StackJob$LT$L$C$F$C$R$GT$11into_result17hd52fa7b2a4f5edacE', symObjAddr: 0xD40, symBinAddr: 0x2811C, symSize: 0x7C }
  - { offset: 0xA7126, size: 0x8, addend: 0x0, symName: '__ZN10rayon_core3job25StackJob$LT$L$C$F$C$R$GT$3new17h09e44d5443ec4aa4E', symObjAddr: 0xDBC, symBinAddr: 0x28198, symSize: 0xC4 }
  - { offset: 0xA71E7, size: 0x8, addend: 0x0, symName: '__ZN10rayon_core3job25StackJob$LT$L$C$F$C$R$GT$3new17h3242705a85333b53E', symObjAddr: 0xE80, symBinAddr: 0x2825C, symSize: 0xC4 }
  - { offset: 0xA728C, size: 0x8, addend: 0x0, symName: '__ZN10rayon_core3job25StackJob$LT$L$C$F$C$R$GT$3new17h6d44f75de0c79d76E', symObjAddr: 0xF44, symBinAddr: 0x28320, symSize: 0xB8 }
  - { offset: 0xA734C, size: 0x8, addend: 0x0, symName: '__ZN10rayon_core3job25StackJob$LT$L$C$F$C$R$GT$3new17h7a2ae509d1faf85dE', symObjAddr: 0xFFC, symBinAddr: 0x283D8, symSize: 0xC0 }
  - { offset: 0xA73F0, size: 0x8, addend: 0x0, symName: '__ZN10rayon_core3job25StackJob$LT$L$C$F$C$R$GT$3new17h7db39585df717111E', symObjAddr: 0x10BC, symBinAddr: 0x28498, symSize: 0xB8 }
  - { offset: 0xA74B0, size: 0x8, addend: 0x0, symName: '__ZN10rayon_core3job25StackJob$LT$L$C$F$C$R$GT$3new17hc14b763ae6fac09aE', symObjAddr: 0x1174, symBinAddr: 0x28550, symSize: 0xBC }
  - { offset: 0xA7545, size: 0x8, addend: 0x0, symName: __ZN10rayon_core3job6JobRef3new17h19f25285443afd19E, symObjAddr: 0x1230, symBinAddr: 0x2860C, symSize: 0x20 }
  - { offset: 0xA757D, size: 0x8, addend: 0x0, symName: __ZN10rayon_core3job6JobRef3new17h77adec2e6d4494f5E, symObjAddr: 0x1250, symBinAddr: 0x2862C, symSize: 0x20 }
  - { offset: 0xA75B5, size: 0x8, addend: 0x0, symName: __ZN10rayon_core3job6JobRef3new17h82060ab37f76fa40E, symObjAddr: 0x1270, symBinAddr: 0x2864C, symSize: 0x20 }
  - { offset: 0xA75ED, size: 0x8, addend: 0x0, symName: __ZN10rayon_core3job6JobRef3new17h990e5f1ed0eff2faE, symObjAddr: 0x1290, symBinAddr: 0x2866C, symSize: 0x20 }
  - { offset: 0xA7625, size: 0x8, addend: 0x0, symName: __ZN10rayon_core3job6JobRef3new17ha7a03b0344c7f9d1E, symObjAddr: 0x12B0, symBinAddr: 0x2868C, symSize: 0x20 }
  - { offset: 0xA765D, size: 0x8, addend: 0x0, symName: __ZN10rayon_core3job6JobRef3new17he5067da40864f104E, symObjAddr: 0x12D0, symBinAddr: 0x286AC, symSize: 0x20 }
  - { offset: 0xA796E, size: 0x8, addend: 0x0, symName: '__ZN4core3f6421_$LT$impl$u20$f64$GT$3abs17hb486b6257e8bf254E', symObjAddr: 0x0, symBinAddr: 0x29824, symSize: 0x1C }
  - { offset: 0xA798A, size: 0x8, addend: 0x0, symName: '__ZN4core3f6421_$LT$impl$u20$f64$GT$3abs17hb486b6257e8bf254E', symObjAddr: 0x0, symBinAddr: 0x29824, symSize: 0x1C }
  - { offset: 0xA79B8, size: 0x8, addend: 0x0, symName: '__ZN4core3f6421_$LT$impl$u20$f64$GT$9from_bits17h09992e6750a204ecE', symObjAddr: 0x1C, symBinAddr: 0x29840, symSize: 0x14 }
  - { offset: 0xA7A15, size: 0x8, addend: 0x0, symName: '__ZN14neuralvault_rs9hnsw_core8HNSWCore12search_layer28_$u7b$$u7b$closure$u7d$$u7d$17h3a1f413859f527c5E', symObjAddr: 0x0, symBinAddr: 0x29854, symSize: 0x28 }
  - { offset: 0xA7A65, size: 0x8, addend: 0x0, symName: __ZN4core3cmp10PartialOrd2le17hc7120e03793a55f1E, symObjAddr: 0x16C, symBinAddr: 0x299C0, symSize: 0x70 }
  - { offset: 0xA7D5D, size: 0x8, addend: 0x0, symName: '__ZN14neuralvault_rs9hnsw_core8HNSWCore12search_layer28_$u7b$$u7b$closure$u7d$$u7d$17h3a1f413859f527c5E', symObjAddr: 0x0, symBinAddr: 0x29854, symSize: 0x28 }
  - { offset: 0xA7D8F, size: 0x8, addend: 0x0, symName: '__ZN14neuralvault_rs9hnsw_core8HNSWCore12search_layer28_$u7b$$u7b$closure$u7d$$u7d$17h3e5209ef5cc5589fE', symObjAddr: 0x28, symBinAddr: 0x2987C, symSize: 0x20 }
  - { offset: 0xA7DDE, size: 0x8, addend: 0x0, symName: '__ZN14neuralvault_rs9hnsw_core8HNSWCore12search_layer28_$u7b$$u7b$closure$u7d$$u7d$17h7a4d3f95370780e4E', symObjAddr: 0x48, symBinAddr: 0x2989C, symSize: 0x38 }
  - { offset: 0xA7E22, size: 0x8, addend: 0x0, symName: '__ZN14neuralvault_rs9hnsw_core8HNSWCore12search_layer28_$u7b$$u7b$closure$u7d$$u7d$17hf3f34ae5db9fe351E', symObjAddr: 0x80, symBinAddr: 0x298D4, symSize: 0x20 }
  - { offset: 0xA7E93, size: 0x8, addend: 0x0, symName: '__ZN14neuralvault_rs9hnsw_core8HNSWCore16remove_edge_from28_$u7b$$u7b$closure$u7d$$u7d$17hfa45980476000362E', symObjAddr: 0xA0, symBinAddr: 0x298F4, symSize: 0x34 }
  - { offset: 0xA7EEF, size: 0x8, addend: 0x0, symName: '__ZN14neuralvault_rs9hnsw_core8HNSWCore20shrink_neighbor_list28_$u7b$$u7b$closure$u7d$$u7d$17h481196717c081c3eE', symObjAddr: 0xD4, symBinAddr: 0x29928, symSize: 0x38 }
  - { offset: 0xA7F33, size: 0x8, addend: 0x0, symName: '__ZN14neuralvault_rs9hnsw_core8HNSWCore20shrink_neighbor_list28_$u7b$$u7b$closure$u7d$$u7d$17hcc90c18ba2b5703dE', symObjAddr: 0x10C, symBinAddr: 0x29960, symSize: 0x60 }
  - { offset: 0xA85E4, size: 0x8, addend: 0x0, symName: '__ZN45_$LT$f32$u20$as$u20$core..ops..arith..Add$GT$3add17h80e9f53f0d78cbf9E', symObjAddr: 0x0, symBinAddr: 0x29A30, symSize: 0x18 }
  - { offset: 0xA8605, size: 0x8, addend: 0x0, symName: '__ZN45_$LT$f32$u20$as$u20$core..ops..arith..Add$GT$3add17h80e9f53f0d78cbf9E', symObjAddr: 0x0, symBinAddr: 0x29A30, symSize: 0x18 }
  - { offset: 0xA8645, size: 0x8, addend: 0x0, symName: '__ZN45_$LT$f32$u20$as$u20$core..ops..arith..Mul$GT$3mul17h7732e244017fee02E', symObjAddr: 0x18, symBinAddr: 0x29A48, symSize: 0x18 }
  - { offset: 0xA869E, size: 0x8, addend: 0x0, symName: '__ZN60_$LT$$RF$f32$u20$as$u20$core..ops..arith..Sub$LT$f32$GT$$GT$3sub17h5ae0e1e43604c515E', symObjAddr: 0x30, symBinAddr: 0x29A60, symSize: 0x24 }
  - { offset: 0xA8722, size: 0x8, addend: 0x0, symName: __ZN4pyo38callback7convert17h7b9bd90b6116ff77E, symObjAddr: 0x0, symBinAddr: 0x29A84, symSize: 0x20 }
  - { offset: 0xA9AF8, size: 0x8, addend: 0x0, symName: __ZN4pyo38callback7convert17h7b9bd90b6116ff77E, symObjAddr: 0x0, symBinAddr: 0x29A84, symSize: 0x20 }
  - { offset: 0xA9B59, size: 0x8, addend: 0x0, symName: '__ZN75_$LT$usize$u20$as$u20$pyo3..callback..IntoPyCallbackOutput$LT$isize$GT$$GT$7convert28_$u7b$$u7b$closure$u7d$$u7d$17h48112689d42dda40E', symObjAddr: 0x20, symBinAddr: 0x29AA4, symSize: 0x1C }
  - { offset: 0xAA324, size: 0x8, addend: 0x0, symName: '__ZN4core3mem13manually_drop21ManuallyDrop$LT$T$GT$4drop17h59a636f18f267430E', symObjAddr: 0x0, symBinAddr: 0x29AC0, symSize: 0x20 }
  - { offset: 0xAAA96, size: 0x8, addend: 0x0, symName: '__ZN4core3mem13manually_drop21ManuallyDrop$LT$T$GT$4drop17h59a636f18f267430E', symObjAddr: 0x0, symBinAddr: 0x29AC0, symSize: 0x20 }
  - { offset: 0xAAACF, size: 0x8, addend: 0x0, symName: '__ZN4core3mem13manually_drop21ManuallyDrop$LT$T$GT$4drop17h615bc2655a48dd21E', symObjAddr: 0x20, symBinAddr: 0x29AE0, symSize: 0x10 }
  - { offset: 0xAAB19, size: 0x8, addend: 0x0, symName: '__ZN4rand13distributions5float118_$LT$impl$u20$rand..distributions..distribution..Distribution$LT$f32$GT$$u20$for$u20$rand..distributions..Standard$GT$6sample17h322d105eaec6660fE', symObjAddr: 0x0, symBinAddr: 0x29AF0, symSize: 0xEC }
  - { offset: 0xAAB3A, size: 0x8, addend: 0x0, symName: '__ZN4rand13distributions5float118_$LT$impl$u20$rand..distributions..distribution..Distribution$LT$f32$GT$$u20$for$u20$rand..distributions..Standard$GT$6sample17h322d105eaec6660fE', symObjAddr: 0x0, symBinAddr: 0x29AF0, symSize: 0xEC }
  - { offset: 0xAABF4, size: 0x8, addend: 0x0, symName: '__ZN4rand13distributions5float118_$LT$impl$u20$rand..distributions..distribution..Distribution$LT$f64$GT$$u20$for$u20$rand..distributions..Standard$GT$6sample17h96229241521f9174E', symObjAddr: 0xEC, symBinAddr: 0x29BDC, symSize: 0xE8 }
  - { offset: 0xAACB4, size: 0x8, addend: 0x0, symName: '__ZN4rand13distributions7integer118_$LT$impl$u20$rand..distributions..distribution..Distribution$LT$u32$GT$$u20$for$u20$rand..distributions..Standard$GT$6sample17h059c90744d8ac9baE', symObjAddr: 0x1D4, symBinAddr: 0x29CC4, symSize: 0xA8 }
  - { offset: 0xAAD99, size: 0x8, addend: 0x0, symName: '__ZN4rand13distributions7integer118_$LT$impl$u20$rand..distributions..distribution..Distribution$LT$u64$GT$$u20$for$u20$rand..distributions..Standard$GT$6sample17hf9f1f60a4c87b88bE', symObjAddr: 0x27C, symBinAddr: 0x29D6C, symSize: 0xA8 }
  - { offset: 0xAB3A5, size: 0x8, addend: 0x0, symName: __ZN4core3cmp10PartialOrd13__chaining_le17hd4eb977edc262cf3E, symObjAddr: 0x0, symBinAddr: 0x29E14, symSize: 0x2C }
  - { offset: 0xAB3DF, size: 0x8, addend: 0x0, symName: __ZN4core3cmp10PartialOrd13__chaining_le17hd4eb977edc262cf3E, symObjAddr: 0x0, symBinAddr: 0x29E14, symSize: 0x2C }
  - { offset: 0xAB439, size: 0x8, addend: 0x0, symName: '__ZN4core3cmp5impls70_$LT$impl$u20$core..cmp..PartialOrd$LT$$RF$B$GT$$u20$for$u20$$RF$A$GT$2gt17h2d98d672d0027b27E', symObjAddr: 0x2C, symBinAddr: 0x29E40, symSize: 0x34 }
  - { offset: 0xAB488, size: 0x8, addend: 0x0, symName: '__ZN4core3cmp5impls70_$LT$impl$u20$core..cmp..PartialOrd$LT$$RF$B$GT$$u20$for$u20$$RF$A$GT$2lt17hb52b95abedf94603E', symObjAddr: 0x60, symBinAddr: 0x29E74, symSize: 0x34 }
  - { offset: 0xAB544, size: 0x8, addend: 0x0, symName: '__ZN4core5tuple65_$LT$impl$u20$core..cmp..PartialOrd$u20$for$u20$$LP$U$C$T$RP$$GT$2le17h069fc938d86a2d2bE', symObjAddr: 0x94, symBinAddr: 0x29EA8, symSize: 0x94 }
  - { offset: 0xAB6D6, size: 0x8, addend: 0x0, symName: '__ZN71_$LT$ordered_float..OrderedFloat$LT$T$GT$$u20$as$u20$core..cmp..Ord$GT$3cmp17hcce4ad4c608f2a53E', symObjAddr: 0x128, symBinAddr: 0x29F3C, symSize: 0x88 }
  - { offset: 0xAB722, size: 0x8, addend: 0x0, symName: '__ZN78_$LT$ordered_float..OrderedFloat$LT$T$GT$$u20$as$u20$core..cmp..PartialOrd$GT$11partial_cmp17hb1fa350d5cb9ff2fE', symObjAddr: 0x1B0, symBinAddr: 0x29FC4, symSize: 0x2C }
  - { offset: 0xAB768, size: 0x8, addend: 0x0, symName: '__ZN78_$LT$ordered_float..OrderedFloat$LT$T$GT$$u20$as$u20$core..cmp..PartialOrd$GT$2ge17h9b800735197f7d5cE', symObjAddr: 0x1DC, symBinAddr: 0x29FF0, symSize: 0x60 }
  - { offset: 0xAB7D4, size: 0x8, addend: 0x0, symName: '__ZN78_$LT$ordered_float..OrderedFloat$LT$T$GT$$u20$as$u20$core..cmp..PartialOrd$GT$2gt17h12f3dc0a9a5b54d0E', symObjAddr: 0x23C, symBinAddr: 0x2A050, symSize: 0x3C }
  - { offset: 0xAB81A, size: 0x8, addend: 0x0, symName: '__ZN78_$LT$ordered_float..OrderedFloat$LT$T$GT$$u20$as$u20$core..cmp..PartialOrd$GT$2lt17h6e6c353f9391e1e2E', symObjAddr: 0x278, symBinAddr: 0x2A08C, symSize: 0x30 }
  - { offset: 0xAB905, size: 0x8, addend: 0x0, symName: '__ZN103_$LT$pyo3..instance..Bound$LT$pyo3..types..any..PyAny$GT$$u20$as$u20$pyo3..types..any..PyAnyMethods$GT$14is_instance_of17h1af4b23aa326fb3dE', symObjAddr: 0x0, symBinAddr: 0x2A0BC, symSize: 0x24 }
  - { offset: 0xAC130, size: 0x8, addend: 0x0, symName: '__ZN4core5array4iter94_$LT$impl$u20$core..iter..traits..collect..IntoIterator$u20$for$u20$$u5b$T$u3b$$u20$N$u5d$$GT$9into_iter17hf781ae00d7636e37E', symObjAddr: 0xAE4, symBinAddr: 0x2ABA0, symSize: 0x88 }
  - { offset: 0xAD45F, size: 0x8, addend: 0x0, symName: '__ZN4core5slice29_$LT$impl$u20$$u5b$T$u5d$$GT$4iter17hc7a8cbd309d0bcb6E', symObjAddr: 0xB6C, symBinAddr: 0x2AC28, symSize: 0x28 }
  - { offset: 0xADE0C, size: 0x8, addend: 0x0, symName: '__ZN50_$LT$T$u20$as$u20$core..convert..Into$LT$U$GT$$GT$4into17h3b644e752b8baf72E', symObjAddr: 0x14D8, symBinAddr: 0x2B594, symSize: 0x24 }
  - { offset: 0xADE4C, size: 0x8, addend: 0x0, symName: '__ZN50_$LT$T$u20$as$u20$core..convert..Into$LT$U$GT$$GT$4into17h713f021545ef7f8aE', symObjAddr: 0x14FC, symBinAddr: 0x2B5B8, symSize: 0x24 }
  - { offset: 0xADEAC, size: 0x8, addend: 0x0, symName: '__ZN63_$LT$I$u20$as$u20$core..iter..traits..collect..IntoIterator$GT$9into_iter17h5247f6d70b221794E', symObjAddr: 0x1570, symBinAddr: 0x2B62C, symSize: 0x14 }
  - { offset: 0xADF03, size: 0x8, addend: 0x0, symName: '__ZN103_$LT$pyo3..instance..Bound$LT$pyo3..types..any..PyAny$GT$$u20$as$u20$pyo3..types..any..PyAnyMethods$GT$14is_instance_of17h1af4b23aa326fb3dE', symObjAddr: 0x0, symBinAddr: 0x2A0BC, symSize: 0x24 }
  - { offset: 0xADF3A, size: 0x8, addend: 0x0, symName: '__ZN103_$LT$pyo3..instance..Bound$LT$pyo3..types..any..PyAny$GT$$u20$as$u20$pyo3..types..any..PyAnyMethods$GT$18downcast_unchecked17h4b1b58e8cc63f414E', symObjAddr: 0x24, symBinAddr: 0x2A0E0, symSize: 0x6C }
  - { offset: 0xADF71, size: 0x8, addend: 0x0, symName: '__ZN103_$LT$pyo3..instance..Bound$LT$pyo3..types..any..PyAny$GT$$u20$as$u20$pyo3..types..any..PyAnyMethods$GT$18downcast_unchecked17h9438363f69bba67cE', symObjAddr: 0x90, symBinAddr: 0x2A14C, symSize: 0x6C }
  - { offset: 0xADFA8, size: 0x8, addend: 0x0, symName: '__ZN103_$LT$pyo3..instance..Bound$LT$pyo3..types..any..PyAny$GT$$u20$as$u20$pyo3..types..any..PyAnyMethods$GT$18downcast_unchecked17h9950e6aba256ab56E', symObjAddr: 0xFC, symBinAddr: 0x2A1B8, symSize: 0x6C }
  - { offset: 0xADFDF, size: 0x8, addend: 0x0, symName: '__ZN103_$LT$pyo3..instance..Bound$LT$pyo3..types..any..PyAny$GT$$u20$as$u20$pyo3..types..any..PyAnyMethods$GT$18downcast_unchecked17hd477145e1460ca62E', symObjAddr: 0x168, symBinAddr: 0x2A224, symSize: 0x6C }
  - { offset: 0xAE016, size: 0x8, addend: 0x0, symName: '__ZN103_$LT$pyo3..instance..Bound$LT$pyo3..types..any..PyAny$GT$$u20$as$u20$pyo3..types..any..PyAnyMethods$GT$23downcast_into_unchecked17h678065750635e68bE', symObjAddr: 0x1D4, symBinAddr: 0x2A290, symSize: 0x14 }
  - { offset: 0xAE04D, size: 0x8, addend: 0x0, symName: '__ZN103_$LT$pyo3..instance..Bound$LT$pyo3..types..any..PyAny$GT$$u20$as$u20$pyo3..types..any..PyAnyMethods$GT$23downcast_into_unchecked17hdb0857419b0d79e4E', symObjAddr: 0x1E8, symBinAddr: 0x2A2A4, symSize: 0x14 }
  - { offset: 0xAE084, size: 0x8, addend: 0x0, symName: '__ZN103_$LT$pyo3..instance..Bound$LT$pyo3..types..any..PyAny$GT$$u20$as$u20$pyo3..types..any..PyAnyMethods$GT$7extract17h17819297176132f9E', symObjAddr: 0x1FC, symBinAddr: 0x2A2B8, symSize: 0x30 }
  - { offset: 0xAE0BB, size: 0x8, addend: 0x0, symName: '__ZN103_$LT$pyo3..instance..Bound$LT$pyo3..types..any..PyAny$GT$$u20$as$u20$pyo3..types..any..PyAnyMethods$GT$7extract17h40adad3c2548024fE', symObjAddr: 0x22C, symBinAddr: 0x2A2E8, symSize: 0x30 }
  - { offset: 0xAE0F2, size: 0x8, addend: 0x0, symName: '__ZN103_$LT$pyo3..instance..Bound$LT$pyo3..types..any..PyAny$GT$$u20$as$u20$pyo3..types..any..PyAnyMethods$GT$7extract17h44e8ff0f8f33101dE', symObjAddr: 0x25C, symBinAddr: 0x2A318, symSize: 0x30 }
  - { offset: 0xAE129, size: 0x8, addend: 0x0, symName: '__ZN103_$LT$pyo3..instance..Bound$LT$pyo3..types..any..PyAny$GT$$u20$as$u20$pyo3..types..any..PyAnyMethods$GT$7extract17h50ee3a20b85ddc29E', symObjAddr: 0x28C, symBinAddr: 0x2A348, symSize: 0x30 }
  - { offset: 0xAE160, size: 0x8, addend: 0x0, symName: '__ZN103_$LT$pyo3..instance..Bound$LT$pyo3..types..any..PyAny$GT$$u20$as$u20$pyo3..types..any..PyAnyMethods$GT$7extract17h68b414492e591a1fE', symObjAddr: 0x2BC, symBinAddr: 0x2A378, symSize: 0x30 }
  - { offset: 0xAE197, size: 0x8, addend: 0x0, symName: '__ZN103_$LT$pyo3..instance..Bound$LT$pyo3..types..any..PyAny$GT$$u20$as$u20$pyo3..types..any..PyAnyMethods$GT$7extract17h7f06e7fc9f01cf4eE', symObjAddr: 0x2EC, symBinAddr: 0x2A3A8, symSize: 0x30 }
  - { offset: 0xAE1CE, size: 0x8, addend: 0x0, symName: '__ZN103_$LT$pyo3..instance..Bound$LT$pyo3..types..any..PyAny$GT$$u20$as$u20$pyo3..types..any..PyAnyMethods$GT$7extract17h8bda9b91641f4574E', symObjAddr: 0x31C, symBinAddr: 0x2A3D8, symSize: 0x30 }
  - { offset: 0xAE205, size: 0x8, addend: 0x0, symName: '__ZN103_$LT$pyo3..instance..Bound$LT$pyo3..types..any..PyAny$GT$$u20$as$u20$pyo3..types..any..PyAnyMethods$GT$7extract17h92c6355ba5fca695E', symObjAddr: 0x34C, symBinAddr: 0x2A408, symSize: 0x30 }
  - { offset: 0xAE23C, size: 0x8, addend: 0x0, symName: '__ZN103_$LT$pyo3..instance..Bound$LT$pyo3..types..any..PyAny$GT$$u20$as$u20$pyo3..types..any..PyAnyMethods$GT$7extract17hedda47928bca24acE', symObjAddr: 0x37C, symBinAddr: 0x2A438, symSize: 0x30 }
  - { offset: 0xAE273, size: 0x8, addend: 0x0, symName: '__ZN103_$LT$pyo3..instance..Bound$LT$pyo3..types..any..PyAny$GT$$u20$as$u20$pyo3..types..any..PyAnyMethods$GT$8downcast17h7c4bc5cd077f867aE', symObjAddr: 0x3AC, symBinAddr: 0x2A468, symSize: 0x84 }
  - { offset: 0xAE2AA, size: 0x8, addend: 0x0, symName: '__ZN103_$LT$pyo3..instance..Bound$LT$pyo3..types..any..PyAny$GT$$u20$as$u20$pyo3..types..any..PyAnyMethods$GT$8downcast17hc2959f3b2276cd6cE', symObjAddr: 0x430, symBinAddr: 0x2A4EC, symSize: 0x84 }
  - { offset: 0xAE2E1, size: 0x8, addend: 0x0, symName: '__ZN103_$LT$pyo3..instance..Bound$LT$pyo3..types..any..PyAny$GT$$u20$as$u20$pyo3..types..any..PyAnyMethods$GT$8downcast17hd8dc4b645e6e14eaE', symObjAddr: 0x4B4, symBinAddr: 0x2A570, symSize: 0x84 }
  - { offset: 0xAE318, size: 0x8, addend: 0x0, symName: '__ZN103_$LT$pyo3..instance..Bound$LT$pyo3..types..any..PyAny$GT$$u20$as$u20$pyo3..types..any..PyAnyMethods$GT$8downcast17hf78e0530f9c991f8E', symObjAddr: 0x538, symBinAddr: 0x2A5F4, symSize: 0x84 }
  - { offset: 0xAE370, size: 0x8, addend: 0x0, symName: '__ZN107_$LT$pyo3..instance..Bound$LT$pyo3..types..dict..PyDict$GT$$u20$as$u20$pyo3..types..dict..PyDictMethods$GT$8set_item17hb7ef3271e12c2f32E', symObjAddr: 0x5BC, symBinAddr: 0x2A678, symSize: 0xF8 }
  - { offset: 0xAE3FF, size: 0x8, addend: 0x0, symName: '__ZN63_$LT$$LP$K$C$V$RP$$u20$as$u20$pyo3..types..dict..PyDictItem$GT$3key17h4d3243f227bcda2fE', symObjAddr: 0x1548, symBinAddr: 0x2B604, symSize: 0x14 }
  - { offset: 0xAE43F, size: 0x8, addend: 0x0, symName: '__ZN63_$LT$$LP$K$C$V$RP$$u20$as$u20$pyo3..types..dict..PyDictItem$GT$5value17h38d4de109ee26f99E', symObjAddr: 0x155C, symBinAddr: 0x2B618, symSize: 0x14 }
  - { offset: 0xAE48B, size: 0x8, addend: 0x0, symName: '__ZN115_$LT$pyo3..instance..Bound$LT$pyo3..types..module..PyModule$GT$$u20$as$u20$pyo3..types..module..PyModuleMethods$GT$3add17he1e7efc87a700446E', symObjAddr: 0x6B4, symBinAddr: 0x2A770, symSize: 0x140 }
  - { offset: 0xAE4FF, size: 0x8, addend: 0x0, symName: '__ZN115_$LT$pyo3..instance..Bound$LT$pyo3..types..module..PyModule$GT$$u20$as$u20$pyo3..types..module..PyModuleMethods$GT$9add_class17h68c884df724884c6E', symObjAddr: 0x7F4, symBinAddr: 0x2A8B0, symSize: 0xB8 }
  - { offset: 0xAE573, size: 0x8, addend: 0x0, symName: '__ZN115_$LT$pyo3..instance..Bound$LT$pyo3..types..module..PyModule$GT$$u20$as$u20$pyo3..types..module..PyModuleMethods$GT$9add_class17ha1d1ae4992ebc188E', symObjAddr: 0x8AC, symBinAddr: 0x2A968, symSize: 0xB8 }
  - { offset: 0xAE6C6, size: 0x8, addend: 0x0, symName: '__ZN127_$LT$pyo3..instance..Py$LT$pyo3..types..any..PyAny$GT$$u20$as$u20$core..convert..From$LT$pyo3..instance..Bound$LT$T$GT$$GT$$GT$4from17h59c34246fcb62db3E', symObjAddr: 0x964, symBinAddr: 0x2AA20, symSize: 0x84 }
  - { offset: 0xAE71B, size: 0x8, addend: 0x0, symName: '__ZN127_$LT$pyo3..instance..Py$LT$pyo3..types..any..PyAny$GT$$u20$as$u20$core..convert..From$LT$pyo3..instance..Bound$LT$T$GT$$GT$$GT$4from17he3f5b81c44a5ae0bE', symObjAddr: 0x9E8, symBinAddr: 0x2AAA4, symSize: 0x84 }
  - { offset: 0xAE776, size: 0x8, addend: 0x0, symName: '__ZN132_$LT$pyo3..instance..Bound$LT$T$GT$$u20$as$u20$pyo3..conversion..IntoPy$LT$pyo3..instance..Py$LT$pyo3..types..any..PyAny$GT$$GT$$GT$7into_py17h133612ee5f767c67E', symObjAddr: 0xA6C, symBinAddr: 0x2AB28, symSize: 0x28 }
  - { offset: 0xAE7C8, size: 0x8, addend: 0x0, symName: '__ZN132_$LT$pyo3..instance..Bound$LT$T$GT$$u20$as$u20$pyo3..conversion..IntoPy$LT$pyo3..instance..Py$LT$pyo3..types..any..PyAny$GT$$GT$$GT$7into_py17he95854b706d28b5dE', symObjAddr: 0xA94, symBinAddr: 0x2AB50, symSize: 0x28 }
  - { offset: 0xAE820, size: 0x8, addend: 0x0, symName: '__ZN135_$LT$pyo3..instance..Borrowed$LT$T$GT$$u20$as$u20$pyo3..conversion..IntoPy$LT$pyo3..instance..Py$LT$pyo3..types..any..PyAny$GT$$GT$$GT$7into_py17h696af1e6d127738cE', symObjAddr: 0xABC, symBinAddr: 0x2AB78, symSize: 0x28 }
  - { offset: 0xAECD6, size: 0x8, addend: 0x0, symName: '__ZN4pyo38instance11Py$LT$T$GT$24from_borrowed_ptr_or_opt28_$u7b$$u7b$closure$u7d$$u7d$17h3b91fbd26109c605E', symObjAddr: 0xE58, symBinAddr: 0x2AF14, symSize: 0xF4 }
  - { offset: 0xAED3C, size: 0x8, addend: 0x0, symName: '__ZN4pyo38instance11Py$LT$T$GT$24from_borrowed_ptr_or_opt28_$u7b$$u7b$closure$u7d$$u7d$17h46fe8b7aa4cbb8bfE', symObjAddr: 0xF4C, symBinAddr: 0x2B008, symSize: 0xF4 }
  - { offset: 0xAEDA2, size: 0x8, addend: 0x0, symName: '__ZN4pyo38instance11Py$LT$T$GT$24from_borrowed_ptr_or_opt28_$u7b$$u7b$closure$u7d$$u7d$17hadde35180e25dfc4E', symObjAddr: 0x1040, symBinAddr: 0x2B0FC, symSize: 0xF4 }
  - { offset: 0xAF092, size: 0x8, addend: 0x0, symName: '__ZN69_$LT$pyo3..instance..Bound$LT$T$GT$$u20$as$u20$core..clone..Clone$GT$5clone17h12e64aabdb41a1bbE', symObjAddr: 0x1584, symBinAddr: 0x2B640, symSize: 0x34 }
  - { offset: 0xAF0C9, size: 0x8, addend: 0x0, symName: '__ZN69_$LT$pyo3..instance..Bound$LT$T$GT$$u20$as$u20$core..clone..Clone$GT$5clone17h2dfc9c5ab264ba23E', symObjAddr: 0x15B8, symBinAddr: 0x2B674, symSize: 0x34 }
  - { offset: 0xAF100, size: 0x8, addend: 0x0, symName: '__ZN69_$LT$pyo3..instance..Bound$LT$T$GT$$u20$as$u20$core..clone..Clone$GT$5clone17hf0d0caaffde5fe43E', symObjAddr: 0x15EC, symBinAddr: 0x2B6A8, symSize: 0x34 }
  - { offset: 0xAF316, size: 0x8, addend: 0x0, symName: '__ZN4pyo35impl_9pymethods133_$LT$impl$u20$core..convert..From$LT$pyo3..impl_..pymethods..BoundRef$LT$T$GT$$GT$$u20$for$u20$$RF$pyo3..instance..Bound$LT$T$GT$$GT$4from17h995ca616b2089976E', symObjAddr: 0xB94, symBinAddr: 0x2AC50, symSize: 0x14 }
  - { offset: 0xAF608, size: 0x8, addend: 0x0, symName: '__ZN54_$LT$$RF$T$u20$as$u20$pyo3..conversion..ToPyObject$GT$9to_object17hd85b29f75986b200E', symObjAddr: 0x1520, symBinAddr: 0x2B5DC, symSize: 0x28 }
  - { offset: 0xB02C0, size: 0x8, addend: 0x0, symName: '__ZN4pyo38instance11Py$LT$T$GT$10into_bound17h02e3dfe734c234adE', symObjAddr: 0xBA8, symBinAddr: 0x2AC64, symSize: 0x1C }
  - { offset: 0xB0307, size: 0x8, addend: 0x0, symName: '__ZN4pyo38instance11Py$LT$T$GT$10into_bound17h411f4c0ac43d1a5cE', symObjAddr: 0xBC4, symBinAddr: 0x2AC80, symSize: 0x1C }
  - { offset: 0xB034E, size: 0x8, addend: 0x0, symName: '__ZN4pyo38instance11Py$LT$T$GT$13from_non_null17he0b0ba9d1a288e49E', symObjAddr: 0xBE0, symBinAddr: 0x2AC9C, symSize: 0x14 }
  - { offset: 0xB0394, size: 0x8, addend: 0x0, symName: '__ZN4pyo38instance11Py$LT$T$GT$16get_class_object17h5a237e2fc4038e72E', symObjAddr: 0xBF4, symBinAddr: 0x2ACB0, symSize: 0x78 }
  - { offset: 0xB03F0, size: 0x8, addend: 0x0, symName: '__ZN4pyo38instance11Py$LT$T$GT$16get_class_object17ha292e325919a056fE', symObjAddr: 0xC6C, symBinAddr: 0x2AD28, symSize: 0x78 }
  - { offset: 0xB0432, size: 0x8, addend: 0x0, symName: '__ZN4pyo38instance11Py$LT$T$GT$17from_borrowed_ptr17h9a7d1278339a95e7E', symObjAddr: 0xCE4, symBinAddr: 0x2ADA0, symSize: 0x48 }
  - { offset: 0xB0479, size: 0x8, addend: 0x0, symName: '__ZN4pyo38instance11Py$LT$T$GT$17from_borrowed_ptr17h9e92b3bd822cec08E', symObjAddr: 0xD2C, symBinAddr: 0x2ADE8, symSize: 0x48 }
  - { offset: 0xB04C0, size: 0x8, addend: 0x0, symName: '__ZN4pyo38instance11Py$LT$T$GT$17from_borrowed_ptr17hfec115e1959a4879E', symObjAddr: 0xD74, symBinAddr: 0x2AE30, symSize: 0x48 }
  - { offset: 0xB0507, size: 0x8, addend: 0x0, symName: '__ZN4pyo38instance11Py$LT$T$GT$24from_borrowed_ptr_or_opt17h20aca7202a4c8188E', symObjAddr: 0xDBC, symBinAddr: 0x2AE78, symSize: 0x34 }
  - { offset: 0xB054E, size: 0x8, addend: 0x0, symName: '__ZN4pyo38instance11Py$LT$T$GT$24from_borrowed_ptr_or_opt17h86c955be53b27aa5E', symObjAddr: 0xDF0, symBinAddr: 0x2AEAC, symSize: 0x34 }
  - { offset: 0xB0595, size: 0x8, addend: 0x0, symName: '__ZN4pyo38instance11Py$LT$T$GT$24from_borrowed_ptr_or_opt17hcd6d04dc4d8c7507E', symObjAddr: 0xE24, symBinAddr: 0x2AEE0, symSize: 0x34 }
  - { offset: 0xB05DC, size: 0x8, addend: 0x0, symName: '__ZN4pyo38instance11Py$LT$T$GT$6as_ptr17h32501de72b72ce8fE', symObjAddr: 0x1134, symBinAddr: 0x2B1F0, symSize: 0x1C }
  - { offset: 0xB0608, size: 0x8, addend: 0x0, symName: '__ZN4pyo38instance11Py$LT$T$GT$6as_ptr17h6ade7dee281b21beE', symObjAddr: 0x1150, symBinAddr: 0x2B20C, symSize: 0x1C }
  - { offset: 0xB0634, size: 0x8, addend: 0x0, symName: '__ZN4pyo38instance11Py$LT$T$GT$8into_any17hcf16550df5498c1aE', symObjAddr: 0x116C, symBinAddr: 0x2B228, symSize: 0x3C }
  - { offset: 0xB0660, size: 0x8, addend: 0x0, symName: '__ZN4pyo38instance11Py$LT$T$GT$8into_ptr17haa9b0d6afd44ea05E', symObjAddr: 0x11A8, symBinAddr: 0x2B264, symSize: 0x30 }
  - { offset: 0xB0699, size: 0x8, addend: 0x0, symName: '__ZN4pyo38instance11Py$LT$T$GT$9clone_ref17ha925e83b0ab1a0fcE', symObjAddr: 0x11D8, symBinAddr: 0x2B294, symSize: 0x2C }
  - { offset: 0xB06E0, size: 0x8, addend: 0x0, symName: '__ZN4pyo38instance11Py$LT$T$GT$9clone_ref17haf04c1460d4c9c08E', symObjAddr: 0x1204, symBinAddr: 0x2B2C0, symSize: 0x2C }
  - { offset: 0xB0727, size: 0x8, addend: 0x0, symName: '__ZN4pyo38instance11Py$LT$T$GT$9clone_ref17hc6e79582dfb643feE', symObjAddr: 0x1230, symBinAddr: 0x2B2EC, symSize: 0x2C }
  - { offset: 0xB077B, size: 0x8, addend: 0x0, symName: '__ZN4pyo38instance14Bound$LT$T$GT$10try_borrow17h4056ecefc799b6c0E', symObjAddr: 0x125C, symBinAddr: 0x2B318, symSize: 0x24 }
  - { offset: 0xB07B4, size: 0x8, addend: 0x0, symName: '__ZN4pyo38instance14Bound$LT$T$GT$10try_borrow17h59dcb6336833235cE', symObjAddr: 0x1280, symBinAddr: 0x2B33C, symSize: 0x24 }
  - { offset: 0xB07E0, size: 0x8, addend: 0x0, symName: '__ZN4pyo38instance14Bound$LT$T$GT$14try_borrow_mut17hc33482888bba2152E', symObjAddr: 0x12A4, symBinAddr: 0x2B360, symSize: 0x24 }
  - { offset: 0xB080C, size: 0x8, addend: 0x0, symName: '__ZN4pyo38instance14Bound$LT$T$GT$16get_class_object17hde3c1bc954470d1dE', symObjAddr: 0x12C8, symBinAddr: 0x2B384, symSize: 0x2C }
  - { offset: 0xB0838, size: 0x8, addend: 0x0, symName: '__ZN4pyo38instance14Bound$LT$T$GT$16get_class_object17hdfed639eb7961db0E', symObjAddr: 0x12F4, symBinAddr: 0x2B3B0, symSize: 0x2C }
  - { offset: 0xB0864, size: 0x8, addend: 0x0, symName: '__ZN4pyo38instance14Bound$LT$T$GT$6as_ptr17h619517bfb226cb1eE', symObjAddr: 0x1320, symBinAddr: 0x2B3DC, symSize: 0x2C }
  - { offset: 0xB0890, size: 0x8, addend: 0x0, symName: '__ZN4pyo38instance14Bound$LT$T$GT$6as_ptr17h8048f0abf234519dE', symObjAddr: 0x134C, symBinAddr: 0x2B408, symSize: 0x2C }
  - { offset: 0xB08BC, size: 0x8, addend: 0x0, symName: '__ZN4pyo38instance14Bound$LT$T$GT$6unbind17hb972f127410c8b45E', symObjAddr: 0x1378, symBinAddr: 0x2B434, symSize: 0x48 }
  - { offset: 0xB0906, size: 0x8, addend: 0x0, symName: '__ZN4pyo38instance14Bound$LT$T$GT$8into_any17h1170c363eb2400f6E', symObjAddr: 0x13C0, symBinAddr: 0x2B47C, symSize: 0x30 }
  - { offset: 0xB0932, size: 0x8, addend: 0x0, symName: '__ZN4pyo38instance14Bound$LT$T$GT$8into_ptr17h6edd6aa1451658e7E', symObjAddr: 0x13F0, symBinAddr: 0x2B4AC, symSize: 0x40 }
  - { offset: 0xB095E, size: 0x8, addend: 0x0, symName: '__ZN4pyo38instance14Bound$LT$T$GT$8into_ptr17hfff5a326f0790686E', symObjAddr: 0x1430, symBinAddr: 0x2B4EC, symSize: 0x40 }
  - { offset: 0xB098A, size: 0x8, addend: 0x0, symName: '__ZN4pyo38instance17Borrowed$LT$T$GT$8to_owned17h90023b5a4a95fdb7E', symObjAddr: 0x1470, symBinAddr: 0x2B52C, symSize: 0x2C }
  - { offset: 0xB09D0, size: 0x8, addend: 0x0, symName: '__ZN4pyo38instance39Borrowed$LT$pyo3..types..any..PyAny$GT$18downcast_unchecked17hb9f4d8d662fff4e3E', symObjAddr: 0x149C, symBinAddr: 0x2B558, symSize: 0x14 }
  - { offset: 0xB0A09, size: 0x8, addend: 0x0, symName: '__ZN4pyo38instance39Borrowed$LT$pyo3..types..any..PyAny$GT$18downcast_unchecked17hbab1863bdfa5cbf6E', symObjAddr: 0x14B0, symBinAddr: 0x2B56C, symSize: 0x14 }
  - { offset: 0xB0A35, size: 0x8, addend: 0x0, symName: '__ZN4pyo38instance39Borrowed$LT$pyo3..types..any..PyAny$GT$18downcast_unchecked17hc24b851bb7e478d0E', symObjAddr: 0x14C4, symBinAddr: 0x2B580, symSize: 0x14 }
  - { offset: 0xB0C1F, size: 0x8, addend: 0x0, symName: __ZN7simsimd17SpatialSimilarity6cosine17heb271f5b372f7b4eE, symObjAddr: 0x0, symBinAddr: 0x2B6DC, symSize: 0x34 }
  - { offset: 0xB0C36, size: 0x8, addend: 0x0, symName: __ZN7simsimd17SpatialSimilarity6cosine17heb271f5b372f7b4eE, symObjAddr: 0x0, symBinAddr: 0x2B6DC, symSize: 0x34 }
  - { offset: 0xB0D4A, size: 0x8, addend: 0x0, symName: '__ZN10rand_distr6normal15Normal$LT$F$GT$11from_zscore17haed4872c277a2f0fE', symObjAddr: 0x0, symBinAddr: 0x2B710, symSize: 0x54 }
  - { offset: 0xB0DEE, size: 0x8, addend: 0x0, symName: '__ZN112_$LT$rand_distr..normal..Normal$LT$F$GT$$u20$as$u20$rand..distributions..distribution..Distribution$LT$F$GT$$GT$6sample17h3e9159b418a53df2E', symObjAddr: 0xC4, symBinAddr: 0x2B7D4, symSize: 0x3C }
  - { offset: 0xB0E40, size: 0x8, addend: 0x0, symName: '__ZN113_$LT$rand_distr..normal..StandardNormal$u20$as$u20$rand..distributions..distribution..Distribution$LT$f32$GT$$GT$6sample17ha4af445fe2db497bE', symObjAddr: 0x100, symBinAddr: 0x2B810, symSize: 0x34 }
  - { offset: 0xB0EA6, size: 0x8, addend: 0x0, symName: '__ZN113_$LT$rand_distr..normal..StandardNormal$u20$as$u20$rand..distributions..distribution..Distribution$LT$f64$GT$$GT$6sample17h6efd11089290ed53E', symObjAddr: 0x134, symBinAddr: 0x2B844, symSize: 0x3C4 }
  - { offset: 0xB10A7, size: 0x8, addend: 0x0, symName: '__ZN113_$LT$rand_distr..normal..StandardNormal$u20$as$u20$rand..distributions..distribution..Distribution$LT$f64$GT$$GT$6sample9zero_case17h06d6c57c54f5c6b5E', symObjAddr: 0x4F8, symBinAddr: 0x2BC08, symSize: 0x118 }
  - { offset: 0xB123F, size: 0x8, addend: 0x0, symName: '__ZN10rand_distr6normal15Normal$LT$F$GT$11from_zscore17haed4872c277a2f0fE', symObjAddr: 0x0, symBinAddr: 0x2B710, symSize: 0x54 }
  - { offset: 0xB13C6, size: 0x8, addend: 0x0, symName: '__ZN10rand_distr6normal15Normal$LT$F$GT$3new17hf378aefe0dde0494E', symObjAddr: 0x54, symBinAddr: 0x2B764, symSize: 0x70 }
  - { offset: 0xB18A4, size: 0x8, addend: 0x0, symName: __ZN5alloc5slice11stable_sort17h9cc34f17272a383fE, symObjAddr: 0x0, symBinAddr: 0x2BD20, symSize: 0xC8 }
  - { offset: 0xB1C5A, size: 0x8, addend: 0x0, symName: '__ZN5alloc5slice29_$LT$impl$u20$$u5b$T$u5d$$GT$7sort_by28_$u7b$$u7b$closure$u7d$$u7d$17h042ca5a76fe39e0dE', symObjAddr: 0x248, symBinAddr: 0x2BF68, symSize: 0x50 }
  - { offset: 0xB1CCC, size: 0x8, addend: 0x0, symName: '__ZN5alloc5slice29_$LT$impl$u20$$u5b$T$u5d$$GT$7sort_by28_$u7b$$u7b$closure$u7d$$u7d$17h862cb71b8ec90d23E', symObjAddr: 0x298, symBinAddr: 0x2BFB8, symSize: 0x50 }
  - { offset: 0xB1D7C, size: 0x8, addend: 0x0, symName: '__ZN5alloc5slice29_$LT$impl$u20$$u5b$T$u5d$$GT$6to_vec17h668044e0e697c054E', symObjAddr: 0x190, symBinAddr: 0x2BEB0, symSize: 0x28 }
  - { offset: 0xB1DD9, size: 0x8, addend: 0x0, symName: '__ZN5alloc5slice29_$LT$impl$u20$$u5b$T$u5d$$GT$7sort_by17h167a900030a37b39E', symObjAddr: 0x1B8, symBinAddr: 0x2BED8, symSize: 0x48 }
  - { offset: 0xB1E21, size: 0x8, addend: 0x0, symName: '__ZN5alloc5slice29_$LT$impl$u20$$u5b$T$u5d$$GT$7sort_by17h9c374613a3a872e9E', symObjAddr: 0x200, symBinAddr: 0x2BF20, symSize: 0x48 }
  - { offset: 0xB1E73, size: 0x8, addend: 0x0, symName: '__ZN87_$LT$T$u20$as$u20$alloc..slice..$LT$impl$u20$$u5b$T$u5d$$GT$..to_vec_in..ConvertVec$GT$6to_vec17h81a7e74c97c3bddbE', symObjAddr: 0x2E8, symBinAddr: 0x2C008, symSize: 0xF4 }
  - { offset: 0xB208F, size: 0x8, addend: 0x0, symName: __ZN5alloc5slice11stable_sort17h9cc34f17272a383fE, symObjAddr: 0x0, symBinAddr: 0x2BD20, symSize: 0xC8 }
  - { offset: 0xB2144, size: 0x8, addend: 0x0, symName: __ZN5alloc5slice11stable_sort17ha2d79cf7b36320ceE, symObjAddr: 0xC8, symBinAddr: 0x2BDE8, symSize: 0xC8 }
  - { offset: 0xB2851, size: 0x8, addend: 0x0, symName: '__ZN106_$LT$pyo3..impl_..extract_argument..NoVarargs$u20$as$u20$pyo3..impl_..extract_argument..VarargsHandler$GT$20handle_varargs_tuple17hef8d2290b7eb9b5dE', symObjAddr: 0x0, symBinAddr: 0x2C0FC, symSize: 0x94 }
  - { offset: 0xB408D, size: 0x8, addend: 0x0, symName: '__ZN106_$LT$pyo3..impl_..extract_argument..NoVarargs$u20$as$u20$pyo3..impl_..extract_argument..VarargsHandler$GT$20handle_varargs_tuple17hef8d2290b7eb9b5dE', symObjAddr: 0x0, symBinAddr: 0x2C0FC, symSize: 0x94 }
  - { offset: 0xB4106, size: 0x8, addend: 0x0, symName: '__ZN106_$LT$pyo3..impl_..extract_argument..NoVarargs$u20$as$u20$pyo3..impl_..extract_argument..VarargsHandler$GT$23handle_varargs_fastcall17ha1119642bd08afb5E', symObjAddr: 0x94, symBinAddr: 0x2C190, symSize: 0xA8 }
  - { offset: 0xB417A, size: 0x8, addend: 0x0, symName: '__ZN114_$LT$pyo3..impl_..extract_argument..NoVarkeywords$u20$as$u20$pyo3..impl_..extract_argument..VarkeywordsHandler$GT$17handle_varkeyword17h9061ce7591b86e74E', symObjAddr: 0x13C, symBinAddr: 0x2C238, symSize: 0x60 }
  - { offset: 0xB42B9, size: 0x8, addend: 0x0, symName: __ZN4pyo35impl_16extract_argument24unwrap_required_argument17h204af411af43919eE, symObjAddr: 0x538, symBinAddr: 0x2C634, symSize: 0x58 }
  - { offset: 0xB46D1, size: 0x8, addend: 0x0, symName: __ZN4pyo35impl_16extract_argument19FunctionDescription36find_keyword_parameter_in_positional17hcabe36b1b8dc830aE, symObjAddr: 0x19C, symBinAddr: 0x2C298, symSize: 0x5C }
  - { offset: 0xB4703, size: 0x8, addend: 0x0, symName: __ZN4pyo35impl_16extract_argument19FunctionDescription38find_keyword_parameter_in_keyword_only17hde3ed9d70ad4ea45E, symObjAddr: 0x1F8, symBinAddr: 0x2C2F4, symSize: 0x5C }
  - { offset: 0xB4C33, size: 0x8, addend: 0x0, symName: __ZN4pyo35impl_16extract_argument19FunctionDescription44ensure_no_missing_required_keyword_arguments17h8b67ba4ee9485a4cE, symObjAddr: 0x254, symBinAddr: 0x2C350, symSize: 0x154 }
  - { offset: 0xB4CFF, size: 0x8, addend: 0x0, symName: __ZN4pyo35impl_16extract_argument19FunctionDescription47ensure_no_missing_required_positional_arguments17ha8426465a4e288acE, symObjAddr: 0x3A8, symBinAddr: 0x2C4A4, symSize: 0x190 }
  - { offset: 0xB4E93, size: 0x8, addend: 0x0, symName: __ZN4pyo35impl_10trampoline11module_init17h49c2ba5dc3d29d02E, symObjAddr: 0x0, symBinAddr: 0x2C68C, symSize: 0x28 }
  - { offset: 0xB635F, size: 0x8, addend: 0x0, symName: __ZN4pyo35impl_10trampoline11module_init17h49c2ba5dc3d29d02E, symObjAddr: 0x0, symBinAddr: 0x2C68C, symSize: 0x28 }
  - { offset: 0xB638B, size: 0x8, addend: 0x0, symName: __ZN4pyo35impl_10trampoline22fastcall_with_keywords17h56bcd1a33cc2f973E, symObjAddr: 0x28, symBinAddr: 0x2C6B4, symSize: 0x5C }
  - { offset: 0xB63EF, size: 0x8, addend: 0x0, symName: __ZN4pyo35impl_10trampoline6noargs17h966bd175155351f6E, symObjAddr: 0x84, symBinAddr: 0x2C710, symSize: 0x64 }
  - { offset: 0xB6437, size: 0x8, addend: 0x0, symName: __ZN4pyo35impl_10trampoline7dealloc17h040d5468162f7598E, symObjAddr: 0xE8, symBinAddr: 0x2C774, symSize: 0x34 }
  - { offset: 0xB646D, size: 0x8, addend: 0x0, symName: __ZN4pyo35impl_10trampoline7lenfunc17h57dca580383d85beE, symObjAddr: 0x11C, symBinAddr: 0x2C7A8, symSize: 0x30 }
  - { offset: 0xB64A7, size: 0x8, addend: 0x0, symName: __ZN4pyo35impl_10trampoline7newfunc17h6645016448dcea9bE, symObjAddr: 0x14C, symBinAddr: 0x2C7D8, symSize: 0x50 }
  - { offset: 0xB6D75, size: 0x8, addend: 0x0, symName: '__ZN107_$LT$alloc..collections..binary_heap..IntoIter$LT$T$C$A$GT$$u20$as$u20$core..iter..adapters..SourceIter$GT$8as_inner17hf256ce02a5542b26E', symObjAddr: 0x0, symBinAddr: 0x2C828, symSize: 0x14 }
  - { offset: 0xB75D7, size: 0x8, addend: 0x0, symName: __ZN4core4iter6traits8iterator8Iterator3map17h3d209f51f47fb6e5E, symObjAddr: 0x114, symBinAddr: 0x2C93C, symSize: 0x1C }
  - { offset: 0xB7644, size: 0x8, addend: 0x0, symName: __ZN4core4iter6traits8iterator8Iterator8try_fold17h237314b3872474b4E, symObjAddr: 0x130, symBinAddr: 0x2C958, symSize: 0x1A0 }
  - { offset: 0xB7E00, size: 0x8, addend: 0x0, symName: '__ZN107_$LT$alloc..collections..binary_heap..IntoIter$LT$T$C$A$GT$$u20$as$u20$core..iter..adapters..SourceIter$GT$8as_inner17hf256ce02a5542b26E', symObjAddr: 0x0, symBinAddr: 0x2C828, symSize: 0x14 }
  - { offset: 0xB7E46, size: 0x8, addend: 0x0, symName: '__ZN113_$LT$alloc..collections..binary_heap..IntoIter$LT$T$C$A$GT$$u20$as$u20$core..iter..traits..iterator..Iterator$GT$4next17h08e51d93bb63cff1E', symObjAddr: 0x14, symBinAddr: 0x2C83C, symSize: 0x24 }
  - { offset: 0xB7E8C, size: 0x8, addend: 0x0, symName: '__ZN114_$LT$alloc..collections..binary_heap..IntoIter$LT$I$GT$$u20$as$u20$alloc..vec..in_place_collect..AsVecIntoIter$GT$12as_into_iter17h00163bdaa6b7d188E', symObjAddr: 0x38, symBinAddr: 0x2C860, symSize: 0x14 }
  - { offset: 0xB7EC9, size: 0x8, addend: 0x0, symName: '__ZN118_$LT$alloc..collections..binary_heap..BinaryHeap$LT$T$C$A$GT$$u20$as$u20$core..iter..traits..collect..IntoIterator$GT$9into_iter17h8ec9ca1762034152E', symObjAddr: 0x4C, symBinAddr: 0x2C874, symSize: 0xC8 }
  - { offset: 0xB8573, size: 0x8, addend: 0x0, symName: '__ZN5alloc11collections11binary_heap23BinaryHeap$LT$T$C$A$GT$3pop28_$u7b$$u7b$closure$u7d$$u7d$17h088dfb592f0bfd5cE', symObjAddr: 0xD88, symBinAddr: 0x2D5B0, symSize: 0xF0 }
  - { offset: 0xB8729, size: 0x8, addend: 0x0, symName: '__ZN5alloc11collections11binary_heap23BinaryHeap$LT$T$C$A$GT$3pop28_$u7b$$u7b$closure$u7d$$u7d$17h47090359b7fec978E', symObjAddr: 0xE78, symBinAddr: 0x2D6A0, symSize: 0xF0 }
  - { offset: 0xB939A, size: 0x8, addend: 0x0, symName: '__ZN5alloc11collections11binary_heap19BinaryHeap$LT$T$GT$3new17h7df3ba1b0ecd47edE', symObjAddr: 0x2D0, symBinAddr: 0x2CAF8, symSize: 0x30 }
  - { offset: 0xB93DB, size: 0x8, addend: 0x0, symName: '__ZN5alloc11collections11binary_heap19BinaryHeap$LT$T$GT$3new17ha3eaa931cef2aedcE', symObjAddr: 0x300, symBinAddr: 0x2CB28, symSize: 0x30 }
  - { offset: 0xB9699, size: 0x8, addend: 0x0, symName: '__ZN5alloc11collections11binary_heap23BinaryHeap$LT$T$C$A$GT$19sift_down_to_bottom17h6323599e9672164cE', symObjAddr: 0x330, symBinAddr: 0x2CB58, symSize: 0x3FC }
  - { offset: 0xB9E38, size: 0x8, addend: 0x0, symName: '__ZN5alloc11collections11binary_heap23BinaryHeap$LT$T$C$A$GT$19sift_down_to_bottom17h7583fd2604b7eaa8E', symObjAddr: 0x72C, symBinAddr: 0x2CF54, symSize: 0x3FC }
  - { offset: 0xBA39E, size: 0x8, addend: 0x0, symName: '__ZN5alloc11collections11binary_heap23BinaryHeap$LT$T$C$A$GT$3len17h8261a56e320d942aE', symObjAddr: 0xB28, symBinAddr: 0x2D350, symSize: 0x18 }
  - { offset: 0xBA570, size: 0x8, addend: 0x0, symName: '__ZN5alloc11collections11binary_heap23BinaryHeap$LT$T$C$A$GT$3pop17h5f3e3bea6107f53fE', symObjAddr: 0xB40, symBinAddr: 0x2D368, symSize: 0x124 }
  - { offset: 0xBA8A5, size: 0x8, addend: 0x0, symName: '__ZN5alloc11collections11binary_heap23BinaryHeap$LT$T$C$A$GT$3pop17h9fcc2a004c6e263eE', symObjAddr: 0xC64, symBinAddr: 0x2D48C, symSize: 0x124 }
  - { offset: 0xBAD2D, size: 0x8, addend: 0x0, symName: '__ZN5alloc11collections11binary_heap23BinaryHeap$LT$T$C$A$GT$4peek17h7417cc3de2af2eebE', symObjAddr: 0xF68, symBinAddr: 0x2D790, symSize: 0x58 }
  - { offset: 0xBAEA5, size: 0x8, addend: 0x0, symName: '__ZN5alloc11collections11binary_heap23BinaryHeap$LT$T$C$A$GT$4push17h5cce7b26dba46116E', symObjAddr: 0xFC0, symBinAddr: 0x2D7E8, symSize: 0x54 }
  - { offset: 0xBAFCF, size: 0x8, addend: 0x0, symName: '__ZN5alloc11collections11binary_heap23BinaryHeap$LT$T$C$A$GT$4push17h9e5c75ffeabd4a06E', symObjAddr: 0x1014, symBinAddr: 0x2D83C, symSize: 0x54 }
  - { offset: 0xBB228, size: 0x8, addend: 0x0, symName: '__ZN5alloc11collections11binary_heap23BinaryHeap$LT$T$C$A$GT$7sift_up17h2c989bd87bbc0fa3E', symObjAddr: 0x1068, symBinAddr: 0x2D890, symSize: 0x228 }
  - { offset: 0xBB772, size: 0x8, addend: 0x0, symName: '__ZN5alloc11collections11binary_heap23BinaryHeap$LT$T$C$A$GT$7sift_up17hcd7d30d9bbe4f6f0E', symObjAddr: 0x1290, symBinAddr: 0x2DAB8, symSize: 0x228 }
  - { offset: 0xBBBA2, size: 0x8, addend: 0x0, symName: '__ZN52_$LT$Q$u20$as$u20$hashbrown..Equivalent$LT$K$GT$$GT$10equivalent17h272261e220a9fdfdE', symObjAddr: 0x0, symBinAddr: 0x2DCE0, symSize: 0x40 }
  - { offset: 0xBBC35, size: 0x8, addend: 0x0, symName: '__ZN52_$LT$Q$u20$as$u20$hashbrown..Equivalent$LT$K$GT$$GT$10equivalent17h272261e220a9fdfdE', symObjAddr: 0x0, symBinAddr: 0x2DCE0, symSize: 0x40 }
  - { offset: 0xBBCB5, size: 0x8, addend: 0x0, symName: __ZN5rayon4iter7collect14special_extend17h28ed2b90db32e133E, symObjAddr: 0x0, symBinAddr: 0x2DD20, symSize: 0x58 }
  - { offset: 0xBBCD1, size: 0x8, addend: 0x0, symName: __ZN5rayon4iter7collect14special_extend17h28ed2b90db32e133E, symObjAddr: 0x0, symBinAddr: 0x2DD20, symSize: 0x58 }
  - { offset: 0xBBD2D, size: 0x8, addend: 0x0, symName: '__ZN5rayon4iter7collect14special_extend28_$u7b$$u7b$closure$u7d$$u7d$17h507282eaa933b85dE', symObjAddr: 0x58, symBinAddr: 0x2DD78, symSize: 0x60 }
  - { offset: 0xBBD8F, size: 0x8, addend: 0x0, symName: __ZN5rayon4iter7collect21collect_with_consumer17h41bb3a171a7214ebE, symObjAddr: 0xB8, symBinAddr: 0x2DDD8, symSize: 0x240 }
  - { offset: 0xBC846, size: 0x8, addend: 0x0, symName: '__ZN14neuralvault_rs13causal_engine28run_stochastic_simulation_rs28_$u7b$$u7b$closure$u7d$$u7d$17h00cf28d26e75b373E', symObjAddr: 0x0, symBinAddr: 0x2E018, symSize: 0x6A0 }
  - { offset: 0xBCB1D, size: 0x8, addend: 0x0, symName: '__ZN4core3ops8function5impls71_$LT$impl$u20$core..ops..function..FnMut$LT$A$GT$$u20$for$u20$$RF$F$GT$8call_mut17h05fa226979380c83E', symObjAddr: 0x838, symBinAddr: 0x2E850, symSize: 0x30 }
  - { offset: 0xBCD65, size: 0x8, addend: 0x0, symName: '__ZN14neuralvault_rs13causal_engine28run_stochastic_simulation_rs28_$u7b$$u7b$closure$u7d$$u7d$17h00cf28d26e75b373E', symObjAddr: 0x0, symBinAddr: 0x2E018, symSize: 0x6A0 }
  - { offset: 0xBCFAF, size: 0x8, addend: 0x0, symName: '__ZN14neuralvault_rs13causal_engine28run_stochastic_simulation_rs28_$u7b$$u7b$closure$u7d$$u7d$17h0e81b8b649025296E', symObjAddr: 0x6A0, symBinAddr: 0x2E6B8, symSize: 0x2C }
  - { offset: 0xBCFFE, size: 0x8, addend: 0x0, symName: '__ZN14neuralvault_rs13causal_engine28run_stochastic_simulation_rs28_$u7b$$u7b$closure$u7d$$u7d$17h1f360e28e7af9e66E', symObjAddr: 0x6CC, symBinAddr: 0x2E6E4, symSize: 0xE4 }
  - { offset: 0xBD05E, size: 0x8, addend: 0x0, symName: '__ZN14neuralvault_rs13causal_engine28run_stochastic_simulation_rs28_$u7b$$u7b$closure$u7d$$u7d$17haf54f6dc89d166daE', symObjAddr: 0x7B0, symBinAddr: 0x2E7C8, symSize: 0x4C }
  - { offset: 0xBD0A0, size: 0x8, addend: 0x0, symName: '__ZN14neuralvault_rs13causal_engine28run_stochastic_simulation_rs28_$u7b$$u7b$closure$u7d$$u7d$28_$u7b$$u7b$closure$u7d$$u7d$17h4cab5333e771681fE', symObjAddr: 0x7FC, symBinAddr: 0x2E814, symSize: 0x3C }
  - { offset: 0xBD956, size: 0x8, addend: 0x0, symName: '__ZN9hashbrown11rustc_entry62_$LT$impl$u20$hashbrown..map..HashMap$LT$K$C$V$C$S$C$A$GT$$GT$11rustc_entry28_$u7b$$u7b$closure$u7d$$u7d$17h1ddd349190549efcE', symObjAddr: 0x0, symBinAddr: 0x2E880, symSize: 0x38 }
  - { offset: 0xBD977, size: 0x8, addend: 0x0, symName: '__ZN9hashbrown11rustc_entry62_$LT$impl$u20$hashbrown..map..HashMap$LT$K$C$V$C$S$C$A$GT$$GT$11rustc_entry28_$u7b$$u7b$closure$u7d$$u7d$17h1ddd349190549efcE', symObjAddr: 0x0, symBinAddr: 0x2E880, symSize: 0x38 }
  - { offset: 0xBD9D8, size: 0x8, addend: 0x0, symName: '__ZN9hashbrown11rustc_entry62_$LT$impl$u20$hashbrown..map..HashMap$LT$K$C$V$C$S$C$A$GT$$GT$11rustc_entry28_$u7b$$u7b$closure$u7d$$u7d$17h400be33a032d0bd6E', symObjAddr: 0x38, symBinAddr: 0x2E8B8, symSize: 0x38 }
  - { offset: 0xBDD1A, size: 0x8, addend: 0x0, symName: '__ZN4core4hash5impls52_$LT$impl$u20$core..hash..Hash$u20$for$u20$$RF$T$GT$4hash17h6233fd2c1c88e9c3E', symObjAddr: 0x0, symBinAddr: 0x2E8F0, symSize: 0x30 }
  - { offset: 0xBE4D1, size: 0x8, addend: 0x0, symName: '__ZN4core4hash5impls52_$LT$impl$u20$core..hash..Hash$u20$for$u20$$RF$T$GT$4hash17h6233fd2c1c88e9c3E', symObjAddr: 0x0, symBinAddr: 0x2E8F0, symSize: 0x30 }
  - { offset: 0xBE620, size: 0x8, addend: 0x0, symName: '__ZN51_$LT$T$u20$as$u20$core..borrow..Borrow$LT$T$GT$$GT$6borrow17hbdc156d4a5685364E', symObjAddr: 0x4E4, symBinAddr: 0x2EDD4, symSize: 0x14 }
  - { offset: 0xBF694, size: 0x8, addend: 0x0, symName: '__ZN4pyo35types5tuple127_$LT$impl$u20$pyo3..conversion..IntoPy$LT$pyo3..instance..Py$LT$pyo3..types..any..PyAny$GT$$GT$$u20$for$u20$$LP$T0$C$T1$RP$$GT$7into_py17hcebbc2b02b162b3dE', symObjAddr: 0x30, symBinAddr: 0x2E920, symSize: 0x10C }
  - { offset: 0xBF6F0, size: 0x8, addend: 0x0, symName: '__ZN4pyo35types5tuple127_$LT$impl$u20$pyo3..conversion..IntoPy$LT$pyo3..instance..Py$LT$pyo3..types..any..PyAny$GT$$GT$$u20$for$u20$$LP$T0$C$T1$RP$$GT$7into_py17hdbcc5b9782a8a02fE', symObjAddr: 0x13C, symBinAddr: 0x2EA2C, symSize: 0xF0 }
  - { offset: 0xBF752, size: 0x8, addend: 0x0, symName: '__ZN4pyo35types5tuple76_$LT$impl$u20$pyo3..conversion..FromPyObject$u20$for$u20$$LP$T0$C$T1$RP$$GT$13extract_bound17h062c681b4e5e9a0eE', symObjAddr: 0x22C, symBinAddr: 0x2EB1C, symSize: 0x2B8 }
  - { offset: 0xBF899, size: 0x8, addend: 0x0, symName: '__ZN57_$LT$T$u20$as$u20$pyo3..conversion..FromPyObjectBound$GT$20from_py_object_bound17h4261f16f7ed7bf15E', symObjAddr: 0x538, symBinAddr: 0x2EE28, symSize: 0x34 }
  - { offset: 0xBF8E1, size: 0x8, addend: 0x0, symName: '__ZN71_$LT$T$u20$as$u20$pyo3..impl_..extract_argument..PyFunctionArgument$GT$7extract17h9ce50d08b601466cE', symObjAddr: 0x668, symBinAddr: 0x2EF58, symSize: 0x28 }
  - { offset: 0xBFC83, size: 0x8, addend: 0x0, symName: '__ZN58_$LT$alloc..string..String$u20$as$u20$core..hash..Hash$GT$4hash17h5815da2d5e402f27E', symObjAddr: 0x56C, symBinAddr: 0x2EE5C, symSize: 0x44 }
  - { offset: 0xC008D, size: 0x8, addend: 0x0, symName: '__ZN5alloc5slice29_$LT$impl$u20$$u5b$T$u5d$$GT$8into_vec17h3aef46f955c2b076E', symObjAddr: 0x5B0, symBinAddr: 0x2EEA0, symSize: 0xB8 }
  - { offset: 0xC034D, size: 0x8, addend: 0x0, symName: '__ZN52_$LT$Q$u20$as$u20$hashbrown..Equivalent$LT$K$GT$$GT$10equivalent17h02e82d1384fc9bafE', symObjAddr: 0x4F8, symBinAddr: 0x2EDE8, symSize: 0x40 }
  - { offset: 0xC0C0D, size: 0x8, addend: 0x0, symName: '__ZN63_$LT$I$u20$as$u20$core..iter..traits..collect..IntoIterator$GT$9into_iter17h66c7031972630de9E', symObjAddr: 0x0, symBinAddr: 0x2EF80, symSize: 0x18 }
  - { offset: 0xC13C9, size: 0x8, addend: 0x0, symName: '__ZN63_$LT$I$u20$as$u20$core..iter..traits..collect..IntoIterator$GT$9into_iter17h66c7031972630de9E', symObjAddr: 0x0, symBinAddr: 0x2EF80, symSize: 0x18 }
  - { offset: 0xC2428, size: 0x8, addend: 0x0, symName: '__ZN4core3cmp5impls55_$LT$impl$u20$core..cmp..PartialOrd$u20$for$u20$f32$GT$11partial_cmp17h067be4518f14d4faE', symObjAddr: 0x0, symBinAddr: 0x2EF98, symSize: 0x90 }
  - { offset: 0xC2467, size: 0x8, addend: 0x0, symName: '__ZN4core3cmp5impls55_$LT$impl$u20$core..cmp..PartialOrd$u20$for$u20$f32$GT$11partial_cmp17h067be4518f14d4faE', symObjAddr: 0x0, symBinAddr: 0x2EF98, symSize: 0x90 }
  - { offset: 0xC24AA, size: 0x8, addend: 0x0, symName: '__ZN4core3cmp5impls56_$LT$impl$u20$core..cmp..PartialEq$u20$for$u20$usize$GT$2eq17h7c385c9616fe2036E', symObjAddr: 0x90, symBinAddr: 0x2F028, symSize: 0x2C }
  - { offset: 0xC24ED, size: 0x8, addend: 0x0, symName: '__ZN4core3cmp5impls57_$LT$impl$u20$core..cmp..PartialOrd$u20$for$u20$usize$GT$11partial_cmp17hc753e65efbeb3666E', symObjAddr: 0xBC, symBinAddr: 0x2F054, symSize: 0x38 }
  - { offset: 0xC25F0, size: 0x8, addend: 0x0, symName: '__ZN4pyo35impl_7pyclass16lazy_type_object23LazyTypeObject$LT$T$GT$11get_or_init17h117f8c7d2ed073d2E', symObjAddr: 0x0, symBinAddr: 0x2F08C, symSize: 0x40 }
  - { offset: 0xC40FE, size: 0x8, addend: 0x0, symName: '__ZN4pyo35impl_7pyclass16lazy_type_object23LazyTypeObject$LT$T$GT$11get_or_init28_$u7b$$u7b$closure$u7d$$u7d$17h0e501b44cdf53585E', symObjAddr: 0x80, symBinAddr: 0x2F10C, symSize: 0xA8 }
  - { offset: 0xC4187, size: 0x8, addend: 0x0, symName: '__ZN4pyo35impl_7pyclass16lazy_type_object23LazyTypeObject$LT$T$GT$11get_or_init28_$u7b$$u7b$closure$u7d$$u7d$17h528a326927646c52E', symObjAddr: 0x128, symBinAddr: 0x2F1B4, symSize: 0xA8 }
  - { offset: 0xC5135, size: 0x8, addend: 0x0, symName: '__ZN4pyo35impl_7pyclass16lazy_type_object23LazyTypeObject$LT$T$GT$11get_or_init17h117f8c7d2ed073d2E', symObjAddr: 0x0, symBinAddr: 0x2F08C, symSize: 0x40 }
  - { offset: 0xC527A, size: 0x8, addend: 0x0, symName: '__ZN4pyo35impl_7pyclass16lazy_type_object23LazyTypeObject$LT$T$GT$11get_or_init17h7cfee96507d8b17cE', symObjAddr: 0x40, symBinAddr: 0x2F0CC, symSize: 0x40 }
  - { offset: 0xC52BE, size: 0x8, addend: 0x0, symName: '__ZN4pyo35impl_7pyclass16lazy_type_object23LazyTypeObject$LT$T$GT$15get_or_try_init17h6e94e69d76cf6c80E', symObjAddr: 0x1D0, symBinAddr: 0x2F25C, symSize: 0x58 }
  - { offset: 0xC5302, size: 0x8, addend: 0x0, symName: '__ZN4pyo35impl_7pyclass16lazy_type_object23LazyTypeObject$LT$T$GT$15get_or_try_init17hf19def414015ccf7E', symObjAddr: 0x228, symBinAddr: 0x2F2B4, symSize: 0x58 }
  - { offset: 0xC544F, size: 0x8, addend: 0x0, symName: '__ZN106_$LT$hashbrown..map..HashMap$LT$K$C$V$C$S$C$A$GT$$u20$as$u20$core..iter..traits..collect..IntoIterator$GT$9into_iter17h74f890b6bbc4b124E', symObjAddr: 0x0, symBinAddr: 0x2F30C, symSize: 0x6C }
  - { offset: 0xC63C3, size: 0x8, addend: 0x0, symName: '__ZN106_$LT$hashbrown..map..HashMap$LT$K$C$V$C$S$C$A$GT$$u20$as$u20$core..iter..traits..collect..IntoIterator$GT$9into_iter17h74f890b6bbc4b124E', symObjAddr: 0x0, symBinAddr: 0x2F30C, symSize: 0x6C }
  - { offset: 0xC6416, size: 0x8, addend: 0x0, symName: '__ZN106_$LT$hashbrown..map..HashMap$LT$K$C$V$C$S$C$A$GT$$u20$as$u20$core..iter..traits..collect..IntoIterator$GT$9into_iter17h751bc220bee7b5f7E', symObjAddr: 0x6C, symBinAddr: 0x2F378, symSize: 0x6C }
  - { offset: 0xC6469, size: 0x8, addend: 0x0, symName: '__ZN106_$LT$hashbrown..map..HashMap$LT$K$C$V$C$S$C$A$GT$$u20$as$u20$core..iter..traits..collect..IntoIterator$GT$9into_iter17hc8c8cdbc3116653dE', symObjAddr: 0xD8, symBinAddr: 0x2F3E4, symSize: 0x6C }
  - { offset: 0xC64BC, size: 0x8, addend: 0x0, symName: '__ZN106_$LT$hashbrown..map..HashMap$LT$K$C$V$C$S$C$A$GT$$u20$as$u20$core..iter..traits..collect..IntoIterator$GT$9into_iter17hd28ad873feb126d7E', symObjAddr: 0x144, symBinAddr: 0x2F450, symSize: 0x6C }
  - { offset: 0xC66E2, size: 0x8, addend: 0x0, symName: '__ZN121_$LT$hashbrown..map..HashMap$LT$K$C$V$C$S$C$A$GT$$u20$as$u20$core..iter..traits..collect..Extend$LT$$LP$K$C$V$RP$$GT$$GT$6extend17hd91c9ad1218b7f95E', symObjAddr: 0x1B0, symBinAddr: 0x2F4BC, symSize: 0x110 }
  - { offset: 0xC67F3, size: 0x8, addend: 0x0, symName: '__ZN121_$LT$hashbrown..map..HashMap$LT$K$C$V$C$S$C$A$GT$$u20$as$u20$core..iter..traits..collect..Extend$LT$$LP$K$C$V$RP$$GT$$GT$6extend28_$u7b$$u7b$closure$u7d$$u7d$17h178f5c675bf8c8ffE', symObjAddr: 0x2C0, symBinAddr: 0x2F5CC, symSize: 0x64 }
  - { offset: 0xC6B45, size: 0x8, addend: 0x0, symName: '__ZN9hashbrown3map11make_hasher28_$u7b$$u7b$closure$u7d$$u7d$17h0616a3099a1948adE', symObjAddr: 0x5BC, symBinAddr: 0x2F8C8, symSize: 0x3C }
  - { offset: 0xC6BC1, size: 0x8, addend: 0x0, symName: '__ZN9hashbrown3map11make_hasher28_$u7b$$u7b$closure$u7d$$u7d$17h6f3ea1dfee07f63fE', symObjAddr: 0x5F8, symBinAddr: 0x2F904, symSize: 0x3C }
  - { offset: 0xC6C3D, size: 0x8, addend: 0x0, symName: '__ZN9hashbrown3map11make_hasher28_$u7b$$u7b$closure$u7d$$u7d$17h74afc40be088a64eE', symObjAddr: 0x634, symBinAddr: 0x2F940, symSize: 0x3C }
  - { offset: 0xC6CB9, size: 0x8, addend: 0x0, symName: '__ZN9hashbrown3map11make_hasher28_$u7b$$u7b$closure$u7d$$u7d$17h8f32f466379b6801E', symObjAddr: 0x670, symBinAddr: 0x2F97C, symSize: 0x3C }
  - { offset: 0xC6D35, size: 0x8, addend: 0x0, symName: '__ZN9hashbrown3map11make_hasher28_$u7b$$u7b$closure$u7d$$u7d$17ha42bfd5184b1648bE', symObjAddr: 0x6AC, symBinAddr: 0x2F9B8, symSize: 0x3C }
  - { offset: 0xC6DB1, size: 0x8, addend: 0x0, symName: '__ZN9hashbrown3map11make_hasher28_$u7b$$u7b$closure$u7d$$u7d$17hc6146f1723718a40E', symObjAddr: 0x6E8, symBinAddr: 0x2F9F4, symSize: 0x3C }
  - { offset: 0xC6E2D, size: 0x8, addend: 0x0, symName: '__ZN9hashbrown3map11make_hasher28_$u7b$$u7b$closure$u7d$$u7d$17hebd1e7456b5c2d5aE', symObjAddr: 0x724, symBinAddr: 0x2FA30, symSize: 0x3C }
  - { offset: 0xC7005, size: 0x8, addend: 0x0, symName: '__ZN9hashbrown3map14equivalent_key28_$u7b$$u7b$closure$u7d$$u7d$17h1817478b974669bdE', symObjAddr: 0x760, symBinAddr: 0x2FA6C, symSize: 0x30 }
  - { offset: 0xC705C, size: 0x8, addend: 0x0, symName: '__ZN9hashbrown3map14equivalent_key28_$u7b$$u7b$closure$u7d$$u7d$17h2105d027e411e6d7E', symObjAddr: 0x790, symBinAddr: 0x2FA9C, symSize: 0x30 }
  - { offset: 0xC70B3, size: 0x8, addend: 0x0, symName: '__ZN9hashbrown3map14equivalent_key28_$u7b$$u7b$closure$u7d$$u7d$17h811f5fb14b2c2b28E', symObjAddr: 0x7C0, symBinAddr: 0x2FACC, symSize: 0x30 }
  - { offset: 0xC710A, size: 0x8, addend: 0x0, symName: '__ZN9hashbrown3map14equivalent_key28_$u7b$$u7b$closure$u7d$$u7d$17hb16b103738febe85E', symObjAddr: 0x7F0, symBinAddr: 0x2FAFC, symSize: 0x30 }
  - { offset: 0xC7161, size: 0x8, addend: 0x0, symName: '__ZN9hashbrown3map14equivalent_key28_$u7b$$u7b$closure$u7d$$u7d$17he32f864117c0f823E', symObjAddr: 0x820, symBinAddr: 0x2FB2C, symSize: 0x30 }
  - { offset: 0xC71B8, size: 0x8, addend: 0x0, symName: '__ZN9hashbrown3map14equivalent_key28_$u7b$$u7b$closure$u7d$$u7d$17hf98e94dbcfe3374cE', symObjAddr: 0x850, symBinAddr: 0x2FB5C, symSize: 0x30 }
  - { offset: 0xC8A46, size: 0x8, addend: 0x0, symName: '__ZN9hashbrown11rustc_entry62_$LT$impl$u20$hashbrown..map..HashMap$LT$K$C$V$C$S$C$A$GT$$GT$11rustc_entry17h52d20a47f875359fE', symObjAddr: 0x324, symBinAddr: 0x2F630, symSize: 0x14C }
  - { offset: 0xC8BB0, size: 0x8, addend: 0x0, symName: '__ZN9hashbrown11rustc_entry62_$LT$impl$u20$hashbrown..map..HashMap$LT$K$C$V$C$S$C$A$GT$$GT$11rustc_entry17hdf27d123f398d922E', symObjAddr: 0x470, symBinAddr: 0x2F77C, symSize: 0x14C }
  - { offset: 0xC8CBA, size: 0x8, addend: 0x0, symName: '__ZN9hashbrown3map24HashMap$LT$K$C$V$C$S$GT$24with_capacity_and_hasher17h3de20ee10d48335eE', symObjAddr: 0x880, symBinAddr: 0x2FB8C, symSize: 0x78 }
  - { offset: 0xC8D50, size: 0x8, addend: 0x0, symName: '__ZN9hashbrown3map28HashMap$LT$K$C$V$C$S$C$A$GT$12remove_entry17h3f4ebc2f8afa6fd2E', symObjAddr: 0x8F8, symBinAddr: 0x2FC04, symSize: 0x58 }
  - { offset: 0xC8F27, size: 0x8, addend: 0x0, symName: '__ZN9hashbrown3map28HashMap$LT$K$C$V$C$S$C$A$GT$3get17h94cf207a00fc9066E', symObjAddr: 0x950, symBinAddr: 0x2FC5C, symSize: 0x104 }
  - { offset: 0xC9250, size: 0x8, addend: 0x0, symName: '__ZN9hashbrown3map28HashMap$LT$K$C$V$C$S$C$A$GT$6insert17h385674f62ba83f6bE', symObjAddr: 0xA54, symBinAddr: 0x2FD60, symSize: 0x228 }
  - { offset: 0xC95BD, size: 0x8, addend: 0x0, symName: '__ZN9hashbrown3map28HashMap$LT$K$C$V$C$S$C$A$GT$6insert17h4c41e0a36062bb0aE', symObjAddr: 0xC7C, symBinAddr: 0x2FF88, symSize: 0x17C }
  - { offset: 0xC98B3, size: 0x8, addend: 0x0, symName: '__ZN9hashbrown3map28HashMap$LT$K$C$V$C$S$C$A$GT$6insert17h4f2268b901b10c29E', symObjAddr: 0xDF8, symBinAddr: 0x30104, symSize: 0x228 }
  - { offset: 0xC9C56, size: 0x8, addend: 0x0, symName: '__ZN9hashbrown3map28HashMap$LT$K$C$V$C$S$C$A$GT$6insert17h5acef6fc12893b61E', symObjAddr: 0x1020, symBinAddr: 0x3032C, symSize: 0x224 }
  - { offset: 0xC9F9E, size: 0x8, addend: 0x0, symName: '__ZN9hashbrown3map28HashMap$LT$K$C$V$C$S$C$A$GT$6insert17he08d18c2d90a11bfE', symObjAddr: 0x1244, symBinAddr: 0x30550, symSize: 0x1D8 }
  - { offset: 0xCA2CB, size: 0x8, addend: 0x0, symName: '__ZN9hashbrown3map28HashMap$LT$K$C$V$C$S$C$A$GT$6insert17hf38093e36cd49300E', symObjAddr: 0x141C, symBinAddr: 0x30728, symSize: 0x1D8 }
  - { offset: 0xCA4BD, size: 0x8, addend: 0x0, symName: '__ZN9hashbrown3map28HashMap$LT$K$C$V$C$S$C$A$GT$6remove17h1fcd37a105fb3120E', symObjAddr: 0x15F4, symBinAddr: 0x30900, symSize: 0x94 }
  - { offset: 0xCA5CF, size: 0x8, addend: 0x0, symName: __ZN3std9panicking12catch_unwind7do_call17h073dd08162e39fe1E, symObjAddr: 0x0, symBinAddr: 0x30994, symSize: 0x94 }
  - { offset: 0xCCF94, size: 0x8, addend: 0x0, symName: __ZN3std9panicking12catch_unwind7do_call17h073dd08162e39fe1E, symObjAddr: 0x0, symBinAddr: 0x30994, symSize: 0x94 }
  - { offset: 0xCD08F, size: 0x8, addend: 0x0, symName: __ZN3std9panicking12catch_unwind7do_call17h0fa694db8fa854e8E, symObjAddr: 0x94, symBinAddr: 0x30A28, symSize: 0x8C }
  - { offset: 0xCD18A, size: 0x8, addend: 0x0, symName: __ZN3std9panicking12catch_unwind7do_call17h11f59b535a76657fE, symObjAddr: 0x120, symBinAddr: 0x30AB4, symSize: 0x94 }
  - { offset: 0xCD285, size: 0x8, addend: 0x0, symName: __ZN3std9panicking12catch_unwind7do_call17h2c3ea2cbed6311a1E, symObjAddr: 0x1B4, symBinAddr: 0x30B48, symSize: 0x8C }
  - { offset: 0xCD380, size: 0x8, addend: 0x0, symName: __ZN3std9panicking12catch_unwind7do_call17h5b96f55080104f75E, symObjAddr: 0x240, symBinAddr: 0x30BD4, symSize: 0x94 }
  - { offset: 0xCD47B, size: 0x8, addend: 0x0, symName: __ZN3std9panicking12catch_unwind7do_call17h6d9f7a0c8436452aE, symObjAddr: 0x2D4, symBinAddr: 0x30C68, symSize: 0x84 }
  - { offset: 0xCD576, size: 0x8, addend: 0x0, symName: __ZN3std9panicking12catch_unwind7do_call17h7157261e020f9f22E, symObjAddr: 0x358, symBinAddr: 0x30CEC, symSize: 0x84 }
  - { offset: 0xCD671, size: 0x8, addend: 0x0, symName: __ZN3std9panicking12catch_unwind7do_call17h7830ad0156b13fd1E, symObjAddr: 0x3DC, symBinAddr: 0x30D70, symSize: 0x94 }
  - { offset: 0xCD76C, size: 0x8, addend: 0x0, symName: __ZN3std9panicking12catch_unwind7do_call17hb0063adc60da02e7E, symObjAddr: 0x470, symBinAddr: 0x30E04, symSize: 0x90 }
  - { offset: 0xCD867, size: 0x8, addend: 0x0, symName: __ZN3std9panicking12catch_unwind7do_call17hb485983dfea624b9E, symObjAddr: 0x500, symBinAddr: 0x30E94, symSize: 0x88 }
  - { offset: 0xCD962, size: 0x8, addend: 0x0, symName: __ZN3std9panicking12catch_unwind7do_call17hbce35c404a9aecdaE, symObjAddr: 0x588, symBinAddr: 0x30F1C, symSize: 0x80 }
  - { offset: 0xCDA5D, size: 0x8, addend: 0x0, symName: __ZN3std9panicking12catch_unwind7do_call17hdf4a98e3326e34c7E, symObjAddr: 0x608, symBinAddr: 0x30F9C, symSize: 0x84 }
  - { offset: 0xCDB58, size: 0x8, addend: 0x0, symName: __ZN3std9panicking12catch_unwind7do_call17hea2711310dd9901aE, symObjAddr: 0x68C, symBinAddr: 0x31020, symSize: 0x84 }
  - { offset: 0xCDC53, size: 0x8, addend: 0x0, symName: __ZN3std9panicking12catch_unwind7do_call17hfdd5194096366b1aE, symObjAddr: 0x710, symBinAddr: 0x310A4, symSize: 0x8C }
  - { offset: 0xCDD4E, size: 0x8, addend: 0x0, symName: __ZN3std9panicking12catch_unwind8do_catch17h0c60801e6bd6b3daE, symObjAddr: 0x79C, symBinAddr: 0x31130, symSize: 0x70 }
  - { offset: 0xCDDE3, size: 0x8, addend: 0x0, symName: __ZN3std9panicking12catch_unwind8do_catch17h0e6f7094df796e17E, symObjAddr: 0x80C, symBinAddr: 0x311A0, symSize: 0x70 }
  - { offset: 0xCDE78, size: 0x8, addend: 0x0, symName: __ZN3std9panicking12catch_unwind8do_catch17h13097a67ab16eff0E, symObjAddr: 0x87C, symBinAddr: 0x31210, symSize: 0x70 }
  - { offset: 0xCDF0D, size: 0x8, addend: 0x0, symName: __ZN3std9panicking12catch_unwind8do_catch17h3b06e255ab0e5f11E, symObjAddr: 0x8EC, symBinAddr: 0x31280, symSize: 0x70 }
  - { offset: 0xCDFA2, size: 0x8, addend: 0x0, symName: __ZN3std9panicking12catch_unwind8do_catch17h74cc339f27404597E, symObjAddr: 0x95C, symBinAddr: 0x312F0, symSize: 0x70 }
  - { offset: 0xCE037, size: 0x8, addend: 0x0, symName: __ZN3std9panicking12catch_unwind8do_catch17h98ba35fd90b5ef08E, symObjAddr: 0x9CC, symBinAddr: 0x31360, symSize: 0x70 }
  - { offset: 0xCE0CC, size: 0x8, addend: 0x0, symName: __ZN3std9panicking12catch_unwind8do_catch17hb93e921199e78eb5E, symObjAddr: 0xA3C, symBinAddr: 0x313D0, symSize: 0x70 }
  - { offset: 0xCE161, size: 0x8, addend: 0x0, symName: __ZN3std9panicking12catch_unwind8do_catch17hbb194a2999d69da5E, symObjAddr: 0xAAC, symBinAddr: 0x31440, symSize: 0x70 }
  - { offset: 0xCE1F6, size: 0x8, addend: 0x0, symName: __ZN3std9panicking12catch_unwind8do_catch17hcf8409e9d2d011a0E, symObjAddr: 0xB1C, symBinAddr: 0x314B0, symSize: 0x70 }
  - { offset: 0xCE28B, size: 0x8, addend: 0x0, symName: __ZN3std9panicking12catch_unwind8do_catch17hd21ebea73fcb9816E, symObjAddr: 0xB8C, symBinAddr: 0x31520, symSize: 0x70 }
  - { offset: 0xCE320, size: 0x8, addend: 0x0, symName: __ZN3std9panicking12catch_unwind8do_catch17hdaa00cb0803ec138E, symObjAddr: 0xBFC, symBinAddr: 0x31590, symSize: 0x70 }
  - { offset: 0xCE3B5, size: 0x8, addend: 0x0, symName: __ZN3std9panicking12catch_unwind8do_catch17hdb4e5021d469b102E, symObjAddr: 0xC6C, symBinAddr: 0x31600, symSize: 0x70 }
  - { offset: 0xCE44A, size: 0x8, addend: 0x0, symName: __ZN3std9panicking12catch_unwind8do_catch17he2fb0444c9d4e79eE, symObjAddr: 0xCDC, symBinAddr: 0x31670, symSize: 0x70 }
  - { offset: 0xCE4DF, size: 0x8, addend: 0x0, symName: __ZN3std9panicking12catch_unwind8do_catch17hf64f9ff0aea00fd6E, symObjAddr: 0xD4C, symBinAddr: 0x316E0, symSize: 0x70 }
  - { offset: 0xCFB40, size: 0x8, addend: 0x0, symName: __ZN14neuralvault_rs10turboquant14PolarQuantizer12unbiased_dot17hbaa3c14ff35e7117E, symObjAddr: 0x0, symBinAddr: 0x31750, symSize: 0x2BC }
  - { offset: 0xCFC42, size: 0x8, addend: 0x0, symName: __ZN14neuralvault_rs10turboquant14PolarQuantizer12unbiased_dot17hbaa3c14ff35e7117E, symObjAddr: 0x0, symBinAddr: 0x31750, symSize: 0x2BC }
  - { offset: 0xCFD35, size: 0x8, addend: 0x0, symName: __ZN14neuralvault_rs10turboquant14PolarQuantizer3new17he326786012f264dcE, symObjAddr: 0x2BC, symBinAddr: 0x31A0C, symSize: 0x14 }
  - { offset: 0xCFF9F, size: 0x8, addend: 0x0, symName: __ZN14neuralvault_rs10turboquant14PolarQuantizer6encode17h20994b6af36a4255E, symObjAddr: 0x2D0, symBinAddr: 0x31A20, symSize: 0x3D8 }
  - { offset: 0xD00C7, size: 0x8, addend: 0x0, symName: '__ZN4core3ptr9const_ptr33_$LT$impl$u20$$BP$const$u20$T$GT$7is_null17he9c6475d71268938E', symObjAddr: 0x0, symBinAddr: 0x31DF8, symSize: 0x18 }
  - { offset: 0xD08D4, size: 0x8, addend: 0x0, symName: '__ZN4core3ptr9const_ptr33_$LT$impl$u20$$BP$const$u20$T$GT$7is_null17he9c6475d71268938E', symObjAddr: 0x0, symBinAddr: 0x31DF8, symSize: 0x18 }
  - { offset: 0xD09EE, size: 0x8, addend: 0x0, symName: '__ZN4core5slice29_$LT$impl$u20$$u5b$T$u5d$$GT$15copy_from_slice17h698826ecf6a9663eE', symObjAddr: 0x18, symBinAddr: 0x31E10, symSize: 0x34 }
  - { offset: 0xD0A57, size: 0x8, addend: 0x0, symName: '__ZN4core5slice29_$LT$impl$u20$$u5b$T$u5d$$GT$18split_at_unchecked17h72b298bf90fe2f3fE', symObjAddr: 0x4C, symBinAddr: 0x31E44, symSize: 0xE8 }
  - { offset: 0xD0B9C, size: 0x8, addend: 0x0, symName: '__ZN4core5slice29_$LT$impl$u20$$u5b$T$u5d$$GT$8split_at17hb04a3b74ee9ed854E', symObjAddr: 0x134, symBinAddr: 0x31F2C, symSize: 0xAC }
  - { offset: 0xD238D, size: 0x8, addend: 0x0, symName: '__ZN70_$LT$core..option..Option$LT$T$GT$$u20$as$u20$core..cmp..PartialEq$GT$2eq17hceec696886972594E', symObjAddr: 0xA08, symBinAddr: 0x32800, symSize: 0x9C }
  - { offset: 0xD32D2, size: 0x8, addend: 0x0, symName: '__ZN4core6option15Option$LT$T$GT$3map17h02a56c84550eff49E', symObjAddr: 0x1E0, symBinAddr: 0x31FD8, symSize: 0x5C }
  - { offset: 0xD39A6, size: 0x8, addend: 0x0, symName: '__ZN4core6option15Option$LT$T$GT$3map17h1b90cad5f4778985E', symObjAddr: 0x23C, symBinAddr: 0x32034, symSize: 0x5C }
  - { offset: 0xD3A11, size: 0x8, addend: 0x0, symName: '__ZN4core6option15Option$LT$T$GT$3map17h78d32e4b74f52cdbE', symObjAddr: 0x298, symBinAddr: 0x32090, symSize: 0x5C }
  - { offset: 0xD3A89, size: 0x8, addend: 0x0, symName: '__ZN4core6option15Option$LT$T$GT$3map17ha20e1235a4591e37E', symObjAddr: 0x2F4, symBinAddr: 0x320EC, symSize: 0x50 }
  - { offset: 0xD3AF4, size: 0x8, addend: 0x0, symName: '__ZN4core6option15Option$LT$T$GT$3map17hb9958da46581e1afE', symObjAddr: 0x344, symBinAddr: 0x3213C, symSize: 0x5C }
  - { offset: 0xD3B5F, size: 0x8, addend: 0x0, symName: '__ZN4core6option15Option$LT$T$GT$3map17hc6e98154ddfbdc50E', symObjAddr: 0x3A0, symBinAddr: 0x32198, symSize: 0x5C }
  - { offset: 0xD3BD7, size: 0x8, addend: 0x0, symName: '__ZN4core6option15Option$LT$T$GT$3map17hfb0859d658642f49E', symObjAddr: 0x3FC, symBinAddr: 0x321F4, symSize: 0x50 }
  - { offset: 0xD400F, size: 0x8, addend: 0x0, symName: '__ZN4core6option15Option$LT$T$GT$4take17h35e69a482a2c753fE', symObjAddr: 0x44C, symBinAddr: 0x32244, symSize: 0x5C }
  - { offset: 0xD4066, size: 0x8, addend: 0x0, symName: '__ZN4core6option15Option$LT$T$GT$4take17h61f1d9614de2cf0dE', symObjAddr: 0x4A8, symBinAddr: 0x322A0, symSize: 0x5C }
  - { offset: 0xD40BD, size: 0x8, addend: 0x0, symName: '__ZN4core6option15Option$LT$T$GT$4take17h89e216d1b66f730cE', symObjAddr: 0x504, symBinAddr: 0x322FC, symSize: 0x5C }
  - { offset: 0xD4114, size: 0x8, addend: 0x0, symName: '__ZN4core6option15Option$LT$T$GT$4take17h8f272d4b037d6d71E', symObjAddr: 0x560, symBinAddr: 0x32358, symSize: 0x5C }
  - { offset: 0xD416B, size: 0x8, addend: 0x0, symName: '__ZN4core6option15Option$LT$T$GT$4take17hb90febc4753ba5b5E', symObjAddr: 0x5BC, symBinAddr: 0x323B4, symSize: 0x5C }
  - { offset: 0xD41C2, size: 0x8, addend: 0x0, symName: '__ZN4core6option15Option$LT$T$GT$4take17hbbbd366d5a53139fE', symObjAddr: 0x618, symBinAddr: 0x32410, symSize: 0x5C }
  - { offset: 0xD4274, size: 0x8, addend: 0x0, symName: '__ZN4core6option15Option$LT$T$GT$6as_ref17h0b50fdff2fe5cc2bE', symObjAddr: 0x674, symBinAddr: 0x3246C, symSize: 0x4C }
  - { offset: 0xD4377, size: 0x8, addend: 0x0, symName: '__ZN4core6option15Option$LT$T$GT$6insert17h338ff3c9f23c7563E', symObjAddr: 0x6C0, symBinAddr: 0x324B8, symSize: 0xA8 }
  - { offset: 0xD447D, size: 0x8, addend: 0x0, symName: '__ZN4core6option15Option$LT$T$GT$6insert17h6cca975cba0f1d4fE', symObjAddr: 0x768, symBinAddr: 0x32560, symSize: 0xA8 }
  - { offset: 0xD4583, size: 0x8, addend: 0x0, symName: '__ZN4core6option15Option$LT$T$GT$6insert17h9c2e6c1bdf907522E', symObjAddr: 0x810, symBinAddr: 0x32608, symSize: 0xA8 }
  - { offset: 0xD4619, size: 0x8, addend: 0x0, symName: '__ZN4core6option15Option$LT$T$GT$7is_some17h8d56fcc45b3ac40bE', symObjAddr: 0x8B8, symBinAddr: 0x326B0, symSize: 0x28 }
  - { offset: 0xD4652, size: 0x8, addend: 0x0, symName: '__ZN4core6option15Option$LT$T$GT$7is_some17he33e7b73bdf5fe5cE', symObjAddr: 0x8E0, symBinAddr: 0x326D8, symSize: 0x28 }
  - { offset: 0xD468B, size: 0x8, addend: 0x0, symName: '__ZN4core6option15Option$LT$T$GT$7replace17h1bc81d5f3fe30585E', symObjAddr: 0x908, symBinAddr: 0x32700, symSize: 0x28 }
  - { offset: 0xD46E4, size: 0x8, addend: 0x0, symName: '__ZN4core6option15Option$LT$T$GT$9unwrap_or17h0bf2e255876ac4cfE', symObjAddr: 0x930, symBinAddr: 0x32728, symSize: 0x4C }
  - { offset: 0xD4726, size: 0x8, addend: 0x0, symName: '__ZN4core6option15Option$LT$T$GT$9unwrap_or17h12e435903b82f35aE', symObjAddr: 0x97C, symBinAddr: 0x32774, symSize: 0x44 }
  - { offset: 0xD4761, size: 0x8, addend: 0x0, symName: '__ZN4core6option15Option$LT$T$GT$9unwrap_or17h8b89ea6d35f3bf21E', symObjAddr: 0x9C0, symBinAddr: 0x327B8, symSize: 0x48 }
  - { offset: 0xD47E5, size: 0x8, addend: 0x0, symName: __ZN4core3cmp21default_chaining_impl17h1e3f5c036166e81cE, symObjAddr: 0x0, symBinAddr: 0x3289C, symSize: 0xCC }
  - { offset: 0xD481A, size: 0x8, addend: 0x0, symName: __ZN4core3cmp21default_chaining_impl17h1e3f5c036166e81cE, symObjAddr: 0x0, symBinAddr: 0x3289C, symSize: 0xCC }
  - { offset: 0xD48D2, size: 0x8, addend: 0x0, symName: __ZN4core3cmp3Ord3max17h0dcf1ed0d8130f4aE, symObjAddr: 0xCC, symBinAddr: 0x32968, symSize: 0x74 }
  - { offset: 0xD493E, size: 0x8, addend: 0x0, symName: __ZN4core3cmp3Ord3min17he0ad3621731fae05E, symObjAddr: 0x140, symBinAddr: 0x329DC, symSize: 0x74 }
  - { offset: 0xD49AB, size: 0x8, addend: 0x0, symName: __ZN4core3cmp3max17hd9149ca561e6ba66E, symObjAddr: 0x1B4, symBinAddr: 0x32A50, symSize: 0x24 }
  - { offset: 0xD49F1, size: 0x8, addend: 0x0, symName: __ZN4core3cmp3min17hdcd1a732a74e470dE, symObjAddr: 0x1D8, symBinAddr: 0x32A74, symSize: 0x24 }
  - { offset: 0xD4B62, size: 0x8, addend: 0x0, symName: __ZN9hashbrown7control5group4neon5Group10match_full17hecb2ddb6867bb213E, symObjAddr: 0x0, symBinAddr: 0x32A98, symSize: 0x68 }
  - { offset: 0xD4C7A, size: 0x8, addend: 0x0, symName: __ZN9hashbrown7control5group4neon5Group10match_full17hecb2ddb6867bb213E, symObjAddr: 0x0, symBinAddr: 0x32A98, symSize: 0x68 }
  - { offset: 0xD4CB2, size: 0x8, addend: 0x0, symName: __ZN9hashbrown7control5group4neon5Group22match_empty_or_deleted17h985df46469d07cceE, symObjAddr: 0x68, symBinAddr: 0x32B00, symSize: 0x68 }
  - { offset: 0xD4CEA, size: 0x8, addend: 0x0, symName: __ZN9hashbrown7control5group4neon5Group44convert_special_to_empty_and_full_to_deleted17h1993c03aae31652cE, symObjAddr: 0xD0, symBinAddr: 0x32B68, symSize: 0x88 }
  - { offset: 0xD4D22, size: 0x8, addend: 0x0, symName: __ZN9hashbrown7control5group4neon5Group9match_tag17h913144a3428618ffE, symObjAddr: 0x158, symBinAddr: 0x32BF0, symSize: 0x7C }
  - { offset: 0xD4D8E, size: 0x8, addend: 0x0, symName: __ZN4pyo36marker6Python19assume_gil_acquired17h7dfc313b7c1d2a3fE, symObjAddr: 0x0, symBinAddr: 0x32C6C, symSize: 0x4 }
  - { offset: 0xD4F88, size: 0x8, addend: 0x0, symName: __ZN4pyo36marker6Python19assume_gil_acquired17h7dfc313b7c1d2a3fE, symObjAddr: 0x0, symBinAddr: 0x32C6C, symSize: 0x4 }
  - { offset: 0xD4FB9, size: 0x8, addend: 0x0, symName: '__ZN5alloc3vec13in_place_drop20InPlaceDrop$LT$T$GT$3len17h5a6ed85ac08ec1f3E', symObjAddr: 0x0, symBinAddr: 0x32C70, symSize: 0x84 }
  - { offset: 0xD5380, size: 0x8, addend: 0x0, symName: '__ZN5alloc3vec13in_place_drop20InPlaceDrop$LT$T$GT$3len17h5a6ed85ac08ec1f3E', symObjAddr: 0x0, symBinAddr: 0x32C70, symSize: 0x84 }
  - { offset: 0xD546A, size: 0x8, addend: 0x0, symName: '__ZN5alloc3vec13in_place_drop20InPlaceDrop$LT$T$GT$3len17hea22dca26df8dffeE', symObjAddr: 0x84, symBinAddr: 0x32CF4, symSize: 0x84 }
  - { offset: 0xD552D, size: 0x8, addend: 0x0, symName: __ZN4pyo35impl_9pymethods11tp_new_impl17h4480c337be38a104E, symObjAddr: 0x0, symBinAddr: 0x32D78, symSize: 0x54 }
  - { offset: 0xD5CDF, size: 0x8, addend: 0x0, symName: '__ZN50_$LT$T$u20$as$u20$core..convert..Into$LT$U$GT$$GT$4into17h271dabdfca1b39fcE', symObjAddr: 0xC0, symBinAddr: 0x32E38, symSize: 0x24 }
  - { offset: 0xD6A80, size: 0x8, addend: 0x0, symName: __ZN4pyo35impl_9pymethods11tp_new_impl17h4480c337be38a104E, symObjAddr: 0x0, symBinAddr: 0x32D78, symSize: 0x54 }
  - { offset: 0xD6AE2, size: 0x8, addend: 0x0, symName: __ZN4pyo35impl_9pymethods11tp_new_impl17hfaa8b80c6b6a4cb9E, symObjAddr: 0x54, symBinAddr: 0x32DCC, symSize: 0x6C }
  - { offset: 0xD79D5, size: 0x8, addend: 0x0, symName: '__ZN4core3ptr7mut_ptr31_$LT$impl$u20$$BP$mut$u20$T$GT$6offset18precondition_check17h510b1b9bf5183d86E', symObjAddr: 0x0, symBinAddr: 0x32E5C, symSize: 0xC4 }
  - { offset: 0xD7A8B, size: 0x8, addend: 0x0, symName: '__ZN4core3ptr7mut_ptr31_$LT$impl$u20$$BP$mut$u20$T$GT$6offset18precondition_check17h510b1b9bf5183d86E', symObjAddr: 0x0, symBinAddr: 0x32E5C, symSize: 0xC4 }
  - { offset: 0xD7E7E, size: 0x8, addend: 0x0, symName: '__ZN114_$LT$pyo3..pyclass_init..PyNativeTypeInitializer$LT$T$GT$$u20$as$u20$pyo3..pyclass_init..PyObjectInit$LT$T$GT$$GT$15into_new_object17h53edf5dcb1ee6454E', symObjAddr: 0x0, symBinAddr: 0x32F20, symSize: 0x3C }
  - { offset: 0xD982C, size: 0x8, addend: 0x0, symName: '__ZN114_$LT$pyo3..pyclass_init..PyNativeTypeInitializer$LT$T$GT$$u20$as$u20$pyo3..pyclass_init..PyObjectInit$LT$T$GT$$GT$15into_new_object17h53edf5dcb1ee6454E', symObjAddr: 0x0, symBinAddr: 0x32F20, symSize: 0x3C }
  - { offset: 0xD9AF9, size: 0x8, addend: 0x0, symName: '__ZN96_$LT$pyo3..pyclass_init..PyClassInitializer$LT$T$GT$$u20$as$u20$core..convert..From$LT$T$GT$$GT$4from17h1eaa5f7765e303cbE', symObjAddr: 0x644, symBinAddr: 0x33564, symSize: 0x24 }
  - { offset: 0xD9B30, size: 0x8, addend: 0x0, symName: '__ZN96_$LT$pyo3..pyclass_init..PyClassInitializer$LT$T$GT$$u20$as$u20$core..convert..From$LT$T$GT$$GT$4from17hb311a324087d154dE', symObjAddr: 0x668, symBinAddr: 0x33588, symSize: 0x40 }
  - { offset: 0xDA612, size: 0x8, addend: 0x0, symName: '__ZN4pyo312pyclass_init27PyClassInitializer$LT$T$GT$27create_class_object_of_type17h9596af71e6030fcaE', symObjAddr: 0x3C, symBinAddr: 0x32F5C, symSize: 0x278 }
  - { offset: 0xDABF2, size: 0x8, addend: 0x0, symName: '__ZN4pyo312pyclass_init27PyClassInitializer$LT$T$GT$27create_class_object_of_type17hac7aa72b30816cd9E', symObjAddr: 0x2B4, symBinAddr: 0x331D4, symSize: 0x308 }
  - { offset: 0xDAD9F, size: 0x8, addend: 0x0, symName: '__ZN4pyo312pyclass_init27PyClassInitializer$LT$T$GT$3new17h1711dc4242f83167E', symObjAddr: 0x5BC, symBinAddr: 0x334DC, symSize: 0x38 }
  - { offset: 0xDADD8, size: 0x8, addend: 0x0, symName: '__ZN4pyo312pyclass_init27PyClassInitializer$LT$T$GT$3new17h7027daa1b08319d9E', symObjAddr: 0x5F4, symBinAddr: 0x33514, symSize: 0x50 }
  - { offset: 0xDAE30, size: 0x8, addend: 0x0, symName: '__ZN4core5slice29_$LT$impl$u20$$u5b$T$u5d$$GT$18split_at_unchecked18precondition_check17h78a80711b16179ffE', symObjAddr: 0x0, symBinAddr: 0x335C8, symSize: 0x60 }
  - { offset: 0xDAE51, size: 0x8, addend: 0x0, symName: '__ZN4core5slice29_$LT$impl$u20$$u5b$T$u5d$$GT$18split_at_unchecked18precondition_check17h78a80711b16179ffE', symObjAddr: 0x0, symBinAddr: 0x335C8, symSize: 0x60 }
  - { offset: 0xDAEAA, size: 0x8, addend: 0x0, symName: '__ZN4core5slice29_$LT$impl$u20$$u5b$T$u5d$$GT$22split_at_mut_unchecked18precondition_check17h8d1fa5fbfcb8daacE', symObjAddr: 0x60, symBinAddr: 0x33628, symSize: 0x60 }
  - { offset: 0xDAF54, size: 0x8, addend: 0x0, symName: '__ZN185_$LT$core..ops..control_flow..ControlFlow$LT$B$C$C$GT$$u20$as$u20$core..ops..try_trait..FromResidual$LT$core..ops..control_flow..ControlFlow$LT$B$C$core..convert..Infallible$GT$$GT$$GT$13from_residual17hd7195e3931600fdbE', symObjAddr: 0x0, symBinAddr: 0x33688, symSize: 0x30 }
  - { offset: 0xDAF75, size: 0x8, addend: 0x0, symName: '__ZN185_$LT$core..ops..control_flow..ControlFlow$LT$B$C$C$GT$$u20$as$u20$core..ops..try_trait..FromResidual$LT$core..ops..control_flow..ControlFlow$LT$B$C$core..convert..Infallible$GT$$GT$$GT$13from_residual17hd7195e3931600fdbE', symObjAddr: 0x0, symBinAddr: 0x33688, symSize: 0x30 }
  - { offset: 0xDAFB9, size: 0x8, addend: 0x0, symName: '__ZN95_$LT$core..ops..control_flow..ControlFlow$LT$B$C$C$GT$$u20$as$u20$core..ops..try_trait..Try$GT$11from_output17h67711ce7e501e24bE', symObjAddr: 0x30, symBinAddr: 0x336B8, symSize: 0x28 }
  - { offset: 0xDAFF7, size: 0x8, addend: 0x0, symName: '__ZN95_$LT$core..ops..control_flow..ControlFlow$LT$B$C$C$GT$$u20$as$u20$core..ops..try_trait..Try$GT$6branch17h89298ad9b274f993E', symObjAddr: 0x58, symBinAddr: 0x336E0, symSize: 0x74 }
  - { offset: 0xDB311, size: 0x8, addend: 0x0, symName: '__ZN63_$LT$I$u20$as$u20$core..iter..traits..collect..IntoIterator$GT$9into_iter17hbde7d9c6f32528bbE', symObjAddr: 0x0, symBinAddr: 0x33754, symSize: 0x14 }
  - { offset: 0xDB337, size: 0x8, addend: 0x0, symName: '__ZN63_$LT$I$u20$as$u20$core..iter..traits..collect..IntoIterator$GT$9into_iter17hbde7d9c6f32528bbE', symObjAddr: 0x0, symBinAddr: 0x33754, symSize: 0x14 }
  - { offset: 0xDB36E, size: 0x8, addend: 0x0, symName: '__ZN63_$LT$I$u20$as$u20$core..iter..traits..collect..IntoIterator$GT$9into_iter17hcebdd62acced5a8dE', symObjAddr: 0x14, symBinAddr: 0x33768, symSize: 0x18 }
  - { offset: 0xDB3B7, size: 0x8, addend: 0x0, symName: '__ZN98_$LT$core..iter..adapters..rev..Rev$LT$I$GT$$u20$as$u20$core..iter..traits..iterator..Iterator$GT$4next17he6bc9534565c0f67E', symObjAddr: 0x2C, symBinAddr: 0x33780, symSize: 0x24 }
  - { offset: 0xDB3EC, size: 0x8, addend: 0x0, symName: '__ZN98_$LT$core..iter..adapters..rev..Rev$LT$I$GT$$u20$as$u20$core..iter..traits..iterator..Iterator$GT$4next17he800407f7d827facE', symObjAddr: 0x50, symBinAddr: 0x337A4, symSize: 0x24 }
  - { offset: 0xDB5F3, size: 0x8, addend: 0x0, symName: '__ZN10rayon_core8registry8Registry14in_worker_cold10LOCK_LATCH29_$u7b$$u7b$constant$u7d$$u7d$28_$u7b$$u7b$closure$u7d$$u7d$17h78af184e3f1b3a03E', symObjAddr: 0x0, symBinAddr: 0x337C8, symSize: 0x34 }
  - { offset: 0xDB7D2, size: 0x8, addend: 0x0, symName: '__ZN10rayon_core8registry8Registry14in_worker_cold10LOCK_LATCH29_$u7b$$u7b$constant$u7d$$u7d$28_$u7b$$u7b$closure$u7d$$u7d$17h78af184e3f1b3a03E', symObjAddr: 0x0, symBinAddr: 0x337C8, symSize: 0x34 }
  - { offset: 0xDB80D, size: 0x8, addend: 0x0, symName: '__ZN10rayon_core8registry8Registry14in_worker_cold28_$u7b$$u7b$closure$u7d$$u7d$17h52d498bb722d3273E', symObjAddr: 0xDC, symBinAddr: 0x337FC, symSize: 0x1D8 }
  - { offset: 0xDB887, size: 0x8, addend: 0x0, symName: '__ZN10rayon_core8registry8Registry14in_worker_cold28_$u7b$$u7b$closure$u7d$$u7d$17h7a7cc6ae9f438fd1E', symObjAddr: 0x2B4, symBinAddr: 0x339D4, symSize: 0x1D8 }
  - { offset: 0xDB906, size: 0x8, addend: 0x0, symName: '__ZN10rayon_core8registry8Registry14in_worker_cold28_$u7b$$u7b$closure$u7d$$u7d$28_$u7b$$u7b$closure$u7d$$u7d$17h4ad2c9d583d9e005E', symObjAddr: 0x48C, symBinAddr: 0x33BAC, symSize: 0x138 }
  - { offset: 0xDB975, size: 0x8, addend: 0x0, symName: '__ZN10rayon_core8registry8Registry14in_worker_cold28_$u7b$$u7b$closure$u7d$$u7d$28_$u7b$$u7b$closure$u7d$$u7d$17h50b58bc32dfda199E', symObjAddr: 0x5C4, symBinAddr: 0x33CE4, symSize: 0x138 }
  - { offset: 0xDBA11, size: 0x8, addend: 0x0, symName: '__ZN10rayon_core8registry8Registry15in_worker_cross28_$u7b$$u7b$closure$u7d$$u7d$17h36e07a054ae99596E', symObjAddr: 0xAF4, symBinAddr: 0x33E1C, symSize: 0x138 }
  - { offset: 0xDBA80, size: 0x8, addend: 0x0, symName: '__ZN10rayon_core8registry8Registry15in_worker_cross28_$u7b$$u7b$closure$u7d$$u7d$17hdc9fc5f5312e645bE', symObjAddr: 0xC2C, symBinAddr: 0x33F54, symSize: 0x138 }
  - { offset: 0xDBD49, size: 0x8, addend: 0x0, symName: __ZN10rayon_core8registry9in_worker17h7d9a3685ca900c70E, symObjAddr: 0x125C, symBinAddr: 0x34584, symSize: 0x158 }
  - { offset: 0xDBDA0, size: 0x8, addend: 0x0, symName: __ZN10rayon_core8registry9in_worker17h849d6ed64f337081E, symObjAddr: 0x13B4, symBinAddr: 0x346DC, symSize: 0x158 }
  - { offset: 0xDD1FA, size: 0x8, addend: 0x0, symName: __ZN4core3cmp9PartialEq2ne17h5ad876149675878cE, symObjAddr: 0x150C, symBinAddr: 0x34834, symSize: 0x30 }
  - { offset: 0xDDA11, size: 0x8, addend: 0x0, symName: __ZN10rayon_core8registry8Registry14in_worker_cold17h0df946a0d64efd53E, symObjAddr: 0x34, symBinAddr: 0xEF8F8, symSize: 0x54 }
  - { offset: 0xDDA8E, size: 0x8, addend: 0x0, symName: __ZN10rayon_core8registry8Registry14in_worker_cold17he527352a4e8bb898E, symObjAddr: 0x88, symBinAddr: 0xEF94C, symSize: 0x54 }
  - { offset: 0xDDAED, size: 0x8, addend: 0x0, symName: __ZN10rayon_core8registry8Registry15in_worker_cross17h7eb8740439cb920eE, symObjAddr: 0x6FC, symBinAddr: 0xEF9A0, symSize: 0x1FC }
  - { offset: 0xDDB71, size: 0x8, addend: 0x0, symName: __ZN10rayon_core8registry8Registry15in_worker_cross17ha54b3b176f83f414E, symObjAddr: 0x8F8, symBinAddr: 0xEFB9C, symSize: 0x1FC }
  - { offset: 0xDDBF5, size: 0x8, addend: 0x0, symName: __ZN10rayon_core8registry8Registry9in_worker17h3e0a18045437b1c4E, symObjAddr: 0xD64, symBinAddr: 0x3408C, symSize: 0x27C }
  - { offset: 0xDDC50, size: 0x8, addend: 0x0, symName: __ZN10rayon_core8registry8Registry9in_worker17h4a9ebd69f64e2578E, symObjAddr: 0xFE0, symBinAddr: 0x34308, symSize: 0x27C }
  - { offset: 0xDDD6C, size: 0x8, addend: 0x0, symName: __ZN4core9core_arch7aarch644neon9generated7vld1_u817h651294b25ab9be7bE, symObjAddr: 0x0, symBinAddr: 0x34864, symSize: 0x34 }
  - { offset: 0xDDD92, size: 0x8, addend: 0x0, symName: __ZN4core9core_arch7aarch644neon9generated7vld1_u817h651294b25ab9be7bE, symObjAddr: 0x0, symBinAddr: 0x34864, symSize: 0x34 }
  - { offset: 0xDDDC0, size: 0x8, addend: 0x0, symName: __ZN4core9core_arch7aarch644neon9generated7vst1_u817h8ccd1116e0962aa7E, symObjAddr: 0x34, symBinAddr: 0x34898, symSize: 0x40 }
  - { offset: 0xDDDFA, size: 0x8, addend: 0x0, symName: __ZN4core9core_arch7aarch644neon9generated8vcgez_s817had4075e094fb984dE, symObjAddr: 0x74, symBinAddr: 0x348D8, symSize: 0x68 }
  - { offset: 0xDDE9C, size: 0x8, addend: 0x0, symName: __ZN4core9core_arch7aarch644neon9generated8vcltz_s817h36b92ad1cb050a1aE, symObjAddr: 0xDC, symBinAddr: 0x34940, symSize: 0x68 }
  - { offset: 0xDE092, size: 0x8, addend: 0x0, symName: '__ZN102_$LT$core..iter..adapters..map..Map$LT$I$C$F$GT$$u20$as$u20$core..iter..traits..iterator..Iterator$GT$4fold17h48070a0151fd4ff0E', symObjAddr: 0x0, symBinAddr: 0x349A8, symSize: 0x34 }
  - { offset: 0xDE628, size: 0x8, addend: 0x0, symName: '__ZN102_$LT$core..iter..adapters..map..Map$LT$I$C$F$GT$$u20$as$u20$core..iter..traits..iterator..Iterator$GT$4fold17h48070a0151fd4ff0E', symObjAddr: 0x0, symBinAddr: 0x349A8, symSize: 0x34 }
  - { offset: 0xDE69E, size: 0x8, addend: 0x0, symName: '__ZN102_$LT$core..iter..adapters..map..Map$LT$I$C$F$GT$$u20$as$u20$core..iter..traits..iterator..Iterator$GT$4fold17h7e60ab665ef3c21cE', symObjAddr: 0x34, symBinAddr: 0x349DC, symSize: 0x4C }
  - { offset: 0xDE737, size: 0x8, addend: 0x0, symName: '__ZN102_$LT$core..iter..adapters..map..Map$LT$I$C$F$GT$$u20$as$u20$core..iter..traits..iterator..Iterator$GT$4fold17h8c2a12c190cf12e9E', symObjAddr: 0x80, symBinAddr: 0x34A28, symSize: 0x6C }
  - { offset: 0xDE7D0, size: 0x8, addend: 0x0, symName: '__ZN102_$LT$core..iter..adapters..map..Map$LT$I$C$F$GT$$u20$as$u20$core..iter..traits..iterator..Iterator$GT$4fold17h98d50e1c3c2eb634E', symObjAddr: 0xEC, symBinAddr: 0x34A94, symSize: 0x4C }
  - { offset: 0xDE842, size: 0x8, addend: 0x0, symName: '__ZN102_$LT$core..iter..adapters..map..Map$LT$I$C$F$GT$$u20$as$u20$core..iter..traits..iterator..Iterator$GT$4fold17hbdcee984b5c9663aE', symObjAddr: 0x138, symBinAddr: 0x34AE0, symSize: 0x6C }
  - { offset: 0xDE8DB, size: 0x8, addend: 0x0, symName: '__ZN102_$LT$core..iter..adapters..map..Map$LT$I$C$F$GT$$u20$as$u20$core..iter..traits..iterator..Iterator$GT$4fold17he6def44c2e0daa04E', symObjAddr: 0x1A4, symBinAddr: 0x34B4C, symSize: 0x38 }
  - { offset: 0xDE951, size: 0x8, addend: 0x0, symName: '__ZN102_$LT$core..iter..adapters..map..Map$LT$I$C$F$GT$$u20$as$u20$core..iter..traits..iterator..Iterator$GT$4fold17hf694e6eb0b913f70E', symObjAddr: 0x1DC, symBinAddr: 0x34B84, symSize: 0x30 }
  - { offset: 0xDE9C6, size: 0x8, addend: 0x0, symName: '__ZN102_$LT$core..iter..adapters..map..Map$LT$I$C$F$GT$$u20$as$u20$core..iter..traits..iterator..Iterator$GT$4next17h3d0c4662ddfb8cecE', symObjAddr: 0x20C, symBinAddr: 0x34BB4, symSize: 0x7C }
  - { offset: 0xDEA62, size: 0x8, addend: 0x0, symName: '__ZN102_$LT$core..iter..adapters..map..Map$LT$I$C$F$GT$$u20$as$u20$core..iter..traits..iterator..Iterator$GT$4next17h57af80b375467cdbE', symObjAddr: 0x288, symBinAddr: 0x34C30, symSize: 0x8C }
  - { offset: 0xDEB0E, size: 0x8, addend: 0x0, symName: '__ZN102_$LT$core..iter..adapters..map..Map$LT$I$C$F$GT$$u20$as$u20$core..iter..traits..iterator..Iterator$GT$4next17h88788a4a9aef8808E', symObjAddr: 0x314, symBinAddr: 0x34CBC, symSize: 0xA8 }
  - { offset: 0xDEBAB, size: 0x8, addend: 0x0, symName: '__ZN102_$LT$core..iter..adapters..map..Map$LT$I$C$F$GT$$u20$as$u20$core..iter..traits..iterator..Iterator$GT$4next17hafdaef77740bff53E', symObjAddr: 0x3BC, symBinAddr: 0x34D64, symSize: 0xA0 }
  - { offset: 0xDEC48, size: 0x8, addend: 0x0, symName: '__ZN102_$LT$core..iter..adapters..map..Map$LT$I$C$F$GT$$u20$as$u20$core..iter..traits..iterator..Iterator$GT$4next17hc6030948847dabb3E', symObjAddr: 0x45C, symBinAddr: 0x34E04, symSize: 0x90 }
  - { offset: 0xDECE4, size: 0x8, addend: 0x0, symName: '__ZN102_$LT$core..iter..adapters..map..Map$LT$I$C$F$GT$$u20$as$u20$core..iter..traits..iterator..Iterator$GT$8try_fold17h2f9d023f732ef81bE', symObjAddr: 0x4EC, symBinAddr: 0x34E94, symSize: 0x34 }
  - { offset: 0xDED62, size: 0x8, addend: 0x0, symName: '__ZN102_$LT$core..iter..adapters..map..Map$LT$I$C$F$GT$$u20$as$u20$core..iter..traits..iterator..Iterator$GT$8try_fold17h706dd73260540db5E', symObjAddr: 0x520, symBinAddr: 0x34EC8, symSize: 0x4C }
  - { offset: 0xDEDE0, size: 0x8, addend: 0x0, symName: '__ZN102_$LT$core..iter..adapters..map..Map$LT$I$C$F$GT$$u20$as$u20$core..iter..traits..iterator..Iterator$GT$8try_fold17h8ed7da6a421c78c5E', symObjAddr: 0x56C, symBinAddr: 0x34F14, symSize: 0x34 }
  - { offset: 0xDEE5E, size: 0x8, addend: 0x0, symName: '__ZN102_$LT$core..iter..adapters..map..Map$LT$I$C$F$GT$$u20$as$u20$core..iter..traits..iterator..Iterator$GT$8try_fold17hafcf938aa1d65a18E', symObjAddr: 0x5A0, symBinAddr: 0x34F48, symSize: 0x4C }
  - { offset: 0xDEEDC, size: 0x8, addend: 0x0, symName: '__ZN102_$LT$core..iter..adapters..map..Map$LT$I$C$F$GT$$u20$as$u20$core..iter..traits..iterator..Iterator$GT$8try_fold17hcad0a251053ef5dcE', symObjAddr: 0x5EC, symBinAddr: 0x34F94, symSize: 0x34 }
  - { offset: 0xDEF5A, size: 0x8, addend: 0x0, symName: '__ZN102_$LT$core..iter..adapters..map..Map$LT$I$C$F$GT$$u20$as$u20$core..iter..traits..iterator..Iterator$GT$9size_hint17h0eecca3ac0d50f7aE', symObjAddr: 0x620, symBinAddr: 0x34FC8, symSize: 0x24 }
  - { offset: 0xDEFA1, size: 0x8, addend: 0x0, symName: '__ZN102_$LT$core..iter..adapters..map..Map$LT$I$C$F$GT$$u20$as$u20$core..iter..traits..iterator..Iterator$GT$9size_hint17h0f676d0f2767dd40E', symObjAddr: 0x644, symBinAddr: 0x34FEC, symSize: 0x24 }
  - { offset: 0xDEFE8, size: 0x8, addend: 0x0, symName: '__ZN102_$LT$core..iter..adapters..map..Map$LT$I$C$F$GT$$u20$as$u20$core..iter..traits..iterator..Iterator$GT$9size_hint17h357c430d1232e9adE', symObjAddr: 0x668, symBinAddr: 0x35010, symSize: 0x24 }
  - { offset: 0xDF02F, size: 0x8, addend: 0x0, symName: '__ZN102_$LT$core..iter..adapters..map..Map$LT$I$C$F$GT$$u20$as$u20$core..iter..traits..iterator..Iterator$GT$9size_hint17h4c108a61654dc531E', symObjAddr: 0x68C, symBinAddr: 0x35034, symSize: 0x24 }
  - { offset: 0xDF076, size: 0x8, addend: 0x0, symName: '__ZN102_$LT$core..iter..adapters..map..Map$LT$I$C$F$GT$$u20$as$u20$core..iter..traits..iterator..Iterator$GT$9size_hint17h4c57e813cc87a261E', symObjAddr: 0x6B0, symBinAddr: 0x35058, symSize: 0x24 }
  - { offset: 0xDF0BD, size: 0x8, addend: 0x0, symName: '__ZN102_$LT$core..iter..adapters..map..Map$LT$I$C$F$GT$$u20$as$u20$core..iter..traits..iterator..Iterator$GT$9size_hint17hd696830ab396fa09E', symObjAddr: 0x6D4, symBinAddr: 0x3507C, symSize: 0x24 }
  - { offset: 0xDF104, size: 0x8, addend: 0x0, symName: '__ZN102_$LT$core..iter..adapters..map..Map$LT$I$C$F$GT$$u20$as$u20$core..iter..traits..iterator..Iterator$GT$9size_hint17hf941a9eeef280b31E', symObjAddr: 0x6F8, symBinAddr: 0x350A0, symSize: 0x24 }
  - { offset: 0xDF1FF, size: 0x8, addend: 0x0, symName: '__ZN4core4iter8adapters3map8map_fold28_$u7b$$u7b$closure$u7d$$u7d$17h2df97d9fc2e968edE', symObjAddr: 0xEF4, symBinAddr: 0x3589C, symSize: 0x98 }
  - { offset: 0xDF286, size: 0x8, addend: 0x0, symName: '__ZN4core4iter8adapters3map8map_fold28_$u7b$$u7b$closure$u7d$$u7d$17h641bc099ab5021b5E', symObjAddr: 0xF8C, symBinAddr: 0x35934, symSize: 0x90 }
  - { offset: 0xDF30B, size: 0x8, addend: 0x0, symName: '__ZN4core4iter8adapters3map8map_fold28_$u7b$$u7b$closure$u7d$$u7d$17h6e924ee25819c12bE', symObjAddr: 0x101C, symBinAddr: 0x359C4, symSize: 0x8C }
  - { offset: 0xDF390, size: 0x8, addend: 0x0, symName: '__ZN4core4iter8adapters3map8map_fold28_$u7b$$u7b$closure$u7d$$u7d$17h7fbfaab691d8767eE', symObjAddr: 0x10A8, symBinAddr: 0x35A50, symSize: 0x90 }
  - { offset: 0xDF419, size: 0x8, addend: 0x0, symName: '__ZN4core4iter8adapters3map8map_fold28_$u7b$$u7b$closure$u7d$$u7d$17ha7e53ed9acce22bfE', symObjAddr: 0x1138, symBinAddr: 0x35AE0, symSize: 0xA8 }
  - { offset: 0xDF49F, size: 0x8, addend: 0x0, symName: '__ZN4core4iter8adapters3map8map_fold28_$u7b$$u7b$closure$u7d$$u7d$17hc86650742ae1aac6E', symObjAddr: 0x11E0, symBinAddr: 0x35B88, symSize: 0x98 }
  - { offset: 0xDF526, size: 0x8, addend: 0x0, symName: '__ZN4core4iter8adapters3map8map_fold28_$u7b$$u7b$closure$u7d$$u7d$17he8958e26a8a3adccE', symObjAddr: 0x1278, symBinAddr: 0x35C20, symSize: 0x80 }
  - { offset: 0xDF5AB, size: 0x8, addend: 0x0, symName: '__ZN4core4iter8adapters3map8map_fold28_$u7b$$u7b$closure$u7d$$u7d$17hf97600f8ba9e414aE', symObjAddr: 0x12F8, symBinAddr: 0x35CA0, symSize: 0x98 }
  - { offset: 0xDF6E0, size: 0x8, addend: 0x0, symName: '__ZN113_$LT$core..iter..adapters..map..Map$LT$I$C$F$GT$$u20$as$u20$core..iter..traits..exact_size..ExactSizeIterator$GT$3len17h0e9abf81c99e1f50E', symObjAddr: 0x71C, symBinAddr: 0x350C4, symSize: 0x24 }
  - { offset: 0xDF727, size: 0x8, addend: 0x0, symName: '__ZN113_$LT$core..iter..adapters..map..Map$LT$I$C$F$GT$$u20$as$u20$core..iter..traits..exact_size..ExactSizeIterator$GT$3len17h339e0166a518e15dE', symObjAddr: 0x740, symBinAddr: 0x350E8, symSize: 0x24 }
  - { offset: 0xDF76E, size: 0x8, addend: 0x0, symName: '__ZN113_$LT$core..iter..adapters..map..Map$LT$I$C$F$GT$$u20$as$u20$core..iter..traits..exact_size..ExactSizeIterator$GT$3len17h64df7a2db43fc1f8E', symObjAddr: 0x764, symBinAddr: 0x3510C, symSize: 0x24 }
  - { offset: 0xDF7B5, size: 0x8, addend: 0x0, symName: '__ZN113_$LT$core..iter..adapters..map..Map$LT$I$C$F$GT$$u20$as$u20$core..iter..traits..exact_size..ExactSizeIterator$GT$8is_empty17h1267c53849edbda8E', symObjAddr: 0x788, symBinAddr: 0x35130, symSize: 0x24 }
  - { offset: 0xDF7FC, size: 0x8, addend: 0x0, symName: '__ZN113_$LT$core..iter..adapters..map..Map$LT$I$C$F$GT$$u20$as$u20$core..iter..traits..exact_size..ExactSizeIterator$GT$8is_empty17h6c37e3314fe45dc5E', symObjAddr: 0x7AC, symBinAddr: 0x35154, symSize: 0x24 }
  - { offset: 0xDF843, size: 0x8, addend: 0x0, symName: '__ZN113_$LT$core..iter..adapters..map..Map$LT$I$C$F$GT$$u20$as$u20$core..iter..traits..exact_size..ExactSizeIterator$GT$8is_empty17hf3c1eb5ba32ab47eE', symObjAddr: 0x7D0, symBinAddr: 0x35178, symSize: 0x24 }
  - { offset: 0xDF890, size: 0x8, addend: 0x0, symName: '__ZN4core4iter8adapters3map12map_try_fold28_$u7b$$u7b$closure$u7d$$u7d$17h5eafa44276799424E', symObjAddr: 0xB1C, symBinAddr: 0x354C4, symSize: 0xA4 }
  - { offset: 0xDF923, size: 0x8, addend: 0x0, symName: '__ZN4core4iter8adapters3map12map_try_fold28_$u7b$$u7b$closure$u7d$$u7d$17h6d9d0ac2d90db77aE', symObjAddr: 0xBC0, symBinAddr: 0x35568, symSize: 0x9C }
  - { offset: 0xDF9B5, size: 0x8, addend: 0x0, symName: '__ZN4core4iter8adapters3map12map_try_fold28_$u7b$$u7b$closure$u7d$$u7d$17h7f4363217d95b9a3E', symObjAddr: 0xC5C, symBinAddr: 0x35604, symSize: 0xF0 }
  - { offset: 0xDFA47, size: 0x8, addend: 0x0, symName: '__ZN4core4iter8adapters3map12map_try_fold28_$u7b$$u7b$closure$u7d$$u7d$17ha50fded096a1018aE', symObjAddr: 0xD4C, symBinAddr: 0x356F4, symSize: 0xB8 }
  - { offset: 0xDFADA, size: 0x8, addend: 0x0, symName: '__ZN4core4iter8adapters3map12map_try_fold28_$u7b$$u7b$closure$u7d$$u7d$17hbf1f60c1cac3fb95E', symObjAddr: 0xE04, symBinAddr: 0x357AC, symSize: 0xF0 }
  - { offset: 0xDFB73, size: 0x8, addend: 0x0, symName: '__ZN96_$LT$core..iter..adapters..map..Map$LT$I$C$F$GT$$u20$as$u20$core..iter..adapters..SourceIter$GT$8as_inner17h65eb219dbe1d886fE', symObjAddr: 0x1974, symBinAddr: 0x3631C, symSize: 0x24 }
  - { offset: 0xDFBB1, size: 0x8, addend: 0x0, symName: '__ZN96_$LT$core..iter..adapters..map..Map$LT$I$C$F$GT$$u20$as$u20$core..iter..adapters..SourceIter$GT$8as_inner17hcaef09aab8a2ea33E', symObjAddr: 0x1998, symBinAddr: 0x36340, symSize: 0x24 }
  - { offset: 0xDFFDB, size: 0x8, addend: 0x0, symName: __ZN4core4iter6traits8iterator8Iterator10advance_by17h6bfda7b3a76f8822E, symObjAddr: 0x7F4, symBinAddr: 0x3519C, symSize: 0x28 }
  - { offset: 0xE0021, size: 0x8, addend: 0x0, symName: __ZN4core4iter6traits8iterator8Iterator10advance_by17hee009cf6a8c11b33E, symObjAddr: 0x81C, symBinAddr: 0x351C4, symSize: 0x28 }
  - { offset: 0xE0067, size: 0x8, addend: 0x0, symName: __ZN4core4iter6traits8iterator8Iterator10advance_by17hfe3343ed69527d2eE, symObjAddr: 0x844, symBinAddr: 0x351EC, symSize: 0x28 }
  - { offset: 0xE00AD, size: 0x8, addend: 0x0, symName: __ZN4core4iter6traits8iterator8Iterator3nth17h37dd44cd03c78c82E, symObjAddr: 0x86C, symBinAddr: 0x35214, symSize: 0x68 }
  - { offset: 0xE0157, size: 0x8, addend: 0x0, symName: __ZN4core4iter6traits8iterator8Iterator3nth17hd45c2b6afcd48167E, symObjAddr: 0x8D4, symBinAddr: 0x3527C, symSize: 0x68 }
  - { offset: 0xE0201, size: 0x8, addend: 0x0, symName: __ZN4core4iter6traits8iterator8Iterator3nth17hd9b1e1146feae6c1E, symObjAddr: 0x93C, symBinAddr: 0x352E4, symSize: 0x68 }
  - { offset: 0xE02AB, size: 0x8, addend: 0x0, symName: __ZN4core4iter6traits8iterator8Iterator3sum17h99fffd00045710c9E, symObjAddr: 0x9A4, symBinAddr: 0x3534C, symSize: 0x2C }
  - { offset: 0xE02EB, size: 0x8, addend: 0x0, symName: __ZN4core4iter6traits8iterator8Iterator3sum17hc7cf45fe37740f2aE, symObjAddr: 0x9D0, symBinAddr: 0x35378, symSize: 0x14 }
  - { offset: 0xE032C, size: 0x8, addend: 0x0, symName: __ZN4core4iter6traits8iterator8Iterator3sum17hffefeb245737d9e0E, symObjAddr: 0x9E4, symBinAddr: 0x3538C, symSize: 0x14 }
  - { offset: 0xE036D, size: 0x8, addend: 0x0, symName: __ZN4core4iter6traits8iterator8Iterator7collect17h17e11276239a2989E, symObjAddr: 0x9F8, symBinAddr: 0x353A0, symSize: 0x14 }
  - { offset: 0xE03AE, size: 0x8, addend: 0x0, symName: __ZN4core4iter6traits8iterator8Iterator7collect17h3b9f4725c26eee2bE, symObjAddr: 0xA0C, symBinAddr: 0x353B4, symSize: 0x14 }
  - { offset: 0xE03EF, size: 0x8, addend: 0x0, symName: __ZN4core4iter6traits8iterator8Iterator7collect17h6351ab9fc4a930b3E, symObjAddr: 0xA20, symBinAddr: 0x353C8, symSize: 0x14 }
  - { offset: 0xE0430, size: 0x8, addend: 0x0, symName: __ZN4core4iter6traits8iterator8Iterator7collect17h96769bf88f311f08E, symObjAddr: 0xA34, symBinAddr: 0x353DC, symSize: 0x14 }
  - { offset: 0xE0471, size: 0x8, addend: 0x0, symName: __ZN4core4iter6traits8iterator8Iterator7collect17hcc476e3f5cf98078E, symObjAddr: 0xA48, symBinAddr: 0x353F0, symSize: 0x14 }
  - { offset: 0xE04B2, size: 0x8, addend: 0x0, symName: __ZN4core4iter6traits8iterator8Iterator8for_each17h01346990063c75bcE, symObjAddr: 0xA5C, symBinAddr: 0x35404, symSize: 0x34 }
  - { offset: 0xE051E, size: 0x8, addend: 0x0, symName: __ZN4core4iter6traits8iterator8Iterator8for_each17h39f1ce3e3a41a84cE, symObjAddr: 0xA90, symBinAddr: 0x35438, symSize: 0x24 }
  - { offset: 0xE056A, size: 0x8, addend: 0x0, symName: __ZN4core4iter6traits8iterator8Iterator8for_each17hd2d42bd3b420f660E, symObjAddr: 0xAB4, symBinAddr: 0x3545C, symSize: 0x34 }
  - { offset: 0xE05D6, size: 0x8, addend: 0x0, symName: __ZN4core4iter6traits8iterator8Iterator8for_each17hf794137ba8220eefE, symObjAddr: 0xAE8, symBinAddr: 0x35490, symSize: 0x34 }
  - { offset: 0xE064C, size: 0x8, addend: 0x0, symName: '__ZN87_$LT$I$u20$as$u20$core..iter..traits..iterator..Iterator..advance_by..SpecAdvanceBy$GT$15spec_advance_by17h78f81d2f2913248eE', symObjAddr: 0x17D0, symBinAddr: 0x36178, symSize: 0x8C }
  - { offset: 0xE06FA, size: 0x8, addend: 0x0, symName: '__ZN87_$LT$I$u20$as$u20$core..iter..traits..iterator..Iterator..advance_by..SpecAdvanceBy$GT$15spec_advance_by17hab69f8134d81a39fE', symObjAddr: 0x185C, symBinAddr: 0x36204, symSize: 0x8C }
  - { offset: 0xE07A8, size: 0x8, addend: 0x0, symName: '__ZN87_$LT$I$u20$as$u20$core..iter..traits..iterator..Iterator..advance_by..SpecAdvanceBy$GT$15spec_advance_by17hf302c75c99f29330E', symObjAddr: 0x18E8, symBinAddr: 0x36290, symSize: 0x8C }
  - { offset: 0xE087F, size: 0x8, addend: 0x0, symName: '__ZN63_$LT$I$u20$as$u20$core..iter..traits..collect..IntoIterator$GT$9into_iter17h18c09b1efabc0e05E', symObjAddr: 0x1560, symBinAddr: 0x35F08, symSize: 0x14 }
  - { offset: 0xE08B6, size: 0x8, addend: 0x0, symName: '__ZN63_$LT$I$u20$as$u20$core..iter..traits..collect..IntoIterator$GT$9into_iter17h29e749f4a07544a8E', symObjAddr: 0x1574, symBinAddr: 0x35F1C, symSize: 0x14 }
  - { offset: 0xE08ED, size: 0x8, addend: 0x0, symName: '__ZN63_$LT$I$u20$as$u20$core..iter..traits..collect..IntoIterator$GT$9into_iter17h4513656cef6747d7E', symObjAddr: 0x1588, symBinAddr: 0x35F30, symSize: 0x18 }
  - { offset: 0xE0924, size: 0x8, addend: 0x0, symName: '__ZN63_$LT$I$u20$as$u20$core..iter..traits..collect..IntoIterator$GT$9into_iter17h4da89305fa8ffa9cE', symObjAddr: 0x15A0, symBinAddr: 0x35F48, symSize: 0x30 }
  - { offset: 0xE095C, size: 0x8, addend: 0x0, symName: '__ZN63_$LT$I$u20$as$u20$core..iter..traits..collect..IntoIterator$GT$9into_iter17hbafb3b66fa145086E', symObjAddr: 0x15D0, symBinAddr: 0x35F78, symSize: 0x30 }
  - { offset: 0xE0994, size: 0x8, addend: 0x0, symName: '__ZN63_$LT$I$u20$as$u20$core..iter..traits..collect..IntoIterator$GT$9into_iter17hbc67e3dea162a7bdE', symObjAddr: 0x1600, symBinAddr: 0x35FA8, symSize: 0x30 }
  - { offset: 0xE09CC, size: 0x8, addend: 0x0, symName: '__ZN63_$LT$I$u20$as$u20$core..iter..traits..collect..IntoIterator$GT$9into_iter17hfae04667e8fd33cfE', symObjAddr: 0x1630, symBinAddr: 0x35FD8, symSize: 0x30 }
  - { offset: 0xE2BD3, size: 0x8, addend: 0x0, symName: '__ZN83_$LT$I$u20$as$u20$alloc..vec..in_place_collect..SpecInPlaceCollect$LT$T$C$I$GT$$GT$16collect_in_place17hbe9dfea3af70c1a9E', symObjAddr: 0x1660, symBinAddr: 0x36008, symSize: 0xB8 }
  - { offset: 0xE2D07, size: 0x8, addend: 0x0, symName: '__ZN83_$LT$I$u20$as$u20$alloc..vec..in_place_collect..SpecInPlaceCollect$LT$T$C$I$GT$$GT$16collect_in_place17hbfe5646b8f537a48E', symObjAddr: 0x1718, symBinAddr: 0x360C0, symSize: 0xB8 }
  - { offset: 0xE3C6B, size: 0x8, addend: 0x0, symName: '__ZN51_$LT$I$u20$as$u20$pyo3..types..dict..IntoPyDict$GT$18into_py_dict_bound17h3fe91e3b5b61430fE', symObjAddr: 0x1390, symBinAddr: 0x35D38, symSize: 0x1D0 }
  - { offset: 0xE495E, size: 0x8, addend: 0x0, symName: '__ZN4pyo311conversions3std3vec136_$LT$impl$u20$pyo3..conversion..IntoPy$LT$pyo3..instance..Py$LT$pyo3..types..any..PyAny$GT$$GT$$u20$for$u20$alloc..vec..Vec$LT$T$GT$$GT$7into_py28_$u7b$$u7b$closure$u7d$$u7d$17haed133e3675b5e84E', symObjAddr: 0x0, symBinAddr: 0x36364, symSize: 0x2C }
  - { offset: 0xE5BAB, size: 0x8, addend: 0x0, symName: '__ZN4pyo311conversions3std3vec136_$LT$impl$u20$pyo3..conversion..IntoPy$LT$pyo3..instance..Py$LT$pyo3..types..any..PyAny$GT$$GT$$u20$for$u20$alloc..vec..Vec$LT$T$GT$$GT$7into_py28_$u7b$$u7b$closure$u7d$$u7d$17haed133e3675b5e84E', symObjAddr: 0x0, symBinAddr: 0x36364, symSize: 0x2C }
  - { offset: 0xE5BF9, size: 0x8, addend: 0x0, symName: '__ZN4pyo311conversions3std3vec136_$LT$impl$u20$pyo3..conversion..IntoPy$LT$pyo3..instance..Py$LT$pyo3..types..any..PyAny$GT$$GT$$u20$for$u20$alloc..vec..Vec$LT$T$GT$$GT$7into_py28_$u7b$$u7b$closure$u7d$$u7d$17hcffd2dc84c8db3c9E', symObjAddr: 0x2C, symBinAddr: 0x36390, symSize: 0x34 }
  - { offset: 0xE5C48, size: 0x8, addend: 0x0, symName: '__ZN4pyo311conversions3std3vec136_$LT$impl$u20$pyo3..conversion..IntoPy$LT$pyo3..instance..Py$LT$pyo3..types..any..PyAny$GT$$GT$$u20$for$u20$alloc..vec..Vec$LT$T$GT$$GT$7into_py28_$u7b$$u7b$closure$u7d$$u7d$17hd55cd4b26312931dE', symObjAddr: 0x60, symBinAddr: 0x363C4, symSize: 0x38 }
  - { offset: 0xE63A6, size: 0x8, addend: 0x0, symName: __ZN8pyo3_ffi10boolobject7Py_True17h5cb02d39320a9c75E, symObjAddr: 0x0, symBinAddr: 0x363FC, symSize: 0xC }
  - { offset: 0xE6423, size: 0x8, addend: 0x0, symName: __ZN8pyo3_ffi10boolobject7Py_True17h5cb02d39320a9c75E, symObjAddr: 0x0, symBinAddr: 0x363FC, symSize: 0xC }
  - { offset: 0xE6440, size: 0x8, addend: 0x0, symName: __ZN8pyo3_ffi10boolobject8Py_False17h59d9d0900ade2f7fE, symObjAddr: 0xC, symBinAddr: 0x36408, symSize: 0xC }
  - { offset: 0xE7897, size: 0x8, addend: 0x0, symName: '__ZN102_$LT$rayon..iter..extend..ListVecFolder$LT$T$GT$$u20$as$u20$rayon..iter..plumbing..Folder$LT$T$GT$$GT$12consume_iter17h1c82eeeebb63dd2bE', symObjAddr: 0x0, symBinAddr: 0x36414, symSize: 0x80 }
  - { offset: 0xE78B8, size: 0x8, addend: 0x0, symName: '__ZN102_$LT$rayon..iter..extend..ListVecFolder$LT$T$GT$$u20$as$u20$rayon..iter..plumbing..Folder$LT$T$GT$$GT$12consume_iter17h1c82eeeebb63dd2bE', symObjAddr: 0x0, symBinAddr: 0x36414, symSize: 0x80 }
  - { offset: 0xE7906, size: 0x8, addend: 0x0, symName: '__ZN102_$LT$rayon..iter..extend..ListVecFolder$LT$T$GT$$u20$as$u20$rayon..iter..plumbing..Folder$LT$T$GT$$GT$8complete17h296998bd3c8a6dc9E', symObjAddr: 0x80, symBinAddr: 0x36494, symSize: 0xFC }
  - { offset: 0xE7957, size: 0x8, addend: 0x0, symName: '__ZN143_$LT$rayon..iter..extend..ListReducer$u20$as$u20$rayon..iter..plumbing..Reducer$LT$alloc..collections..linked_list..LinkedList$LT$T$GT$$GT$$GT$6reduce17h965a4e0dfc4a45bbE', symObjAddr: 0x17C, symBinAddr: 0x36590, symSize: 0xB0 }
  - { offset: 0xE79C0, size: 0x8, addend: 0x0, symName: '__ZN97_$LT$rayon..iter..extend..ListVecConsumer$u20$as$u20$rayon..iter..plumbing..Consumer$LT$T$GT$$GT$11into_folder17haa0f5ea7c5b2bf22E', symObjAddr: 0x22C, symBinAddr: 0x36640, symSize: 0x38 }
  - { offset: 0xE7A00, size: 0x8, addend: 0x0, symName: '__ZN97_$LT$rayon..iter..extend..ListVecConsumer$u20$as$u20$rayon..iter..plumbing..Consumer$LT$T$GT$$GT$4full17h197800dfe9661687E', symObjAddr: 0x264, symBinAddr: 0x36678, symSize: 0x18 }
  - { offset: 0xE7A35, size: 0x8, addend: 0x0, symName: '__ZN97_$LT$rayon..iter..extend..ListVecConsumer$u20$as$u20$rayon..iter..plumbing..Consumer$LT$T$GT$$GT$8split_at17h84bb2152f06a78f3E', symObjAddr: 0x27C, symBinAddr: 0x36690, symSize: 0x10 }
  - { offset: 0xE824E, size: 0x8, addend: 0x0, symName: '__ZN3std3f3221_$LT$impl$u20$f32$GT$2ln17hff633e2486441828E', symObjAddr: 0x0, symBinAddr: 0x366A0, symSize: 0x28 }
  - { offset: 0xE826A, size: 0x8, addend: 0x0, symName: '__ZN3std3f3221_$LT$impl$u20$f32$GT$2ln17hff633e2486441828E', symObjAddr: 0x0, symBinAddr: 0x366A0, symSize: 0x28 }
  - { offset: 0xE8298, size: 0x8, addend: 0x0, symName: '__ZN3std3f3221_$LT$impl$u20$f32$GT$3cos17h7bda4f9b3f1e4e25E', symObjAddr: 0x28, symBinAddr: 0x366C8, symSize: 0x28 }
  - { offset: 0xE82C6, size: 0x8, addend: 0x0, symName: '__ZN3std3f3221_$LT$impl$u20$f32$GT$3sin17hd6f14a3c1216a194E', symObjAddr: 0x50, symBinAddr: 0x366F0, symSize: 0x28 }
  - { offset: 0xE82F4, size: 0x8, addend: 0x0, symName: '__ZN3std3f3221_$LT$impl$u20$f32$GT$4powi17ha2b088d5fb7fa3e6E', symObjAddr: 0x78, symBinAddr: 0x36718, symSize: 0x2C }
  - { offset: 0xE8357, size: 0x8, addend: 0x0, symName: '__ZN3std3f3221_$LT$impl$u20$f32$GT$4sqrt17hbcc06cdde9c06fb7E', symObjAddr: 0xA4, symBinAddr: 0x36744, symSize: 0x1C }
  - { offset: 0xE83A3, size: 0x8, addend: 0x0, symName: '__ZN3std3f3221_$LT$impl$u20$f32$GT$5atan217h74da8d05c698dd61E', symObjAddr: 0xC0, symBinAddr: 0x36760, symSize: 0x24 }
  - { offset: 0xE83E0, size: 0x8, addend: 0x0, symName: '__ZN3std3f3221_$LT$impl$u20$f32$GT$5floor17he2b2220766d609beE', symObjAddr: 0xE4, symBinAddr: 0x36784, symSize: 0x1C }
  - { offset: 0xE8429, size: 0x8, addend: 0x0, symName: '__ZN3std3f3221_$LT$impl$u20$f32$GT$5round17hce9a95ac5156af5bE', symObjAddr: 0x100, symBinAddr: 0x367A0, symSize: 0x1C }
  - { offset: 0xE8537, size: 0x8, addend: 0x0, symName: __ZN8pyo3_ffi10dictobject12PyDict_Check17hbbf159762ca7fca5E, symObjAddr: 0x0, symBinAddr: 0x367BC, symSize: 0x30 }
  - { offset: 0xE85B4, size: 0x8, addend: 0x0, symName: __ZN8pyo3_ffi10dictobject12PyDict_Check17hbbf159762ca7fca5E, symObjAddr: 0x0, symBinAddr: 0x367BC, symSize: 0x30 }
  - { offset: 0xE9A1A, size: 0x8, addend: 0x0, symName: '__ZN113_$LT$rayon..iter..collect..consumer..CollectResult$LT$T$GT$$u20$as$u20$rayon..iter..plumbing..Folder$LT$T$GT$$GT$4full17ha9eda1551473885dE', symObjAddr: 0x0, symBinAddr: 0x367EC, symSize: 0x18 }
  - { offset: 0xE9A40, size: 0x8, addend: 0x0, symName: '__ZN113_$LT$rayon..iter..collect..consumer..CollectResult$LT$T$GT$$u20$as$u20$rayon..iter..plumbing..Folder$LT$T$GT$$GT$4full17ha9eda1551473885dE', symObjAddr: 0x0, symBinAddr: 0x367EC, symSize: 0x18 }
  - { offset: 0xE9A75, size: 0x8, addend: 0x0, symName: '__ZN113_$LT$rayon..iter..collect..consumer..CollectResult$LT$T$GT$$u20$as$u20$rayon..iter..plumbing..Folder$LT$T$GT$$GT$7consume17hacab26a0e2c8ec3bE', symObjAddr: 0x18, symBinAddr: 0x36804, symSize: 0x16C }
  - { offset: 0xE9B23, size: 0x8, addend: 0x0, symName: '__ZN113_$LT$rayon..iter..collect..consumer..CollectResult$LT$T$GT$$u20$as$u20$rayon..iter..plumbing..Folder$LT$T$GT$$GT$8complete17hefbb41ed1642f9d8E', symObjAddr: 0x184, symBinAddr: 0x36970, symSize: 0x18 }
  - { offset: 0xE9B5E, size: 0x8, addend: 0x0, symName: '__ZN117_$LT$rayon..iter..collect..consumer..CollectConsumer$LT$T$GT$$u20$as$u20$rayon..iter..plumbing..Consumer$LT$T$GT$$GT$11into_folder17h8a13f8e109de82e9E', symObjAddr: 0x19C, symBinAddr: 0x36988, symSize: 0x24 }
  - { offset: 0xE9B93, size: 0x8, addend: 0x0, symName: '__ZN117_$LT$rayon..iter..collect..consumer..CollectConsumer$LT$T$GT$$u20$as$u20$rayon..iter..plumbing..Consumer$LT$T$GT$$GT$4full17hda3c91e6e23899c5E', symObjAddr: 0x1C0, symBinAddr: 0x369AC, symSize: 0x18 }
  - { offset: 0xE9BC8, size: 0x8, addend: 0x0, symName: '__ZN117_$LT$rayon..iter..collect..consumer..CollectConsumer$LT$T$GT$$u20$as$u20$rayon..iter..plumbing..Consumer$LT$T$GT$$GT$8split_at17hc3c660296ff76d91E', symObjAddr: 0x1D8, symBinAddr: 0x369C4, symSize: 0xE4 }
  - { offset: 0xE9C5A, size: 0x8, addend: 0x0, symName: '__ZN159_$LT$rayon..iter..collect..consumer..CollectReducer$u20$as$u20$rayon..iter..plumbing..Reducer$LT$rayon..iter..collect..consumer..CollectResult$LT$T$GT$$GT$$GT$6reduce17h27fd084e8d9eac9cE', symObjAddr: 0x2BC, symBinAddr: 0x36AA8, symSize: 0x1BC }
  - { offset: 0xE9DF9, size: 0x8, addend: 0x0, symName: __ZN5rayon4iter8plumbing6Folder12consume_iter17h99a99efa4b1ea9a7E, symObjAddr: 0x598, symBinAddr: 0x36D84, symSize: 0x1A0 }
  - { offset: 0xEA4E4, size: 0x8, addend: 0x0, symName: '__ZN5rayon4iter7collect8consumer22CollectResult$LT$T$GT$17release_ownership17h63343bbaa7cc9b9dE', symObjAddr: 0x478, symBinAddr: 0x36C64, symSize: 0x30 }
  - { offset: 0xEA53A, size: 0x8, addend: 0x0, symName: '__ZN5rayon4iter7collect8consumer22CollectResult$LT$T$GT$3len17h3e10cbf2efa6460aE', symObjAddr: 0x4A8, symBinAddr: 0x36C94, symSize: 0x18 }
  - { offset: 0xEA572, size: 0x8, addend: 0x0, symName: '__ZN5rayon4iter7collect8consumer24CollectConsumer$LT$T$GT$3new17hee9c3330015fdd96E', symObjAddr: 0x4C0, symBinAddr: 0x36CAC, symSize: 0x18 }
  - { offset: 0xEA5B8, size: 0x8, addend: 0x0, symName: '__ZN5rayon4iter7collect8consumer24CollectConsumer$LT$T$GT$8appender17hbe980f3b1a45f2f8E', symObjAddr: 0x4D8, symBinAddr: 0x36CC4, symSize: 0xC0 }
  - { offset: 0xEA75F, size: 0x8, addend: 0x0, symName: __ZN10rayon_core4join12join_context17h08113e4ee3523708E, symObjAddr: 0x0, symBinAddr: 0x36F24, symSize: 0x58 }
  - { offset: 0xEA92A, size: 0x8, addend: 0x0, symName: __ZN10rayon_core4join12join_context17h08113e4ee3523708E, symObjAddr: 0x0, symBinAddr: 0x36F24, symSize: 0x58 }
  - { offset: 0xEA98A, size: 0x8, addend: 0x0, symName: __ZN10rayon_core4join12join_context17hbf9efd890d17bf14E, symObjAddr: 0x58, symBinAddr: 0x36F7C, symSize: 0x58 }
  - { offset: 0xEA9EF, size: 0x8, addend: 0x0, symName: '__ZN10rayon_core4join12join_context28_$u7b$$u7b$closure$u7d$$u7d$17h73e910e0ec5acd5bE', symObjAddr: 0xB0, symBinAddr: 0x36FD4, symSize: 0x4B8 }
  - { offset: 0xEAB4A, size: 0x8, addend: 0x0, symName: '__ZN10rayon_core4join12join_context28_$u7b$$u7b$closure$u7d$$u7d$17h9c86bc5b77831f16E', symObjAddr: 0x568, symBinAddr: 0x3748C, symSize: 0x4B8 }
  - { offset: 0xEACA5, size: 0x8, addend: 0x0, symName: __ZN10rayon_core4join12join_context6call_a17h15a9455b5e3be5dcE, symObjAddr: 0xA20, symBinAddr: 0x37944, symSize: 0x50 }
  - { offset: 0xEACF2, size: 0x8, addend: 0x0, symName: __ZN10rayon_core4join12join_context6call_a17h92336c849f71445dE, symObjAddr: 0xA70, symBinAddr: 0x37994, symSize: 0x50 }
  - { offset: 0xEAD44, size: 0x8, addend: 0x0, symName: '__ZN10rayon_core4join12join_context6call_a28_$u7b$$u7b$closure$u7d$$u7d$17h031f5558bdd469b5E', symObjAddr: 0xAC0, symBinAddr: 0x379E4, symSize: 0x9C }
  - { offset: 0xEAD94, size: 0x8, addend: 0x0, symName: '__ZN10rayon_core4join12join_context6call_a28_$u7b$$u7b$closure$u7d$$u7d$17h49c351de67a9ce62E', symObjAddr: 0xB5C, symBinAddr: 0x37A80, symSize: 0x9C }
  - { offset: 0xEAE21, size: 0x8, addend: 0x0, symName: __ZN10rayon_core4join12join_context6call_b17h8c7a49b881cc2610E, symObjAddr: 0xBF8, symBinAddr: 0x37B1C, symSize: 0x30 }
  - { offset: 0xEAE60, size: 0x8, addend: 0x0, symName: __ZN10rayon_core4join12join_context6call_b17ha85bc6e8bbb89be7E, symObjAddr: 0xC28, symBinAddr: 0x37B4C, symSize: 0x30 }
  - { offset: 0xEAEA4, size: 0x8, addend: 0x0, symName: '__ZN10rayon_core4join12join_context6call_b28_$u7b$$u7b$closure$u7d$$u7d$17h0ecb7c7796dc7a53E', symObjAddr: 0xC58, symBinAddr: 0x37B7C, symSize: 0xA0 }
  - { offset: 0xEAEF2, size: 0x8, addend: 0x0, symName: '__ZN10rayon_core4join12join_context6call_b28_$u7b$$u7b$closure$u7d$$u7d$17h56fc436a88268720E', symObjAddr: 0xCF8, symBinAddr: 0x37C1C, symSize: 0xA0 }
  - { offset: 0xECB39, size: 0x8, addend: 0x0, symName: __ZN4pyo35types4list13new_from_iter17h33b83e65f6a4ba07E, symObjAddr: 0x0, symBinAddr: 0x37CBC, symSize: 0x2A4 }
  - { offset: 0xEDDA4, size: 0x8, addend: 0x0, symName: __ZN4pyo35types4list13new_from_iter17h33b83e65f6a4ba07E, symObjAddr: 0x0, symBinAddr: 0x37CBC, symSize: 0x2A4 }
  - { offset: 0xEE4DF, size: 0x8, addend: 0x0, symName: '__ZN3std3sys12thread_local6native5eager16Storage$LT$T$GT$10initialize17hd06ff0f4f8b00ee0E', symObjAddr: 0x0, symBinAddr: 0xEFD98, symSize: 0x54 }
  - { offset: 0xEE589, size: 0x8, addend: 0x0, symName: __ZN3std3sys12thread_local6native5eager7destroy17h8df93924c37aca72E, symObjAddr: 0xC4, symBinAddr: 0x37FD0, symSize: 0x30 }
  - { offset: 0xEE5BF, size: 0x8, addend: 0x0, symName: '__ZN3std3sys12thread_local6native5eager7destroy28_$u7b$$u7b$closure$u7d$$u7d$17hc2a0a608e319b9bcE', symObjAddr: 0xF4, symBinAddr: 0x38000, symSize: 0x40 }
  - { offset: 0xEEBEF, size: 0x8, addend: 0x0, symName: '__ZN3std3sys12thread_local6native5eager16Storage$LT$T$GT$10initialize17hd06ff0f4f8b00ee0E', symObjAddr: 0x0, symBinAddr: 0xEFD98, symSize: 0x54 }
  - { offset: 0xEECAC, size: 0x8, addend: 0x0, symName: '__ZN3std3sys12thread_local6native5eager16Storage$LT$T$GT$3get17hbff581e70d9cad0eE', symObjAddr: 0x54, symBinAddr: 0x37F60, symSize: 0x70 }
  - { offset: 0xEEDA9, size: 0x8, addend: 0x0, symName: __ZN4pyo35impl_4wrap19map_result_into_ptr17h12f70b4b744ad7a2E, symObjAddr: 0x0, symBinAddr: 0x38040, symSize: 0x44 }
  - { offset: 0xF0875, size: 0x8, addend: 0x0, symName: __ZN4pyo35impl_4wrap19map_result_into_ptr17h12f70b4b744ad7a2E, symObjAddr: 0x0, symBinAddr: 0x38040, symSize: 0x44 }
  - { offset: 0xF08C4, size: 0x8, addend: 0x0, symName: __ZN4pyo35impl_4wrap19map_result_into_ptr17h191518cb6536c0e2E, symObjAddr: 0x44, symBinAddr: 0x38084, symSize: 0x44 }
  - { offset: 0xF0913, size: 0x8, addend: 0x0, symName: __ZN4pyo35impl_4wrap19map_result_into_ptr17h34aa4278cc403d2cE, symObjAddr: 0x88, symBinAddr: 0x380C8, symSize: 0x44 }
  - { offset: 0xF0962, size: 0x8, addend: 0x0, symName: __ZN4pyo35impl_4wrap19map_result_into_ptr17h43f49f50baffaa59E, symObjAddr: 0xCC, symBinAddr: 0x3810C, symSize: 0x44 }
  - { offset: 0xF09B1, size: 0x8, addend: 0x0, symName: __ZN4pyo35impl_4wrap19map_result_into_ptr17h536b213f5aca5001E, symObjAddr: 0x110, symBinAddr: 0x38150, symSize: 0x44 }
  - { offset: 0xF0A00, size: 0x8, addend: 0x0, symName: __ZN4pyo35impl_4wrap19map_result_into_ptr17h68a80924f1c9ff30E, symObjAddr: 0x154, symBinAddr: 0x38194, symSize: 0x44 }
  - { offset: 0xF0A4F, size: 0x8, addend: 0x0, symName: __ZN4pyo35impl_4wrap19map_result_into_ptr17h7d5b52651c2973b0E, symObjAddr: 0x198, symBinAddr: 0x381D8, symSize: 0x44 }
  - { offset: 0xF0A9E, size: 0x8, addend: 0x0, symName: __ZN4pyo35impl_4wrap19map_result_into_ptr17h84d7b391f21da6f1E, symObjAddr: 0x1DC, symBinAddr: 0x3821C, symSize: 0x44 }
  - { offset: 0xF0AED, size: 0x8, addend: 0x0, symName: __ZN4pyo35impl_4wrap19map_result_into_ptr17hed5a02965a02d858E, symObjAddr: 0x220, symBinAddr: 0x38260, symSize: 0x44 }
  - { offset: 0xF0B41, size: 0x8, addend: 0x0, symName: '__ZN4pyo35impl_4wrap19map_result_into_ptr28_$u7b$$u7b$closure$u7d$$u7d$17h344d5776e6a861d8E', symObjAddr: 0x264, symBinAddr: 0x382A4, symSize: 0x24 }
  - { offset: 0xF0B8F, size: 0x8, addend: 0x0, symName: '__ZN4pyo35impl_4wrap19map_result_into_ptr28_$u7b$$u7b$closure$u7d$$u7d$17h3696f424340e3099E', symObjAddr: 0x288, symBinAddr: 0x382C8, symSize: 0x30 }
  - { offset: 0xF0BDD, size: 0x8, addend: 0x0, symName: '__ZN4pyo35impl_4wrap19map_result_into_ptr28_$u7b$$u7b$closure$u7d$$u7d$17h62241c9b44d1ed34E', symObjAddr: 0x2B8, symBinAddr: 0x382F8, symSize: 0x30 }
  - { offset: 0xF0C2B, size: 0x8, addend: 0x0, symName: '__ZN4pyo35impl_4wrap19map_result_into_ptr28_$u7b$$u7b$closure$u7d$$u7d$17h6534827f73195fa8E', symObjAddr: 0x2E8, symBinAddr: 0x38328, symSize: 0x38 }
  - { offset: 0xF0C7A, size: 0x8, addend: 0x0, symName: '__ZN4pyo35impl_4wrap19map_result_into_ptr28_$u7b$$u7b$closure$u7d$$u7d$17h8bc45feced1d75c3E', symObjAddr: 0x320, symBinAddr: 0x38360, symSize: 0x28 }
  - { offset: 0xF0CC8, size: 0x8, addend: 0x0, symName: '__ZN4pyo35impl_4wrap19map_result_into_ptr28_$u7b$$u7b$closure$u7d$$u7d$17h940df25324ba1501E', symObjAddr: 0x348, symBinAddr: 0x38388, symSize: 0x38 }
  - { offset: 0xF0D17, size: 0x8, addend: 0x0, symName: '__ZN4pyo35impl_4wrap19map_result_into_ptr28_$u7b$$u7b$closure$u7d$$u7d$17hc405097bd9a26243E', symObjAddr: 0x380, symBinAddr: 0x383C0, symSize: 0x3C }
  - { offset: 0xF0D66, size: 0x8, addend: 0x0, symName: '__ZN4pyo35impl_4wrap19map_result_into_ptr28_$u7b$$u7b$closure$u7d$$u7d$17hc616f877313e4926E', symObjAddr: 0x3BC, symBinAddr: 0x383FC, symSize: 0x30 }
  - { offset: 0xF0DB4, size: 0x8, addend: 0x0, symName: '__ZN4pyo35impl_4wrap19map_result_into_ptr28_$u7b$$u7b$closure$u7d$$u7d$17hda3a54a823279878E', symObjAddr: 0x3EC, symBinAddr: 0x3842C, symSize: 0x38 }
  - { offset: 0xF0EB4, size: 0x8, addend: 0x0, symName: '__ZN56_$LT$T$u20$as$u20$pyo3..impl_..wrap..OkWrap$LT$T$GT$$GT$4wrap17h078813750a0f83c1E', symObjAddr: 0x424, symBinAddr: 0x38464, symSize: 0x10 }
  - { offset: 0xF0EE9, size: 0x8, addend: 0x0, symName: '__ZN56_$LT$T$u20$as$u20$pyo3..impl_..wrap..OkWrap$LT$T$GT$$GT$4wrap17h0ee7e0cbbea71f08E', symObjAddr: 0x434, symBinAddr: 0x38474, symSize: 0xC }
  - { offset: 0xF0F1A, size: 0x8, addend: 0x0, symName: '__ZN56_$LT$T$u20$as$u20$pyo3..impl_..wrap..OkWrap$LT$T$GT$$GT$4wrap17h6ebc2b8a36ea14c5E', symObjAddr: 0x440, symBinAddr: 0x38480, symSize: 0x10 }
  - { offset: 0xF0F4F, size: 0x8, addend: 0x0, symName: '__ZN56_$LT$T$u20$as$u20$pyo3..impl_..wrap..OkWrap$LT$T$GT$$GT$4wrap17h82eeb5f2d47c2689E', symObjAddr: 0x450, symBinAddr: 0x38490, symSize: 0x10 }
  - { offset: 0xF0F84, size: 0x8, addend: 0x0, symName: '__ZN56_$LT$T$u20$as$u20$pyo3..impl_..wrap..OkWrap$LT$T$GT$$GT$4wrap17hb69232f89d124581E', symObjAddr: 0x460, symBinAddr: 0x384A0, symSize: 0x10 }
  - { offset: 0xF1AEF, size: 0x8, addend: 0x0, symName: __ZN4core9ub_checks23maybe_is_nonoverlapping7runtime17h2c6b63bfd98023a1E, symObjAddr: 0x0, symBinAddr: 0x384B0, symSize: 0xD8 }
  - { offset: 0xF1C74, size: 0x8, addend: 0x0, symName: __ZN4core9ub_checks23maybe_is_nonoverlapping7runtime17h2c6b63bfd98023a1E, symObjAddr: 0x0, symBinAddr: 0x384B0, symSize: 0xD8 }
  - { offset: 0xF1E87, size: 0x8, addend: 0x0, symName: __ZN4core4iter6traits8iterator8Iterator3map17h6d8b60e9e9c5a8d1E, symObjAddr: 0x0, symBinAddr: 0x38588, symSize: 0x1C }
  - { offset: 0xF2643, size: 0x8, addend: 0x0, symName: __ZN4core4iter6traits8iterator8Iterator3map17h6d8b60e9e9c5a8d1E, symObjAddr: 0x0, symBinAddr: 0x38588, symSize: 0x1C }
  - { offset: 0xF269B, size: 0x8, addend: 0x0, symName: __ZN4core4iter6traits8iterator8Iterator3map17h97b189663c45a1a5E, symObjAddr: 0x1C, symBinAddr: 0x385A4, symSize: 0x1C }
  - { offset: 0xF26F3, size: 0x8, addend: 0x0, symName: __ZN4core4iter6traits8iterator8Iterator3map17hd5756b90b29ba261E, symObjAddr: 0x38, symBinAddr: 0x385C0, symSize: 0x30 }
  - { offset: 0xF2760, size: 0x8, addend: 0x0, symName: __ZN4core4iter6traits8iterator8Iterator3sum17h43c11de5a07eae00E, symObjAddr: 0x68, symBinAddr: 0x385F0, symSize: 0x2C }
  - { offset: 0xF27A0, size: 0x8, addend: 0x0, symName: __ZN4core4iter6traits8iterator8Iterator3sum17hec1113dcf2641c97E, symObjAddr: 0x94, symBinAddr: 0x3861C, symSize: 0x2C }
  - { offset: 0xF27E0, size: 0x8, addend: 0x0, symName: __ZN4core4iter6traits8iterator8Iterator6copied17h15a60280f1d0bf47E, symObjAddr: 0xC0, symBinAddr: 0x38648, symSize: 0x1C }
  - { offset: 0xF2820, size: 0x8, addend: 0x0, symName: __ZN4core4iter6traits8iterator8Iterator6filter17had4cae8f7d06d2d0E, symObjAddr: 0xDC, symBinAddr: 0x38664, symSize: 0x1C }
  - { offset: 0xF286F, size: 0x8, addend: 0x0, symName: __ZN4core4iter6traits8iterator8Iterator9enumerate17hbecb425bd758b2f0E, symObjAddr: 0xF8, symBinAddr: 0x38680, symSize: 0x28 }
  - { offset: 0xF28C7, size: 0x8, addend: 0x0, symName: '__ZN63_$LT$I$u20$as$u20$core..iter..traits..collect..IntoIterator$GT$9into_iter17ha75418aaeb8da1b4E', symObjAddr: 0x218, symBinAddr: 0x387A0, symSize: 0x18 }
  - { offset: 0xF2AE2, size: 0x8, addend: 0x0, symName: '__ZN67_$LT$I$u20$as$u20$core..iter..adapters..filter..SpecAssumeCount$GT$27assume_count_le_upper_bound17h8a767887f18594a0E', symObjAddr: 0x230, symBinAddr: 0x387B8, symSize: 0x48 }
  - { offset: 0xF2CFF, size: 0x8, addend: 0x0, symName: '__ZN4core5slice4iter87_$LT$impl$u20$core..iter..traits..collect..IntoIterator$u20$for$u20$$RF$$u5b$T$u5d$$GT$9into_iter17h36be0edb1c9c91c9E', symObjAddr: 0x1C8, symBinAddr: 0x38750, symSize: 0x50 }
  - { offset: 0xF2E42, size: 0x8, addend: 0x0, symName: '__ZN91_$LT$core..slice..iter..Iter$LT$T$GT$$u20$as$u20$core..iter..traits..iterator..Iterator$GT$4fold17h113497c785972f6eE', symObjAddr: 0x278, symBinAddr: 0x38800, symSize: 0x1F0 }
  - { offset: 0xF304B, size: 0x8, addend: 0x0, symName: '__ZN91_$LT$core..slice..iter..Iter$LT$T$GT$$u20$as$u20$core..iter..traits..iterator..Iterator$GT$4fold17h1b79e7641f1e6e71E', symObjAddr: 0x468, symBinAddr: 0x389F0, symSize: 0x1F8 }
  - { offset: 0xF3254, size: 0x8, addend: 0x0, symName: '__ZN91_$LT$core..slice..iter..Iter$LT$T$GT$$u20$as$u20$core..iter..traits..iterator..Iterator$GT$4fold17hc19115e71b05daefE', symObjAddr: 0x660, symBinAddr: 0x38BE8, symSize: 0x1E0 }
  - { offset: 0xF345A, size: 0x8, addend: 0x0, symName: '__ZN91_$LT$core..slice..iter..Iter$LT$T$GT$$u20$as$u20$core..iter..traits..iterator..Iterator$GT$4fold17hc47950757f13c4dbE', symObjAddr: 0x840, symBinAddr: 0x38DC8, symSize: 0x1D4 }
  - { offset: 0xF3660, size: 0x8, addend: 0x0, symName: '__ZN91_$LT$core..slice..iter..Iter$LT$T$GT$$u20$as$u20$core..iter..traits..iterator..Iterator$GT$4fold17hfc1f127026a02922E', symObjAddr: 0xA14, symBinAddr: 0x38F9C, symSize: 0x1E0 }
  - { offset: 0xF3866, size: 0x8, addend: 0x0, symName: '__ZN91_$LT$core..slice..iter..Iter$LT$T$GT$$u20$as$u20$core..iter..traits..iterator..Iterator$GT$4next17h2118b5c69eb4fca1E', symObjAddr: 0xBF4, symBinAddr: 0x3917C, symSize: 0x84 }
  - { offset: 0xF391C, size: 0x8, addend: 0x0, symName: '__ZN91_$LT$core..slice..iter..Iter$LT$T$GT$$u20$as$u20$core..iter..traits..iterator..Iterator$GT$4next17h7fdf755c9dc66293E', symObjAddr: 0xC78, symBinAddr: 0x39200, symSize: 0x84 }
  - { offset: 0xF39D2, size: 0x8, addend: 0x0, symName: '__ZN91_$LT$core..slice..iter..Iter$LT$T$GT$$u20$as$u20$core..iter..traits..iterator..Iterator$GT$4next17haa6859e077fd8366E', symObjAddr: 0xCFC, symBinAddr: 0x39284, symSize: 0x84 }
  - { offset: 0xF3AD7, size: 0x8, addend: 0x0, symName: '__ZN91_$LT$core..slice..iter..Iter$LT$T$GT$$u20$as$u20$core..iter..traits..iterator..Iterator$GT$8position17h38f1519ced252213E', symObjAddr: 0xD80, symBinAddr: 0x39308, symSize: 0x1D0 }
  - { offset: 0xF3D34, size: 0x8, addend: 0x0, symName: '__ZN91_$LT$core..slice..iter..Iter$LT$T$GT$$u20$as$u20$core..iter..traits..iterator..Iterator$GT$8position17h800e443250b94975E', symObjAddr: 0xF50, symBinAddr: 0x394D8, symSize: 0x1D0 }
  - { offset: 0xF3F91, size: 0x8, addend: 0x0, symName: '__ZN91_$LT$core..slice..iter..Iter$LT$T$GT$$u20$as$u20$core..iter..traits..iterator..Iterator$GT$8position17hb9958cfe8b493efaE', symObjAddr: 0x1120, symBinAddr: 0x396A8, symSize: 0x1D0 }
  - { offset: 0xF419F, size: 0x8, addend: 0x0, symName: '__ZN91_$LT$core..slice..iter..Iter$LT$T$GT$$u20$as$u20$core..iter..traits..iterator..Iterator$GT$9size_hint17hc7abd8283378529fE', symObjAddr: 0x12F0, symBinAddr: 0x39878, symSize: 0xB4 }
  - { offset: 0xF433E, size: 0x8, addend: 0x0, symName: '__ZN93_$LT$core..slice..iter..Chunks$LT$T$GT$$u20$as$u20$core..iter..traits..iterator..Iterator$GT$4next17h2aa7ab9ae6d69ddfE', symObjAddr: 0x13A4, symBinAddr: 0x3992C, symSize: 0xD8 }
  - { offset: 0xF6384, size: 0x8, addend: 0x0, symName: '__ZN4core5slice4iter13Iter$LT$T$GT$3new17h042c8163ae915fcfE', symObjAddr: 0x120, symBinAddr: 0x386A8, symSize: 0x58 }
  - { offset: 0xF6B46, size: 0x8, addend: 0x0, symName: '__ZN4core5slice4iter13Iter$LT$T$GT$3new17h95d89d120c5b018fE', symObjAddr: 0x178, symBinAddr: 0x38700, symSize: 0x50 }
  - { offset: 0xF732B, size: 0x8, addend: 0x0, symName: __ZN8pyo3_ffi7cpython11tupleobject16PyTuple_SET_ITEM17hba5edcdb66135317E, symObjAddr: 0x0, symBinAddr: 0x39A04, symSize: 0x118 }
  - { offset: 0xF78E2, size: 0x8, addend: 0x0, symName: __ZN8pyo3_ffi7cpython11tupleobject16PyTuple_SET_ITEM17hba5edcdb66135317E, symObjAddr: 0x0, symBinAddr: 0x39A04, symSize: 0x118 }
  - { offset: 0xF8890, size: 0x8, addend: 0x0, symName: '__ZN52_$LT$T$u20$as$u20$pyo3..type_object..PyTypeCheck$GT$10type_check17hc4f02c080f633c26E', symObjAddr: 0x0, symBinAddr: 0x39B1C, symSize: 0x24 }
  - { offset: 0xF9A89, size: 0x8, addend: 0x0, symName: '__ZN52_$LT$T$u20$as$u20$pyo3..type_object..PyTypeCheck$GT$10type_check17hc4f02c080f633c26E', symObjAddr: 0x0, symBinAddr: 0x39B1C, symSize: 0x24 }
  - { offset: 0xFA08F, size: 0x8, addend: 0x0, symName: '__ZN4core4hash5impls52_$LT$impl$u20$core..hash..Hash$u20$for$u20$$RF$T$GT$4hash17h9fc1bba374248438E', symObjAddr: 0x0, symBinAddr: 0x39B40, symSize: 0x30 }
  - { offset: 0xFA0B0, size: 0x8, addend: 0x0, symName: '__ZN4core4hash5impls52_$LT$impl$u20$core..hash..Hash$u20$for$u20$$RF$T$GT$4hash17h9fc1bba374248438E', symObjAddr: 0x0, symBinAddr: 0x39B40, symSize: 0x30 }
  - { offset: 0xFA101, size: 0x8, addend: 0x0, symName: '__ZN4core4hash5impls52_$LT$impl$u20$core..hash..Hash$u20$for$u20$usize$GT$4hash17hf5ca2990b7617353E', symObjAddr: 0x30, symBinAddr: 0x39B70, symSize: 0x38 }
  - { offset: 0xFA29B, size: 0x8, addend: 0x0, symName: '__ZN62_$LT$alloc..string..String$u20$as$u20$core..cmp..PartialEq$GT$2eq17hb8856a7d05729360E', symObjAddr: 0x0, symBinAddr: 0x39BA8, symSize: 0x2C }
  - { offset: 0xFA2B7, size: 0x8, addend: 0x0, symName: '__ZN62_$LT$alloc..string..String$u20$as$u20$core..cmp..PartialEq$GT$2eq17hb8856a7d05729360E', symObjAddr: 0x0, symBinAddr: 0x39BA8, symSize: 0x2C }
  - { offset: 0xFA4A8, size: 0x8, addend: 0x0, symName: '__ZN4pyo36pycell14PyRef$LT$T$GT$10try_borrow17h0cc83aed754bf889E', symObjAddr: 0x0, symBinAddr: 0x39BD4, symSize: 0x4C }
  - { offset: 0xFBD40, size: 0x8, addend: 0x0, symName: '__ZN50_$LT$T$u20$as$u20$core..convert..Into$LT$U$GT$$GT$4into17h961d7bfb6dbccbe1E', symObjAddr: 0x150, symBinAddr: 0x39D24, symSize: 0x1C }
  - { offset: 0xFBD80, size: 0x8, addend: 0x0, symName: '__ZN50_$LT$T$u20$as$u20$core..convert..Into$LT$U$GT$$GT$4into17hf6f56c4b5e583fdbE', symObjAddr: 0x16C, symBinAddr: 0x39D40, symSize: 0x1C }
  - { offset: 0xFBF31, size: 0x8, addend: 0x0, symName: '__ZN4pyo36pycell14PyRef$LT$T$GT$10try_borrow28_$u7b$$u7b$closure$u7d$$u7d$17h44d51995563c75b3E', symObjAddr: 0x98, symBinAddr: 0x39C6C, symSize: 0x24 }
  - { offset: 0xFBF75, size: 0x8, addend: 0x0, symName: '__ZN4pyo36pycell14PyRef$LT$T$GT$10try_borrow28_$u7b$$u7b$closure$u7d$$u7d$17h4990c99bc9d53983E', symObjAddr: 0xBC, symBinAddr: 0x39C90, symSize: 0x24 }
  - { offset: 0xFC017, size: 0x8, addend: 0x0, symName: '__ZN4pyo36pycell17PyRefMut$LT$T$GT$10try_borrow28_$u7b$$u7b$closure$u7d$$u7d$17h1450749f851570f9E', symObjAddr: 0x12C, symBinAddr: 0x39D00, symSize: 0x24 }
  - { offset: 0xFC062, size: 0x8, addend: 0x0, symName: '__ZN72_$LT$pyo3..pycell..PyRef$LT$T$GT$$u20$as$u20$core..ops..deref..Deref$GT$5deref17h0c1040cc812d250fE', symObjAddr: 0x224, symBinAddr: 0x39DF8, symSize: 0x74 }
  - { offset: 0xFC099, size: 0x8, addend: 0x0, symName: '__ZN72_$LT$pyo3..pycell..PyRef$LT$T$GT$$u20$as$u20$core..ops..deref..Deref$GT$5deref17h0f996c37ac9983cbE', symObjAddr: 0x298, symBinAddr: 0x39E6C, symSize: 0x74 }
  - { offset: 0xFC0D6, size: 0x8, addend: 0x0, symName: '__ZN78_$LT$pyo3..pycell..PyRefMut$LT$T$GT$$u20$as$u20$core..ops..deref..DerefMut$GT$9deref_mut17hddd5a668faad1e04E', symObjAddr: 0x30C, symBinAddr: 0x39EE0, symSize: 0x74 }
  - { offset: 0xFC4DB, size: 0x8, addend: 0x0, symName: '__ZN57_$LT$T$u20$as$u20$pyo3..conversion..FromPyObjectBound$GT$20from_py_object_bound17ha904e04edccd916cE', symObjAddr: 0x188, symBinAddr: 0x39D5C, symSize: 0x34 }
  - { offset: 0xFC512, size: 0x8, addend: 0x0, symName: '__ZN57_$LT$T$u20$as$u20$pyo3..conversion..FromPyObjectBound$GT$20from_py_object_bound17ha91f77ad526fa16aE', symObjAddr: 0x1BC, symBinAddr: 0x39D90, symSize: 0x34 }
  - { offset: 0xFC549, size: 0x8, addend: 0x0, symName: '__ZN57_$LT$T$u20$as$u20$pyo3..conversion..FromPyObjectBound$GT$20from_py_object_bound17hb9a77451ddc3fdc5E', symObjAddr: 0x1F0, symBinAddr: 0x39DC4, symSize: 0x34 }
  - { offset: 0xFC586, size: 0x8, addend: 0x0, symName: '__ZN79_$LT$pyo3..pycell..PyRef$LT$T$GT$$u20$as$u20$pyo3..conversion..FromPyObject$GT$13extract_bound17hcef647d90d72a886E', symObjAddr: 0x380, symBinAddr: 0x39F54, symSize: 0xA4 }
  - { offset: 0xFC5DC, size: 0x8, addend: 0x0, symName: '__ZN79_$LT$pyo3..pycell..PyRef$LT$T$GT$$u20$as$u20$pyo3..conversion..FromPyObject$GT$13extract_bound17hd452417c25e54b07E', symObjAddr: 0x424, symBinAddr: 0x39FF8, symSize: 0xA4 }
  - { offset: 0xFC638, size: 0x8, addend: 0x0, symName: '__ZN82_$LT$pyo3..pycell..PyRefMut$LT$T$GT$$u20$as$u20$pyo3..conversion..FromPyObject$GT$13extract_bound17hb6f83694c2e5c051E', symObjAddr: 0x4C8, symBinAddr: 0x3A09C, symSize: 0xA4 }
  - { offset: 0xFD1F1, size: 0x8, addend: 0x0, symName: '__ZN4pyo36pycell14PyRef$LT$T$GT$10try_borrow17h0cc83aed754bf889E', symObjAddr: 0x0, symBinAddr: 0x39BD4, symSize: 0x4C }
  - { offset: 0xFD248, size: 0x8, addend: 0x0, symName: '__ZN4pyo36pycell14PyRef$LT$T$GT$10try_borrow17hc67c3b73822df5abE', symObjAddr: 0x4C, symBinAddr: 0x39C20, symSize: 0x4C }
  - { offset: 0xFD292, size: 0x8, addend: 0x0, symName: '__ZN4pyo36pycell17PyRefMut$LT$T$GT$10try_borrow17hdeb7e7997c1d8dbdE', symObjAddr: 0xE0, symBinAddr: 0x39CB4, symSize: 0x4C }
  - { offset: 0xFD3F2, size: 0x8, addend: 0x0, symName: __ZN4pyo35impl_12deprecations12inspect_type17h2fb05507defd6f9eE, symObjAddr: 0x0, symBinAddr: 0x3A140, symSize: 0x40 }
  - { offset: 0xFE77A, size: 0x8, addend: 0x0, symName: __ZN4pyo35impl_12deprecations12inspect_type17h2fb05507defd6f9eE, symObjAddr: 0x0, symBinAddr: 0x3A140, symSize: 0x40 }
  - { offset: 0xFE7BA, size: 0x8, addend: 0x0, symName: __ZN4pyo35impl_12deprecations12inspect_type17h4c9c220582f8f2b1E, symObjAddr: 0x40, symBinAddr: 0x3A180, symSize: 0x24 }
  - { offset: 0xFE7F9, size: 0x8, addend: 0x0, symName: __ZN4pyo35impl_12deprecations12inspect_type17h53b4c46b90a77f65E, symObjAddr: 0x64, symBinAddr: 0x3A1A4, symSize: 0x24 }
  - { offset: 0xFE838, size: 0x8, addend: 0x0, symName: __ZN4pyo35impl_12deprecations12inspect_type17h5e226b5a684e470eE, symObjAddr: 0x88, symBinAddr: 0x3A1C8, symSize: 0x18 }
  - { offset: 0xFE877, size: 0x8, addend: 0x0, symName: __ZN4pyo35impl_12deprecations12inspect_type17h5e8b9a9a6f04b46aE, symObjAddr: 0xA0, symBinAddr: 0x3A1E0, symSize: 0x14 }
  - { offset: 0xFE8B6, size: 0x8, addend: 0x0, symName: __ZN4pyo35impl_12deprecations12inspect_type17h7abfa4ad8157708aE, symObjAddr: 0xB4, symBinAddr: 0x3A1F4, symSize: 0x24 }
  - { offset: 0xFE8F5, size: 0x8, addend: 0x0, symName: __ZN4pyo35impl_12deprecations12inspect_type17h7fe75dabac91d3aeE, symObjAddr: 0xD8, symBinAddr: 0x3A218, symSize: 0x18 }
  - { offset: 0xFE934, size: 0x8, addend: 0x0, symName: __ZN4pyo35impl_12deprecations12inspect_type17h874efd80a8eeb6ddE, symObjAddr: 0xF0, symBinAddr: 0x3A230, symSize: 0x14 }
  - { offset: 0xFE973, size: 0x8, addend: 0x0, symName: __ZN4pyo35impl_12deprecations12inspect_type17h970b4c711ca53e33E, symObjAddr: 0x104, symBinAddr: 0x3A244, symSize: 0x14 }
  - { offset: 0xFE9B2, size: 0x8, addend: 0x0, symName: __ZN4pyo35impl_12deprecations12inspect_type17ha4113a5419c9d413E, symObjAddr: 0x118, symBinAddr: 0x3A258, symSize: 0x18 }
  - { offset: 0xFE9F1, size: 0x8, addend: 0x0, symName: __ZN4pyo35impl_12deprecations12inspect_type17hfcbcecc0271e4f0cE, symObjAddr: 0x130, symBinAddr: 0x3A270, symSize: 0x18 }
  - { offset: 0xFF032, size: 0x8, addend: 0x0, symName: '__ZN87_$LT$pyo3..impl_..deprecations..GilRefs$LT$T$GT$$u20$as$u20$core..ops..deref..Deref$GT$5deref17h0350ebb4e2775e62E', symObjAddr: 0x234, symBinAddr: 0x3A374, symSize: 0x14 }
  - { offset: 0xFF067, size: 0x8, addend: 0x0, symName: '__ZN87_$LT$pyo3..impl_..deprecations..GilRefs$LT$T$GT$$u20$as$u20$core..ops..deref..Deref$GT$5deref17h048503aa0ed9c2f3E', symObjAddr: 0x248, symBinAddr: 0x3A388, symSize: 0x14 }
  - { offset: 0xFF09C, size: 0x8, addend: 0x0, symName: '__ZN87_$LT$pyo3..impl_..deprecations..GilRefs$LT$T$GT$$u20$as$u20$core..ops..deref..Deref$GT$5deref17h0b5d2c2ab36390c9E', symObjAddr: 0x25C, symBinAddr: 0x3A39C, symSize: 0x14 }
  - { offset: 0xFF0D1, size: 0x8, addend: 0x0, symName: '__ZN87_$LT$pyo3..impl_..deprecations..GilRefs$LT$T$GT$$u20$as$u20$core..ops..deref..Deref$GT$5deref17h313e28974aeb58adE', symObjAddr: 0x270, symBinAddr: 0x3A3B0, symSize: 0x14 }
  - { offset: 0xFF106, size: 0x8, addend: 0x0, symName: '__ZN87_$LT$pyo3..impl_..deprecations..GilRefs$LT$T$GT$$u20$as$u20$core..ops..deref..Deref$GT$5deref17h4b9b070d563d6b76E', symObjAddr: 0x284, symBinAddr: 0x3A3C4, symSize: 0x14 }
  - { offset: 0xFF13B, size: 0x8, addend: 0x0, symName: '__ZN87_$LT$pyo3..impl_..deprecations..GilRefs$LT$T$GT$$u20$as$u20$core..ops..deref..Deref$GT$5deref17h59fe76ccf281b480E', symObjAddr: 0x298, symBinAddr: 0x3A3D8, symSize: 0x14 }
  - { offset: 0xFF170, size: 0x8, addend: 0x0, symName: '__ZN87_$LT$pyo3..impl_..deprecations..GilRefs$LT$T$GT$$u20$as$u20$core..ops..deref..Deref$GT$5deref17h7e146671e658adaeE', symObjAddr: 0x2AC, symBinAddr: 0x3A3EC, symSize: 0x14 }
  - { offset: 0xFF1A5, size: 0x8, addend: 0x0, symName: '__ZN87_$LT$pyo3..impl_..deprecations..GilRefs$LT$T$GT$$u20$as$u20$core..ops..deref..Deref$GT$5deref17ha45a88be1e06b047E', symObjAddr: 0x2C0, symBinAddr: 0x3A400, symSize: 0x14 }
  - { offset: 0xFF1DA, size: 0x8, addend: 0x0, symName: '__ZN87_$LT$pyo3..impl_..deprecations..GilRefs$LT$T$GT$$u20$as$u20$core..ops..deref..Deref$GT$5deref17hb7742f8582c04cd1E', symObjAddr: 0x2D4, symBinAddr: 0x3A414, symSize: 0x14 }
  - { offset: 0xFF20F, size: 0x8, addend: 0x0, symName: '__ZN87_$LT$pyo3..impl_..deprecations..GilRefs$LT$T$GT$$u20$as$u20$core..ops..deref..Deref$GT$5deref17he93dbd261bf8f430E', symObjAddr: 0x2E8, symBinAddr: 0x3A428, symSize: 0x14 }
  - { offset: 0xFF244, size: 0x8, addend: 0x0, symName: '__ZN87_$LT$pyo3..impl_..deprecations..GilRefs$LT$T$GT$$u20$as$u20$core..ops..deref..Deref$GT$5deref17hfe6a2b3fa951c2c7E', symObjAddr: 0x2FC, symBinAddr: 0x3A43C, symSize: 0x14 }
  - { offset: 0xFF27F, size: 0x8, addend: 0x0, symName: '__ZN93_$LT$pyo3..impl_..deprecations..OptionGilRefs$LT$T$GT$$u20$as$u20$core..ops..deref..Deref$GT$5deref17h2bed365d88c53855E', symObjAddr: 0x310, symBinAddr: 0x3A450, symSize: 0x14 }
  - { offset: 0xFF2B4, size: 0x8, addend: 0x0, symName: '__ZN93_$LT$pyo3..impl_..deprecations..OptionGilRefs$LT$T$GT$$u20$as$u20$core..ops..deref..Deref$GT$5deref17h2d71406a6b1884b0E', symObjAddr: 0x324, symBinAddr: 0x3A464, symSize: 0x14 }
  - { offset: 0xFF2E9, size: 0x8, addend: 0x0, symName: '__ZN93_$LT$pyo3..impl_..deprecations..OptionGilRefs$LT$T$GT$$u20$as$u20$core..ops..deref..Deref$GT$5deref17h389d80422af8a925E', symObjAddr: 0x338, symBinAddr: 0x3A478, symSize: 0x14 }
  - { offset: 0xFF31E, size: 0x8, addend: 0x0, symName: '__ZN93_$LT$pyo3..impl_..deprecations..OptionGilRefs$LT$T$GT$$u20$as$u20$core..ops..deref..Deref$GT$5deref17h3ef20aba5c10c7cbE', symObjAddr: 0x34C, symBinAddr: 0x3A48C, symSize: 0x14 }
  - { offset: 0xFF353, size: 0x8, addend: 0x0, symName: '__ZN93_$LT$pyo3..impl_..deprecations..OptionGilRefs$LT$T$GT$$u20$as$u20$core..ops..deref..Deref$GT$5deref17h6bf22df7f1b0bc47E', symObjAddr: 0x360, symBinAddr: 0x3A4A0, symSize: 0x14 }
  - { offset: 0xFF388, size: 0x8, addend: 0x0, symName: '__ZN93_$LT$pyo3..impl_..deprecations..OptionGilRefs$LT$T$GT$$u20$as$u20$core..ops..deref..Deref$GT$5deref17h6fcc266575197985E', symObjAddr: 0x374, symBinAddr: 0x3A4B4, symSize: 0x14 }
  - { offset: 0xFF3BD, size: 0x8, addend: 0x0, symName: '__ZN93_$LT$pyo3..impl_..deprecations..OptionGilRefs$LT$T$GT$$u20$as$u20$core..ops..deref..Deref$GT$5deref17ha196fb5495fcb546E', symObjAddr: 0x388, symBinAddr: 0x3A4C8, symSize: 0x14 }
  - { offset: 0xFF3F2, size: 0x8, addend: 0x0, symName: '__ZN93_$LT$pyo3..impl_..deprecations..OptionGilRefs$LT$T$GT$$u20$as$u20$core..ops..deref..Deref$GT$5deref17habc13132352e3fcbE', symObjAddr: 0x39C, symBinAddr: 0x3A4DC, symSize: 0x14 }
  - { offset: 0xFF427, size: 0x8, addend: 0x0, symName: '__ZN93_$LT$pyo3..impl_..deprecations..OptionGilRefs$LT$T$GT$$u20$as$u20$core..ops..deref..Deref$GT$5deref17hbc78ffee0082c8daE', symObjAddr: 0x3B0, symBinAddr: 0x3A4F0, symSize: 0x14 }
  - { offset: 0xFF45C, size: 0x8, addend: 0x0, symName: '__ZN93_$LT$pyo3..impl_..deprecations..OptionGilRefs$LT$T$GT$$u20$as$u20$core..ops..deref..Deref$GT$5deref17hbd78c32978d2f4ddE', symObjAddr: 0x3C4, symBinAddr: 0x3A504, symSize: 0x14 }
  - { offset: 0xFF491, size: 0x8, addend: 0x0, symName: '__ZN93_$LT$pyo3..impl_..deprecations..OptionGilRefs$LT$T$GT$$u20$as$u20$core..ops..deref..Deref$GT$5deref17hfe24df18fb984d9cE', symObjAddr: 0x3D8, symBinAddr: 0x3A518, symSize: 0x14 }
  - { offset: 0xFF5E5, size: 0x8, addend: 0x0, symName: '__ZN4pyo35impl_12deprecations16GilRefs$LT$T$GT$3new17h0b29b19f19fe3390E', symObjAddr: 0x148, symBinAddr: 0x3A288, symSize: 0x4 }
  - { offset: 0xFF602, size: 0x8, addend: 0x0, symName: '__ZN4pyo35impl_12deprecations16GilRefs$LT$T$GT$3new17h0b48c128940423e7E', symObjAddr: 0x14C, symBinAddr: 0x3A28C, symSize: 0x4 }
  - { offset: 0xFF908, size: 0x8, addend: 0x0, symName: '__ZN4pyo35impl_12deprecations16GilRefs$LT$T$GT$3new17h3a090ebab1302cebE', symObjAddr: 0x150, symBinAddr: 0x3A290, symSize: 0x4 }
  - { offset: 0xFF925, size: 0x8, addend: 0x0, symName: '__ZN4pyo35impl_12deprecations16GilRefs$LT$T$GT$3new17h57773523c6d5ac3dE', symObjAddr: 0x154, symBinAddr: 0x3A294, symSize: 0x4 }
  - { offset: 0xFFDCA, size: 0x8, addend: 0x0, symName: '__ZN4pyo35impl_12deprecations16GilRefs$LT$T$GT$3new17h72720f240214411dE', symObjAddr: 0x158, symBinAddr: 0x3A298, symSize: 0x4 }
  - { offset: 0xFFDE7, size: 0x8, addend: 0x0, symName: '__ZN4pyo35impl_12deprecations16GilRefs$LT$T$GT$3new17h774716b4a3881bf1E', symObjAddr: 0x15C, symBinAddr: 0x3A29C, symSize: 0x4 }
  - { offset: 0x100123, size: 0x8, addend: 0x0, symName: '__ZN4pyo35impl_12deprecations16GilRefs$LT$T$GT$3new17h9b365f3b8a779e8fE', symObjAddr: 0x160, symBinAddr: 0x3A2A0, symSize: 0x4 }
  - { offset: 0x10014D, size: 0x8, addend: 0x0, symName: '__ZN4pyo35impl_12deprecations16GilRefs$LT$T$GT$3new17h9d0c505161ffca03E', symObjAddr: 0x164, symBinAddr: 0x3A2A4, symSize: 0x4 }
  - { offset: 0x10016A, size: 0x8, addend: 0x0, symName: '__ZN4pyo35impl_12deprecations16GilRefs$LT$T$GT$3new17h9dad9e548588c43dE', symObjAddr: 0x168, symBinAddr: 0x3A2A8, symSize: 0x4 }
  - { offset: 0x1001C3, size: 0x8, addend: 0x0, symName: '__ZN4pyo35impl_12deprecations16GilRefs$LT$T$GT$3new17hc6a24e5c6e180141E', symObjAddr: 0x16C, symBinAddr: 0x3A2AC, symSize: 0x4 }
  - { offset: 0x1001ED, size: 0x8, addend: 0x0, symName: '__ZN4pyo35impl_12deprecations16GilRefs$LT$T$GT$3new17hd024cafb1df5d059E', symObjAddr: 0x170, symBinAddr: 0x3A2B0, symSize: 0x4 }
  - { offset: 0x100217, size: 0x8, addend: 0x0, symName: '__ZN4pyo35impl_12deprecations19NotAGilRef$LT$T$GT$12function_arg17h1e05e3793dd83dbcE', symObjAddr: 0x174, symBinAddr: 0x3A2B4, symSize: 0x10 }
  - { offset: 0x10024F, size: 0x8, addend: 0x0, symName: '__ZN4pyo35impl_12deprecations19NotAGilRef$LT$T$GT$12function_arg17h755100a3066586ddE', symObjAddr: 0x184, symBinAddr: 0x3A2C4, symSize: 0x10 }
  - { offset: 0x100287, size: 0x8, addend: 0x0, symName: '__ZN4pyo35impl_12deprecations19NotAGilRef$LT$T$GT$12function_arg17h7d63b5aacb44eab4E', symObjAddr: 0x194, symBinAddr: 0x3A2D4, symSize: 0x10 }
  - { offset: 0x1002BF, size: 0x8, addend: 0x0, symName: '__ZN4pyo35impl_12deprecations19NotAGilRef$LT$T$GT$12function_arg17h88216c39f3e4a48dE', symObjAddr: 0x1A4, symBinAddr: 0x3A2E4, symSize: 0x10 }
  - { offset: 0x1002F7, size: 0x8, addend: 0x0, symName: '__ZN4pyo35impl_12deprecations19NotAGilRef$LT$T$GT$12function_arg17hb60ebcca9987723fE', symObjAddr: 0x1B4, symBinAddr: 0x3A2F4, symSize: 0x10 }
  - { offset: 0x10032F, size: 0x8, addend: 0x0, symName: '__ZN4pyo35impl_12deprecations19NotAGilRef$LT$T$GT$12function_arg17hc3b9d419358aefb3E', symObjAddr: 0x1C4, symBinAddr: 0x3A304, symSize: 0x10 }
  - { offset: 0x100367, size: 0x8, addend: 0x0, symName: '__ZN4pyo35impl_12deprecations19NotAGilRef$LT$T$GT$12function_arg17hd563afcaf0415e9eE', symObjAddr: 0x1D4, symBinAddr: 0x3A314, symSize: 0x10 }
  - { offset: 0x10039F, size: 0x8, addend: 0x0, symName: '__ZN4pyo35impl_12deprecations19NotAGilRef$LT$T$GT$12function_arg17he924f52904611d7cE', symObjAddr: 0x1E4, symBinAddr: 0x3A324, symSize: 0x10 }
  - { offset: 0x1003D7, size: 0x8, addend: 0x0, symName: '__ZN4pyo35impl_12deprecations19NotAGilRef$LT$T$GT$12function_arg17he9aaa862840c6b2dE', symObjAddr: 0x1F4, symBinAddr: 0x3A334, symSize: 0x10 }
  - { offset: 0x10040F, size: 0x8, addend: 0x0, symName: '__ZN4pyo35impl_12deprecations19NotAGilRef$LT$T$GT$12function_arg17hed156127f7030e53E', symObjAddr: 0x204, symBinAddr: 0x3A344, symSize: 0x10 }
  - { offset: 0x100447, size: 0x8, addend: 0x0, symName: '__ZN4pyo35impl_12deprecations19NotAGilRef$LT$T$GT$12function_arg17hf2c956f1a03c8e15E', symObjAddr: 0x214, symBinAddr: 0x3A354, symSize: 0x10 }
  - { offset: 0x100472, size: 0x8, addend: 0x0, symName: '__ZN4pyo35impl_12deprecations19NotAGilRef$LT$T$GT$9is_python17h977f8559daf866f1E', symObjAddr: 0x224, symBinAddr: 0x3A364, symSize: 0x10 }
  - { offset: 0x1005D9, size: 0x8, addend: 0x0, symName: '__ZN14neuralvault_rs14neuralvault_rs11__pyo3_init28_$u7b$$u7b$closure$u7d$$u7d$17h943cf2f309aea3e4E', symObjAddr: 0x0, symBinAddr: 0x3A52C, symSize: 0x28 }
  - { offset: 0x1019A5, size: 0x8, addend: 0x0, symName: '__ZN14neuralvault_rs14neuralvault_rs11__pyo3_init28_$u7b$$u7b$closure$u7d$$u7d$17h943cf2f309aea3e4E', symObjAddr: 0x0, symBinAddr: 0x3A52C, symSize: 0x28 }
  - { offset: 0x1021C0, size: 0x8, addend: 0x0, symName: '__ZN4core3ptr9const_ptr33_$LT$impl$u20$$BP$const$u20$T$GT$20offset_from_unsigned18precondition_check17ha3dc9cedff0058f5E', symObjAddr: 0x0, symBinAddr: 0x3A554, symSize: 0x60 }
  - { offset: 0x1021E6, size: 0x8, addend: 0x0, symName: '__ZN4core3ptr9const_ptr33_$LT$impl$u20$$BP$const$u20$T$GT$20offset_from_unsigned18precondition_check17ha3dc9cedff0058f5E', symObjAddr: 0x0, symBinAddr: 0x3A554, symSize: 0x60 }
  - { offset: 0x1022CF, size: 0x8, addend: 0x0, symName: '__ZN4core3ptr9const_ptr33_$LT$impl$u20$$BP$const$u20$T$GT$6offset18precondition_check17h22999258bcebf3d3E', symObjAddr: 0x60, symBinAddr: 0x3A5B4, symSize: 0xC4 }
  - { offset: 0x1026B6, size: 0x8, addend: 0x0, symName: '__ZN3std11collections4hash3set16HashSet$LT$T$GT$3new17h16191d585ad7bdb5E', symObjAddr: 0x0, symBinAddr: 0x3A678, symSize: 0x90 }
  - { offset: 0x102B2A, size: 0x8, addend: 0x0, symName: '__ZN3std11collections4hash3set16HashSet$LT$T$GT$3new17h16191d585ad7bdb5E', symObjAddr: 0x0, symBinAddr: 0x3A678, symSize: 0x90 }
  - { offset: 0x102C6F, size: 0x8, addend: 0x0, symName: '__ZN3std11collections4hash3set24HashSet$LT$T$C$S$C$A$GT$6insert17h8a8ddc5a4fa6718fE', symObjAddr: 0x90, symBinAddr: 0x3A708, symSize: 0x34 }
  - { offset: 0x102D2C, size: 0x8, addend: 0x0, symName: '__ZN73_$LT$pyo3..types..any..PyAny$u20$as$u20$pyo3..type_object..PyTypeInfo$GT$15type_object_raw17h83bcdcad323c5855E', symObjAddr: 0x0, symBinAddr: 0x3A73C, symSize: 0x24 }
  - { offset: 0x103E8E, size: 0x8, addend: 0x0, symName: '__ZN73_$LT$pyo3..types..any..PyAny$u20$as$u20$pyo3..type_object..PyTypeInfo$GT$15type_object_raw17h83bcdcad323c5855E', symObjAddr: 0x0, symBinAddr: 0x3A73C, symSize: 0x24 }
  - { offset: 0x1043E0, size: 0x8, addend: 0x0, symName: __ZN4core5slice4sort6stable9quicksort16stable_partition17h3d6da0c8c955cbd6E, symObjAddr: 0x0, symBinAddr: 0x3A760, symSize: 0x42C }
  - { offset: 0x10528B, size: 0x8, addend: 0x0, symName: __ZN4core5slice4sort6stable9quicksort16stable_partition17h3d6da0c8c955cbd6E, symObjAddr: 0x0, symBinAddr: 0x3A760, symSize: 0x42C }
  - { offset: 0x1057A2, size: 0x8, addend: 0x0, symName: __ZN4core5slice4sort6stable9quicksort16stable_partition17h69b24c46c1c8786cE, symObjAddr: 0x42C, symBinAddr: 0x3AB8C, symSize: 0x42C }
  - { offset: 0x105C2C, size: 0x8, addend: 0x0, symName: __ZN4core5slice4sort6stable9quicksort16stable_partition17ha20ea48933f58f75E, symObjAddr: 0x858, symBinAddr: 0x3AFB8, symSize: 0x42C }
  - { offset: 0x1060B6, size: 0x8, addend: 0x0, symName: __ZN4core5slice4sort6stable9quicksort16stable_partition17hc1420a809bd17fe0E, symObjAddr: 0xC84, symBinAddr: 0x3B3E4, symSize: 0x42C }
  - { offset: 0x106540, size: 0x8, addend: 0x0, symName: __ZN4core5slice4sort6stable9quicksort9quicksort17h0a7f009ae426b1b6E, symObjAddr: 0x1328, symBinAddr: 0x3BA88, symSize: 0x34C }
  - { offset: 0x106806, size: 0x8, addend: 0x0, symName: __ZN4core5slice4sort6stable9quicksort9quicksort17head5c39ed32f1d4bE, symObjAddr: 0x1674, symBinAddr: 0x3BDD4, symSize: 0x34C }
  - { offset: 0x106AB7, size: 0x8, addend: 0x0, symName: '__ZN4core5slice4sort6stable9quicksort9quicksort28_$u7b$$u7b$closure$u7d$$u7d$17h234f00aeeaac2e54E', symObjAddr: 0x19C0, symBinAddr: 0x3C120, symSize: 0x48 }
  - { offset: 0x106B14, size: 0x8, addend: 0x0, symName: '__ZN4core5slice4sort6stable9quicksort9quicksort28_$u7b$$u7b$closure$u7d$$u7d$17h3b513d89ad4cd49fE', symObjAddr: 0x1A08, symBinAddr: 0x3C168, symSize: 0x48 }
  - { offset: 0x106B9D, size: 0x8, addend: 0x0, symName: '__ZN68_$LT$T$u20$as$u20$core..slice..sort..stable..quicksort..IsFreeze$GT$9is_freeze17h1cd3509fdc2d585aE', symObjAddr: 0x1A50, symBinAddr: 0x3C1B0, symSize: 0xC }
  - { offset: 0x106BC4, size: 0x8, addend: 0x0, symName: '__ZN68_$LT$T$u20$as$u20$core..slice..sort..stable..quicksort..IsFreeze$GT$9is_freeze17h2a1964fe99a3fc09E', symObjAddr: 0x1A5C, symBinAddr: 0x3C1BC, symSize: 0xC }
  - { offset: 0x107310, size: 0x8, addend: 0x0, symName: '__ZN4core5slice4sort6stable9quicksort23PartitionState$LT$T$GT$13partition_one17h09866ff62846edb7E', symObjAddr: 0x10B0, symBinAddr: 0x3B810, symSize: 0x13C }
  - { offset: 0x107408, size: 0x8, addend: 0x0, symName: '__ZN4core5slice4sort6stable9quicksort23PartitionState$LT$T$GT$13partition_one17h82c926a729507569E', symObjAddr: 0x11EC, symBinAddr: 0x3B94C, symSize: 0x13C }
  - { offset: 0x1076A9, size: 0x8, addend: 0x0, symName: '__ZN115_$LT$core..panic..unwind_safe..AssertUnwindSafe$LT$F$GT$$u20$as$u20$core..ops..function..FnOnce$LT$$LP$$RP$$GT$$GT$9call_once17h2aab7130b5372981E', symObjAddr: 0x0, symBinAddr: 0x3C1C8, symSize: 0x40 }
  - { offset: 0x1076CA, size: 0x8, addend: 0x0, symName: '__ZN115_$LT$core..panic..unwind_safe..AssertUnwindSafe$LT$F$GT$$u20$as$u20$core..ops..function..FnOnce$LT$$LP$$RP$$GT$$GT$9call_once17h2aab7130b5372981E', symObjAddr: 0x0, symBinAddr: 0x3C1C8, symSize: 0x40 }
  - { offset: 0x107726, size: 0x8, addend: 0x0, symName: '__ZN115_$LT$core..panic..unwind_safe..AssertUnwindSafe$LT$F$GT$$u20$as$u20$core..ops..function..FnOnce$LT$$LP$$RP$$GT$$GT$9call_once17h3fa33fcf363476dbE', symObjAddr: 0x40, symBinAddr: 0x3C208, symSize: 0x40 }
  - { offset: 0x107782, size: 0x8, addend: 0x0, symName: '__ZN115_$LT$core..panic..unwind_safe..AssertUnwindSafe$LT$F$GT$$u20$as$u20$core..ops..function..FnOnce$LT$$LP$$RP$$GT$$GT$9call_once17h83dbbfcc9d658f33E', symObjAddr: 0x80, symBinAddr: 0x3C248, symSize: 0x40 }
  - { offset: 0x1077DE, size: 0x8, addend: 0x0, symName: '__ZN115_$LT$core..panic..unwind_safe..AssertUnwindSafe$LT$F$GT$$u20$as$u20$core..ops..function..FnOnce$LT$$LP$$RP$$GT$$GT$9call_once17h91193000dba7eb8dE', symObjAddr: 0xC0, symBinAddr: 0x3C288, symSize: 0x40 }
  - { offset: 0x10783A, size: 0x8, addend: 0x0, symName: '__ZN115_$LT$core..panic..unwind_safe..AssertUnwindSafe$LT$F$GT$$u20$as$u20$core..ops..function..FnOnce$LT$$LP$$RP$$GT$$GT$9call_once17hc5b2990262817728E', symObjAddr: 0x100, symBinAddr: 0x3C2C8, symSize: 0x40 }
  - { offset: 0x107896, size: 0x8, addend: 0x0, symName: '__ZN115_$LT$core..panic..unwind_safe..AssertUnwindSafe$LT$F$GT$$u20$as$u20$core..ops..function..FnOnce$LT$$LP$$RP$$GT$$GT$9call_once17hcd7d923be69e6ec4E', symObjAddr: 0x140, symBinAddr: 0x3C308, symSize: 0x40 }
  - { offset: 0x1078F2, size: 0x8, addend: 0x0, symName: '__ZN115_$LT$core..panic..unwind_safe..AssertUnwindSafe$LT$F$GT$$u20$as$u20$core..ops..function..FnOnce$LT$$LP$$RP$$GT$$GT$9call_once17hed44f378bc990818E', symObjAddr: 0x180, symBinAddr: 0x3C348, symSize: 0x40 }
  - { offset: 0x10794E, size: 0x8, addend: 0x0, symName: '__ZN115_$LT$core..panic..unwind_safe..AssertUnwindSafe$LT$F$GT$$u20$as$u20$core..ops..function..FnOnce$LT$$LP$$RP$$GT$$GT$9call_once17hf99d44035a5137cdE', symObjAddr: 0x1C0, symBinAddr: 0x3C388, symSize: 0x40 }
  - { offset: 0x1086C9, size: 0x8, addend: 0x0, symName: __ZN10rayon_core5sleep8counters13select_thread17hfb757d675e8bc4b4E, symObjAddr: 0x0, symBinAddr: 0x3C3C8, symSize: 0x54 }
  - { offset: 0x1086E5, size: 0x8, addend: 0x0, symName: __ZN10rayon_core5sleep8counters13select_thread17hfb757d675e8bc4b4E, symObjAddr: 0x0, symBinAddr: 0x3C3C8, symSize: 0x54 }
  - { offset: 0x10877E, size: 0x8, addend: 0x0, symName: __ZN10rayon_core5sleep8counters8Counters16inactive_threads17h92169312746bc7b6E, symObjAddr: 0x54, symBinAddr: 0x3C41C, symSize: 0x28 }
  - { offset: 0x1087A0, size: 0x8, addend: 0x0, symName: __ZN10rayon_core5sleep8counters8Counters16sleeping_threads17h0ceb8b32315cb9c3E, symObjAddr: 0x7C, symBinAddr: 0x3C444, symSize: 0x24 }
  - { offset: 0x1087C3, size: 0x8, addend: 0x0, symName: __ZN10rayon_core5sleep8counters8Counters22awake_but_idle_threads17h61014250df83978fE, symObjAddr: 0xA0, symBinAddr: 0x3C468, symSize: 0x10C }
  - { offset: 0x108AE4, size: 0x8, addend: 0x0, symName: '__ZN3std3f6421_$LT$impl$u20$f64$GT$2ln17hffe568174ee8f246E', symObjAddr: 0x0, symBinAddr: 0x3C574, symSize: 0x28 }
  - { offset: 0x108B00, size: 0x8, addend: 0x0, symName: '__ZN3std3f6421_$LT$impl$u20$f64$GT$2ln17hffe568174ee8f246E', symObjAddr: 0x0, symBinAddr: 0x3C574, symSize: 0x28 }
  - { offset: 0x108B2E, size: 0x8, addend: 0x0, symName: '__ZN3std3f6421_$LT$impl$u20$f64$GT$3exp17h44b38d2f3fe07aceE', symObjAddr: 0x28, symBinAddr: 0x3C59C, symSize: 0x28 }
  - { offset: 0x108B84, size: 0x8, addend: 0x0, symName: __ZN4core4iter6traits8iterator8Iterator9enumerate17he774175696fb63f0E, symObjAddr: 0x0, symBinAddr: 0x3C5C4, symSize: 0x38 }
  - { offset: 0x109376, size: 0x8, addend: 0x0, symName: __ZN4core4iter6traits8iterator8Iterator9enumerate17he774175696fb63f0E, symObjAddr: 0x0, symBinAddr: 0x3C5C4, symSize: 0x38 }
  - { offset: 0x109424, size: 0x8, addend: 0x0, symName: '__ZN99_$LT$core..array..iter..IntoIter$LT$T$C$_$GT$$u20$as$u20$core..iter..traits..iterator..Iterator$GT$4next17hae53e3849b4cd768E', symObjAddr: 0x38, symBinAddr: 0x3C5FC, symSize: 0x2C }
  - { offset: 0x10A3CA, size: 0x8, addend: 0x0, symName: '__ZN74_$LT$rand_core..block..BlockRng$LT$R$GT$$u20$as$u20$rand_core..RngCore$GT$8next_u3217h85b8770e3fbea8d6E', symObjAddr: 0x0, symBinAddr: 0x3C628, symSize: 0xD8 }
  - { offset: 0x10A3E6, size: 0x8, addend: 0x0, symName: '__ZN74_$LT$rand_core..block..BlockRng$LT$R$GT$$u20$as$u20$rand_core..RngCore$GT$8next_u3217h85b8770e3fbea8d6E', symObjAddr: 0x0, symBinAddr: 0x3C628, symSize: 0xD8 }
  - { offset: 0x10A430, size: 0x8, addend: 0x0, symName: '__ZN74_$LT$rand_core..block..BlockRng$LT$R$GT$$u20$as$u20$rand_core..RngCore$GT$8next_u6417h233733e04ea6f780E', symObjAddr: 0xD8, symBinAddr: 0x3C700, symSize: 0x210 }
  - { offset: 0x10A4DB, size: 0x8, addend: 0x0, symName: '__ZN74_$LT$rand_core..block..BlockRng$LT$R$GT$$u20$as$u20$rand_core..RngCore$GT$8next_u6428_$u7b$$u7b$closure$u7d$$u7d$17h285c096f14560fb9E', symObjAddr: 0x2E8, symBinAddr: 0x3C910, symSize: 0x114 }
  - { offset: 0x10A805, size: 0x8, addend: 0x0, symName: '__ZN3std6thread5local17LocalKey$LT$T$GT$4with17h11529588e1ab5851E', symObjAddr: 0x0, symBinAddr: 0x3CA24, symSize: 0x5C }
  - { offset: 0x10C681, size: 0x8, addend: 0x0, symName: '__ZN3std6thread5local17LocalKey$LT$T$GT$4with17h11529588e1ab5851E', symObjAddr: 0x0, symBinAddr: 0x3CA24, symSize: 0x5C }
  - { offset: 0x10C725, size: 0x8, addend: 0x0, symName: '__ZN3std6thread5local17LocalKey$LT$T$GT$4with17h25ec1ef25d12b13dE', symObjAddr: 0x5C, symBinAddr: 0x3CA80, symSize: 0x5C }
  - { offset: 0x10C7DF, size: 0x8, addend: 0x0, symName: '__ZN3std6thread5local17LocalKey$LT$T$GT$8try_with17h7d1c7dad7ca67053E', symObjAddr: 0xB8, symBinAddr: 0x3CADC, symSize: 0x11C }
  - { offset: 0x10C967, size: 0x8, addend: 0x0, symName: '__ZN3std6thread5local17LocalKey$LT$T$GT$8try_with17haed2fb8d594496f0E', symObjAddr: 0x1D4, symBinAddr: 0x3CBF8, symSize: 0x11C }
  - { offset: 0x10CACC, size: 0x8, addend: 0x0, symName: __ZN5rayon4iter16ParallelIterator3map17he8fa5db2c082170cE, symObjAddr: 0x0, symBinAddr: 0x3CD14, symSize: 0x5C }
  - { offset: 0x10CAE8, size: 0x8, addend: 0x0, symName: __ZN5rayon4iter16ParallelIterator3map17he8fa5db2c082170cE, symObjAddr: 0x0, symBinAddr: 0x3CD14, symSize: 0x5C }
  - { offset: 0x10CB4C, size: 0x8, addend: 0x0, symName: __ZN5rayon4iter8plumbing8Producer7max_len17heb0eaab27e6c7bc6E, symObjAddr: 0x5C, symBinAddr: 0x3CD70, symSize: 0x14 }
  - { offset: 0x10CB81, size: 0x8, addend: 0x0, symName: __ZN5rayon4iter8plumbing8Producer7min_len17h4a151b27cfa55301E, symObjAddr: 0x70, symBinAddr: 0x3CD84, symSize: 0x18 }
  - { offset: 0x10CBB6, size: 0x8, addend: 0x0, symName: __ZN5rayon4iter8plumbing8Producer9fold_with17haf3aa2f17382a4e1E, symObjAddr: 0x88, symBinAddr: 0x3CD9C, symSize: 0xA4 }
  - { offset: 0x10CC03, size: 0x8, addend: 0x0, symName: __ZN5rayon4iter8plumbing8Producer9fold_with17he3cecc0b370cd663E, symObjAddr: 0x12C, symBinAddr: 0x3CE40, symSize: 0xA4 }
  - { offset: 0x10CE6C, size: 0x8, addend: 0x0, symName: '__ZN5rayon5range71_$LT$impl$u20$rayon..range..private..RangeInteger$u20$for$u20$usize$GT$15drive_unindexed17h13c87bb831d181d5E', symObjAddr: 0x1D0, symBinAddr: 0x3CEE4, symSize: 0x3C }
  - { offset: 0x10CEB0, size: 0x8, addend: 0x0, symName: '__ZN5rayon5range71_$LT$impl$u20$rayon..range..private..RangeInteger$u20$for$u20$usize$GT$15drive_unindexed17h67655d13a56ec147E', symObjAddr: 0x20C, symBinAddr: 0x3CF20, symSize: 0x2C }
  - { offset: 0x10CEF9, size: 0x8, addend: 0x0, symName: '__ZN5rayon5range78_$LT$impl$u20$rayon..range..private..IndexedRangeInteger$u20$for$u20$usize$GT$13with_producer17h9bd9629956c42f27E', symObjAddr: 0x238, symBinAddr: 0x3CF4C, symSize: 0x48 }
  - { offset: 0x10CF3C, size: 0x8, addend: 0x0, symName: '__ZN5rayon5range78_$LT$impl$u20$rayon..range..private..IndexedRangeInteger$u20$for$u20$usize$GT$13with_producer17hf21cc91ebd37b7ffE', symObjAddr: 0x280, symBinAddr: 0x3CF94, symSize: 0x50 }
  - { offset: 0x10CF86, size: 0x8, addend: 0x0, symName: '__ZN77_$LT$rayon..range..Iter$LT$T$GT$$u20$as$u20$rayon..iter..ParallelIterator$GT$15drive_unindexed17hb3f96cfafab7fbc3E', symObjAddr: 0x2D0, symBinAddr: 0x3CFE4, symSize: 0x3C }
  - { offset: 0x10CFD3, size: 0x8, addend: 0x0, symName: '__ZN77_$LT$rayon..range..Iter$LT$T$GT$$u20$as$u20$rayon..iter..ParallelIterator$GT$15drive_unindexed17hd177b5626686ddf7E', symObjAddr: 0x30C, symBinAddr: 0x3D020, symSize: 0x2C }
  - { offset: 0x10D025, size: 0x8, addend: 0x0, symName: '__ZN84_$LT$rayon..range..Iter$LT$T$GT$$u20$as$u20$rayon..iter..IndexedParallelIterator$GT$13with_producer17h322e56e503e425ceE', symObjAddr: 0x338, symBinAddr: 0x3D04C, symSize: 0x3C }
  - { offset: 0x10D072, size: 0x8, addend: 0x0, symName: '__ZN84_$LT$rayon..range..Iter$LT$T$GT$$u20$as$u20$rayon..iter..IndexedParallelIterator$GT$13with_producer17h68770eee53f3be46E', symObjAddr: 0x374, symBinAddr: 0x3D088, symSize: 0x30 }
  - { offset: 0x10D0BE, size: 0x8, addend: 0x0, symName: '__ZN84_$LT$rayon..range..Iter$LT$T$GT$$u20$as$u20$rayon..iter..IndexedParallelIterator$GT$3len17h83dc303fb73ec0faE', symObjAddr: 0x3A4, symBinAddr: 0x3D0B8, symSize: 0x24 }
  - { offset: 0x10D920, size: 0x8, addend: 0x0, symName: '__ZN100_$LT$core..iter..adapters..take..Take$LT$I$GT$$u20$as$u20$core..iter..traits..iterator..Iterator$GT$4fold17h6dbb9896b9f67041E', symObjAddr: 0x0, symBinAddr: 0x3D0DC, symSize: 0x1C }
  - { offset: 0x10E0DC, size: 0x8, addend: 0x0, symName: '__ZN100_$LT$core..iter..adapters..take..Take$LT$I$GT$$u20$as$u20$core..iter..traits..iterator..Iterator$GT$4fold17h6dbb9896b9f67041E', symObjAddr: 0x0, symBinAddr: 0x3D0DC, symSize: 0x1C }
  - { offset: 0x10E13D, size: 0x8, addend: 0x0, symName: '__ZN100_$LT$core..iter..adapters..take..Take$LT$I$GT$$u20$as$u20$core..iter..traits..iterator..Iterator$GT$4next17h72e2a8ef3a67b3e0E', symObjAddr: 0x1C, symBinAddr: 0x3D0F8, symSize: 0x58 }
  - { offset: 0x10E172, size: 0x8, addend: 0x0, symName: '__ZN100_$LT$core..iter..adapters..take..Take$LT$I$GT$$u20$as$u20$core..iter..traits..iterator..Iterator$GT$4next17h854f4cfad78d5a65E', symObjAddr: 0x74, symBinAddr: 0x3D150, symSize: 0x5C }
  - { offset: 0x10E1A7, size: 0x8, addend: 0x0, symName: '__ZN100_$LT$core..iter..adapters..take..Take$LT$I$GT$$u20$as$u20$core..iter..traits..iterator..Iterator$GT$8try_fold17h280dc766372da54cE', symObjAddr: 0xD0, symBinAddr: 0x3D1AC, symSize: 0x138 }
  - { offset: 0x10E2D5, size: 0x8, addend: 0x0, symName: '__ZN100_$LT$core..iter..adapters..take..Take$LT$I$GT$$u20$as$u20$core..iter..traits..iterator..Iterator$GT$8try_fold5check28_$u7b$$u7b$closure$u7d$$u7d$17h2d5c5eb24a58b639E', symObjAddr: 0x300, symBinAddr: 0x3D3DC, symSize: 0x104 }
  - { offset: 0x10E39C, size: 0x8, addend: 0x0, symName: '__ZN100_$LT$core..iter..adapters..take..Take$LT$I$GT$$u20$as$u20$core..iter..traits..iterator..Iterator$GT$8try_fold5check28_$u7b$$u7b$closure$u7d$$u7d$17h3747b361d5de4ed2E', symObjAddr: 0x404, symBinAddr: 0x3D4E0, symSize: 0x84 }
  - { offset: 0x10E462, size: 0x8, addend: 0x0, symName: '__ZN100_$LT$core..iter..adapters..take..Take$LT$I$GT$$u20$as$u20$core..iter..traits..iterator..Iterator$GT$8try_fold17hd3b5599ef7eaaf77E', symObjAddr: 0x208, symBinAddr: 0x3D2E4, symSize: 0xF8 }
  - { offset: 0x10E53D, size: 0x8, addend: 0x0, symName: '__ZN100_$LT$core..iter..adapters..take..Take$LT$I$GT$$u20$as$u20$core..iter..traits..iterator..Iterator$GT$9size_hint17ha059fc1941299533E', symObjAddr: 0x488, symBinAddr: 0x3D564, symSize: 0x100 }
  - { offset: 0x10E671, size: 0x8, addend: 0x0, symName: '__ZN94_$LT$core..iter..adapters..take..Take$LT$I$GT$$u20$as$u20$core..iter..adapters..SourceIter$GT$8as_inner17h1a61108b612fa28dE', symObjAddr: 0x724, symBinAddr: 0x3D800, symSize: 0x24 }
  - { offset: 0x10E6AC, size: 0x8, addend: 0x0, symName: '__ZN98_$LT$core..iter..adapters..take..Take$LT$I$GT$$u20$as$u20$core..iter..adapters..take..SpecTake$GT$9spec_fold17h2b5f0349f0eba4acE', symObjAddr: 0x748, symBinAddr: 0x3D824, symSize: 0x6C }
  - { offset: 0x10E87F, size: 0x8, addend: 0x0, symName: __ZN4core4iter6traits8iterator8Iterator3map17h5d03a608c4fa0ddfE, symObjAddr: 0x588, symBinAddr: 0x3D664, symSize: 0x50 }
  - { offset: 0x10E8ED, size: 0x8, addend: 0x0, symName: __ZN4core4iter6traits8iterator8Iterator7collect17h30f4a50a09da4515E, symObjAddr: 0x5D8, symBinAddr: 0x3D6B4, symSize: 0x14 }
  - { offset: 0x10E92E, size: 0x8, addend: 0x0, symName: __ZN4core4iter6traits8iterator8Iterator9enumerate17h596eceaaaf00b7e1E, symObjAddr: 0x5EC, symBinAddr: 0x3D6C8, symSize: 0x38 }
  - { offset: 0x10E97B, size: 0x8, addend: 0x0, symName: __ZN4core4iter6traits8iterator8Iterator9enumerate17h5d7745a72988a54bE, symObjAddr: 0x624, symBinAddr: 0x3D700, symSize: 0x18 }
  - { offset: 0x10E9AC, size: 0x8, addend: 0x0, symName: __ZN4core4iter6traits8iterator8Iterator9enumerate17h5d7745a72988a54bE, symObjAddr: 0x624, symBinAddr: 0x3D700, symSize: 0x18 }
  - { offset: 0x10E9D3, size: 0x8, addend: 0x0, symName: '__ZN63_$LT$I$u20$as$u20$core..iter..traits..collect..IntoIterator$GT$9into_iter17h052ea0b7b34f69d0E', symObjAddr: 0x63C, symBinAddr: 0x3D718, symSize: 0x30 }
  - { offset: 0x10FCFC, size: 0x8, addend: 0x0, symName: '__ZN83_$LT$I$u20$as$u20$alloc..vec..in_place_collect..SpecInPlaceCollect$LT$T$C$I$GT$$GT$16collect_in_place17h360a0c96e8488645E', symObjAddr: 0x66C, symBinAddr: 0x3D748, symSize: 0xB8 }
  - { offset: 0x110B7F, size: 0x8, addend: 0x0, symName: '__ZN4core4cell13Cell$LT$T$GT$3new17hc40652bd629607d8E', symObjAddr: 0x0, symBinAddr: 0x3D890, symSize: 0x10 }
  - { offset: 0x110C21, size: 0x8, addend: 0x0, symName: '__ZN4core4cell13Cell$LT$T$GT$3new17hc40652bd629607d8E', symObjAddr: 0x0, symBinAddr: 0x3D890, symSize: 0x10 }
  - { offset: 0x110C6B, size: 0x8, addend: 0x0, symName: '__ZN66_$LT$f32$u20$as$u20$rand..distributions..utils..FloatSIMDUtils$GT$13cast_from_int17h2a82b5e96ebeb94fE', symObjAddr: 0x0, symBinAddr: 0x3D8A0, symSize: 0x14 }
  - { offset: 0x110C8C, size: 0x8, addend: 0x0, symName: '__ZN66_$LT$f32$u20$as$u20$rand..distributions..utils..FloatSIMDUtils$GT$13cast_from_int17h2a82b5e96ebeb94fE', symObjAddr: 0x0, symBinAddr: 0x3D8A0, symSize: 0x14 }
  - { offset: 0x110CC0, size: 0x8, addend: 0x0, symName: '__ZN66_$LT$f64$u20$as$u20$rand..distributions..utils..FloatSIMDUtils$GT$13cast_from_int17hded2652f344ed31fE', symObjAddr: 0x14, symBinAddr: 0x3D8B4, symSize: 0x14 }
  - { offset: 0x110D2C, size: 0x8, addend: 0x0, symName: '__ZN87_$LT$$BP$mut$u20$pyo3_ffi..object..PyObject$u20$as$u20$pyo3..ffi_ptr_ext..FfiPtrExt$GT$12assume_owned17hd33880eac951fe9bE', symObjAddr: 0x0, symBinAddr: 0x3D8C8, symSize: 0x24 }
  - { offset: 0x110D7F, size: 0x8, addend: 0x0, symName: __ZN8pyo3_ffi6object17PyType_HasFeature17h37ef01c8a358d1faE, symObjAddr: 0x90, symBinAddr: 0x3D958, symSize: 0x88 }
  - { offset: 0x110DBC, size: 0x8, addend: 0x0, symName: __ZN8pyo3_ffi6object18PyObject_TypeCheck17h0a46d07a1cfa0a26E, symObjAddr: 0x118, symBinAddr: 0x3D9E0, symSize: 0x74 }
  - { offset: 0x110DF9, size: 0x8, addend: 0x0, symName: __ZN8pyo3_ffi6object19PyType_FastSubclass17heb0e6b30c618d92aE, symObjAddr: 0x18C, symBinAddr: 0x3DA54, symSize: 0x28 }
  - { offset: 0x110E36, size: 0x8, addend: 0x0, symName: __ZN8pyo3_ffi6object7Py_None17h81d292f9f280e81fE, symObjAddr: 0x1B4, symBinAddr: 0x3DA7C, symSize: 0xC }
  - { offset: 0x110E54, size: 0x8, addend: 0x0, symName: __ZN8pyo3_ffi6object7Py_TYPE17h678b3b776c03bea1E, symObjAddr: 0x1C0, symBinAddr: 0x3DA88, symSize: 0x74 }
  - { offset: 0x112099, size: 0x8, addend: 0x0, symName: '__ZN87_$LT$$BP$mut$u20$pyo3_ffi..object..PyObject$u20$as$u20$pyo3..ffi_ptr_ext..FfiPtrExt$GT$12assume_owned17hd33880eac951fe9bE', symObjAddr: 0x0, symBinAddr: 0x3D8C8, symSize: 0x24 }
  - { offset: 0x1120DE, size: 0x8, addend: 0x0, symName: '__ZN87_$LT$$BP$mut$u20$pyo3_ffi..object..PyObject$u20$as$u20$pyo3..ffi_ptr_ext..FfiPtrExt$GT$15assume_borrowed17h860f99e52c5ca796E', symObjAddr: 0x24, symBinAddr: 0x3D8EC, symSize: 0x24 }
  - { offset: 0x112123, size: 0x8, addend: 0x0, symName: '__ZN87_$LT$$BP$mut$u20$pyo3_ffi..object..PyObject$u20$as$u20$pyo3..ffi_ptr_ext..FfiPtrExt$GT$22assume_borrowed_or_opt17hc770ad716d8a734eE', symObjAddr: 0x48, symBinAddr: 0x3D910, symSize: 0x24 }
  - { offset: 0x112168, size: 0x8, addend: 0x0, symName: '__ZN87_$LT$$BP$mut$u20$pyo3_ffi..object..PyObject$u20$as$u20$pyo3..ffi_ptr_ext..FfiPtrExt$GT$25assume_borrowed_unchecked17hdf55a2ce46b78e1bE', symObjAddr: 0x6C, symBinAddr: 0x3D934, symSize: 0x24 }
  - { offset: 0x112792, size: 0x8, addend: 0x0, symName: '__ZN75_$LT$usize$u20$as$u20$pyo3..callback..IntoPyCallbackOutput$LT$isize$GT$$GT$7convert17hee29ceaa084c0660E', symObjAddr: 0x0, symBinAddr: 0x3DAFC, symSize: 0x2C }
  - { offset: 0x113B4C, size: 0x8, addend: 0x0, symName: '__ZN75_$LT$usize$u20$as$u20$pyo3..callback..IntoPyCallbackOutput$LT$isize$GT$$GT$7convert17hee29ceaa084c0660E', symObjAddr: 0x0, symBinAddr: 0x3DAFC, symSize: 0x2C }
  - { offset: 0x11430C, size: 0x8, addend: 0x0, symName: '__ZN57_$LT$T$u20$as$u20$pyo3..conversion..FromPyObjectBound$GT$20from_py_object_bound17h909fb0ca804a6e30E', symObjAddr: 0x0, symBinAddr: 0x3DB28, symSize: 0x34 }
  - { offset: 0x1156D8, size: 0x8, addend: 0x0, symName: '__ZN57_$LT$T$u20$as$u20$pyo3..conversion..FromPyObjectBound$GT$20from_py_object_bound17h909fb0ca804a6e30E', symObjAddr: 0x0, symBinAddr: 0x3DB28, symSize: 0x34 }
  - { offset: 0x115ED4, size: 0x8, addend: 0x0, symName: '__ZN4pyo311conversions3std3map165_$LT$impl$u20$pyo3..conversion..IntoPy$LT$pyo3..instance..Py$LT$pyo3..types..any..PyAny$GT$$GT$$u20$for$u20$std..collections..hash..map..HashMap$LT$K$C$V$C$H$GT$$GT$7into_py28_$u7b$$u7b$closure$u7d$$u7d$17h673e7b00e988470eE', symObjAddr: 0x0, symBinAddr: 0x3DB5C, symSize: 0xE8 }
  - { offset: 0x117121, size: 0x8, addend: 0x0, symName: '__ZN4pyo311conversions3std3map165_$LT$impl$u20$pyo3..conversion..IntoPy$LT$pyo3..instance..Py$LT$pyo3..types..any..PyAny$GT$$GT$$u20$for$u20$std..collections..hash..map..HashMap$LT$K$C$V$C$H$GT$$GT$7into_py28_$u7b$$u7b$closure$u7d$$u7d$17h673e7b00e988470eE', symObjAddr: 0x0, symBinAddr: 0x3DB5C, symSize: 0xE8 }
  - { offset: 0x1178CD, size: 0x8, addend: 0x0, symName: '__ZN5alloc7raw_vec19RawVec$LT$T$C$A$GT$8grow_one17h2b1ec1f322661523E', symObjAddr: 0x0, symBinAddr: 0x3DC44, symSize: 0x84 }
  - { offset: 0x1181AD, size: 0x8, addend: 0x0, symName: '__ZN5alloc7raw_vec19RawVec$LT$T$C$A$GT$8grow_one17h2b1ec1f322661523E', symObjAddr: 0x0, symBinAddr: 0x3DC44, symSize: 0x84 }
  - { offset: 0x11827B, size: 0x8, addend: 0x0, symName: '__ZN5alloc7raw_vec19RawVec$LT$T$C$A$GT$8grow_one17h3fbe1161ded65a4eE', symObjAddr: 0x84, symBinAddr: 0x3DCC8, symSize: 0x88 }
  - { offset: 0x118349, size: 0x8, addend: 0x0, symName: '__ZN5alloc7raw_vec19RawVec$LT$T$C$A$GT$8grow_one17h43545086d3ffcf78E', symObjAddr: 0x10C, symBinAddr: 0x3DD50, symSize: 0x88 }
  - { offset: 0x118400, size: 0x8, addend: 0x0, symName: '__ZN5alloc7raw_vec19RawVec$LT$T$C$A$GT$8grow_one17h5416e97ae7c2ca34E', symObjAddr: 0x194, symBinAddr: 0x3DDD8, symSize: 0x84 }
  - { offset: 0x1184B0, size: 0x8, addend: 0x0, symName: '__ZN5alloc7raw_vec19RawVec$LT$T$C$A$GT$8grow_one17h54a43968b74a0f77E', symObjAddr: 0x218, symBinAddr: 0x3DE5C, symSize: 0x88 }
  - { offset: 0x1185B1, size: 0x8, addend: 0x0, symName: '__ZN5alloc7raw_vec19RawVec$LT$T$C$A$GT$8grow_one17h61715fb9c5c69d99E', symObjAddr: 0x2A0, symBinAddr: 0x3DEE4, symSize: 0x88 }
  - { offset: 0x11867F, size: 0x8, addend: 0x0, symName: '__ZN5alloc7raw_vec19RawVec$LT$T$C$A$GT$8grow_one17h630e411ca613bf85E', symObjAddr: 0x328, symBinAddr: 0x3DF6C, symSize: 0x88 }
  - { offset: 0x118756, size: 0x8, addend: 0x0, symName: '__ZN5alloc7raw_vec19RawVec$LT$T$C$A$GT$8grow_one17hd65d83624ea2ffbaE', symObjAddr: 0x3B0, symBinAddr: 0x3DFF4, symSize: 0x88 }
  - { offset: 0x1187DF, size: 0x8, addend: 0x0, symName: '__ZN4pyo311conversions3std6string125_$LT$impl$u20$pyo3..conversion..IntoPy$LT$pyo3..instance..Py$LT$pyo3..types..string..PyString$GT$$GT$$u20$for$u20$$RF$str$GT$7into_py17h960cf20e5cf898cdE', symObjAddr: 0x0, symBinAddr: 0x3E07C, symSize: 0x34 }
  - { offset: 0x1199A6, size: 0x8, addend: 0x0, symName: '__ZN4pyo311conversions3std6string125_$LT$impl$u20$pyo3..conversion..IntoPy$LT$pyo3..instance..Py$LT$pyo3..types..string..PyString$GT$$GT$$u20$for$u20$$RF$str$GT$7into_py17h960cf20e5cf898cdE', symObjAddr: 0x0, symBinAddr: 0x3E07C, symSize: 0x34 }
  - { offset: 0x119FA7, size: 0x8, addend: 0x0, symName: __ZN5alloc5alloc15exchange_malloc17hd3c9388397c4c0ceE, symObjAddr: 0x0, symBinAddr: 0x3E0B0, symSize: 0xB0 }
  - { offset: 0x11AC0D, size: 0x8, addend: 0x0, symName: '__ZN63_$LT$alloc..alloc..Global$u20$as$u20$core..alloc..Allocator$GT$10deallocate17h5bc90995d0b83654E', symObjAddr: 0x548, symBinAddr: 0x3E5F8, symSize: 0x58 }
  - { offset: 0x11AD7B, size: 0x8, addend: 0x0, symName: __ZN5alloc5alloc15exchange_malloc17hd3c9388397c4c0ceE, symObjAddr: 0x0, symBinAddr: 0x3E0B0, symSize: 0xB0 }
  - { offset: 0x11B12A, size: 0x8, addend: 0x0, symName: __ZN5alloc5alloc6Global18alloc_impl_runtime17hfb3a12d487601eaeE, symObjAddr: 0xB0, symBinAddr: 0x3E160, symSize: 0x194 }
  - { offset: 0x11B665, size: 0x8, addend: 0x0, symName: __ZN5alloc5alloc6Global19shrink_impl_runtime17hcaff43a7c57ea5d9E, symObjAddr: 0x244, symBinAddr: 0x3E2F4, symSize: 0x304 }
  - { offset: 0x11BD78, size: 0x8, addend: 0x0, symName: '__ZN48_$LT$f32$u20$as$u20$num_traits..float..Float$GT$9is_finite17hc94c19c6dbb538bcE', symObjAddr: 0x0, symBinAddr: 0x3E650, symSize: 0x20 }
  - { offset: 0x11BD94, size: 0x8, addend: 0x0, symName: '__ZN48_$LT$f32$u20$as$u20$num_traits..float..Float$GT$9is_finite17hc94c19c6dbb538bcE', symObjAddr: 0x0, symBinAddr: 0x3E650, symSize: 0x20 }
  - { offset: 0x11BDC6, size: 0x8, addend: 0x0, symName: '__ZN52_$LT$f32$u20$as$u20$num_traits..float..FloatCore$GT$6is_nan17ha661112d992cec7dE', symObjAddr: 0x20, symBinAddr: 0x3E670, symSize: 0x20 }
  - { offset: 0x11BE21, size: 0x8, addend: 0x0, symName: '__ZN54_$LT$f32$u20$as$u20$core..iter..traits..accum..Sum$GT$3sum17hd40bca5700040ecaE', symObjAddr: 0x0, symBinAddr: 0x3E690, symSize: 0x18 }
  - { offset: 0x11BE47, size: 0x8, addend: 0x0, symName: '__ZN54_$LT$f32$u20$as$u20$core..iter..traits..accum..Sum$GT$3sum17hd40bca5700040ecaE', symObjAddr: 0x0, symBinAddr: 0x3E690, symSize: 0x18 }
  - { offset: 0x11BE82, size: 0x8, addend: 0x0, symName: '__ZN54_$LT$f32$u20$as$u20$core..iter..traits..accum..Sum$GT$3sum28_$u7b$$u7b$closure$u7d$$u7d$17h5733ed280a665099E', symObjAddr: 0x18, symBinAddr: 0x3E6A8, symSize: 0x1C }
  - { offset: 0x11BEDD, size: 0x8, addend: 0x0, symName: '__ZN56_$LT$usize$u20$as$u20$core..iter..traits..accum..Sum$GT$3sum17h55e66f6edc833b57E', symObjAddr: 0x34, symBinAddr: 0x3E6C4, symSize: 0x30 }
  - { offset: 0x11BF12, size: 0x8, addend: 0x0, symName: '__ZN56_$LT$usize$u20$as$u20$core..iter..traits..accum..Sum$GT$3sum17h8c7cee8ec038b35eE', symObjAddr: 0x64, symBinAddr: 0x3E6F4, symSize: 0x18 }
  - { offset: 0x11BF4D, size: 0x8, addend: 0x0, symName: '__ZN56_$LT$usize$u20$as$u20$core..iter..traits..accum..Sum$GT$3sum28_$u7b$$u7b$closure$u7d$$u7d$17h1b00cc207f28a4d4E', symObjAddr: 0x7C, symBinAddr: 0x3E70C, symSize: 0x48 }
  - { offset: 0x11BF9A, size: 0x8, addend: 0x0, symName: '__ZN56_$LT$usize$u20$as$u20$core..iter..traits..accum..Sum$GT$3sum28_$u7b$$u7b$closure$u7d$$u7d$17hb93ffefdbd1ea82fE', symObjAddr: 0xC4, symBinAddr: 0x3E754, symSize: 0x48 }
  - { offset: 0x11BFE7, size: 0x8, addend: 0x0, symName: '__ZN56_$LT$usize$u20$as$u20$core..iter..traits..accum..Sum$GT$3sum28_$u7b$$u7b$closure$u7d$$u7d$17hfd40d52af4326d5bE', symObjAddr: 0x10C, symBinAddr: 0x3E79C, symSize: 0x48 }
  - { offset: 0x11C050, size: 0x8, addend: 0x0, symName: '__ZN69_$LT$f32$u20$as$u20$core..iter..traits..accum..Sum$LT$$RF$f32$GT$$GT$3sum17h307010c55c173070E', symObjAddr: 0x154, symBinAddr: 0x3E7E4, symSize: 0x30 }
  - { offset: 0x11C08A, size: 0x8, addend: 0x0, symName: '__ZN69_$LT$f32$u20$as$u20$core..iter..traits..accum..Sum$LT$$RF$f32$GT$$GT$3sum28_$u7b$$u7b$closure$u7d$$u7d$17hd7c6c86eac91ea13E', symObjAddr: 0x184, symBinAddr: 0x3E814, symSize: 0x24 }
  - { offset: 0x11C116, size: 0x8, addend: 0x0, symName: '__ZN69_$LT$u32$u20$as$u20$core..iter..traits..accum..Sum$LT$$RF$u32$GT$$GT$3sum17h4ae4292cad290665E', symObjAddr: 0x1A8, symBinAddr: 0x3E838, symSize: 0x30 }
  - { offset: 0x11C150, size: 0x8, addend: 0x0, symName: '__ZN69_$LT$u32$u20$as$u20$core..iter..traits..accum..Sum$LT$$RF$u32$GT$$GT$3sum28_$u7b$$u7b$closure$u7d$$u7d$17hb388216ceaf95c42E', symObjAddr: 0x1D8, symBinAddr: 0x3E868, symSize: 0x54 }
  - { offset: 0x11CB1D, size: 0x8, addend: 0x0, symName: __ZN4core4hint16assert_unchecked18precondition_check17hbad8abac24ab5868E, symObjAddr: 0x0, symBinAddr: 0x3E8BC, symSize: 0x58 }
  - { offset: 0x11CB39, size: 0x8, addend: 0x0, symName: __ZN4core4hint16assert_unchecked18precondition_check17hbad8abac24ab5868E, symObjAddr: 0x0, symBinAddr: 0x3E8BC, symSize: 0x58 }
  - { offset: 0x11CB84, size: 0x8, addend: 0x0, symName: __ZN4core4hint21unreachable_unchecked18precondition_check17h742c40b3b513926aE, symObjAddr: 0x58, symBinAddr: 0x3E914, symSize: 0x3C }
  - { offset: 0x11CC18, size: 0x8, addend: 0x0, symName: '__ZN111_$LT$alloc..vec..Vec$LT$T$GT$$u20$as$u20$alloc..vec..spec_from_iter_nested..SpecFromIterNested$LT$T$C$I$GT$$GT$9from_iter17h4345a26146c791ebE', symObjAddr: 0x0, symBinAddr: 0x3E950, symSize: 0x148 }
  - { offset: 0x11F9D5, size: 0x8, addend: 0x0, symName: '__ZN4core5slice29_$LT$impl$u20$$u5b$T$u5d$$GT$4iter17h2f2e08cf9403ddf8E', symObjAddr: 0x344, symBinAddr: 0x3EC94, symSize: 0x28 }
  - { offset: 0x120722, size: 0x8, addend: 0x0, symName: '__ZN111_$LT$alloc..vec..Vec$LT$T$GT$$u20$as$u20$alloc..vec..spec_from_iter_nested..SpecFromIterNested$LT$T$C$I$GT$$GT$9from_iter17h4345a26146c791ebE', symObjAddr: 0x0, symBinAddr: 0x3E950, symSize: 0x148 }
  - { offset: 0x1207E4, size: 0x8, addend: 0x0, symName: '__ZN111_$LT$alloc..vec..Vec$LT$T$GT$$u20$as$u20$alloc..vec..spec_from_iter_nested..SpecFromIterNested$LT$T$C$I$GT$$GT$9from_iter17h701cb6b9170ae5b3E', symObjAddr: 0x148, symBinAddr: 0x3EA98, symSize: 0x148 }
  - { offset: 0x120A2C, size: 0x8, addend: 0x0, symName: '__ZN132_$LT$alloc..vec..Vec$LT$T$C$A$GT$$u20$as$u20$alloc..vec..spec_extend..SpecExtend$LT$$RF$T$C$core..slice..iter..Iter$LT$T$GT$$GT$$GT$11spec_extend17hea0b29256fbf2e4fE', symObjAddr: 0x290, symBinAddr: 0x3EBE0, symSize: 0xB4 }
  - { offset: 0x120C12, size: 0x8, addend: 0x0, symName: '__ZN97_$LT$alloc..vec..Vec$LT$T$C$A$GT$$u20$as$u20$alloc..vec..spec_extend..SpecExtend$LT$T$C$I$GT$$GT$11spec_extend17h6b4d483086934071E', symObjAddr: 0x32BC, symBinAddr: 0x41C0C, symSize: 0x24 }
  - { offset: 0x120C64, size: 0x8, addend: 0x0, symName: '__ZN97_$LT$alloc..vec..Vec$LT$T$C$A$GT$$u20$as$u20$alloc..vec..spec_extend..SpecExtend$LT$T$C$I$GT$$GT$11spec_extend17h91a0055a2d88fcdeE', symObjAddr: 0x32E0, symBinAddr: 0x41C30, symSize: 0x24 }
  - { offset: 0x120CB6, size: 0x8, addend: 0x0, symName: '__ZN97_$LT$alloc..vec..Vec$LT$T$C$A$GT$$u20$as$u20$alloc..vec..spec_extend..SpecExtend$LT$T$C$I$GT$$GT$11spec_extend17hce92097b98b470daE', symObjAddr: 0x3304, symBinAddr: 0x41C54, symSize: 0x24 }
  - { offset: 0x120D3F, size: 0x8, addend: 0x0, symName: '__ZN72_$LT$alloc..vec..Vec$LT$T$C$A$GT$$u20$as$u20$core..ops..deref..Deref$GT$5deref17h066df471e3348855E', symObjAddr: 0x281C, symBinAddr: 0x4116C, symSize: 0x20 }
  - { offset: 0x120DFC, size: 0x8, addend: 0x0, symName: '__ZN72_$LT$alloc..vec..Vec$LT$T$C$A$GT$$u20$as$u20$core..ops..deref..Deref$GT$5deref17h6be492667f9d3c18E', symObjAddr: 0x283C, symBinAddr: 0x4118C, symSize: 0x20 }
  - { offset: 0x120EB9, size: 0x8, addend: 0x0, symName: '__ZN72_$LT$alloc..vec..Vec$LT$T$C$A$GT$$u20$as$u20$core..ops..deref..Deref$GT$5deref17hf1f5206a004e2080E', symObjAddr: 0x285C, symBinAddr: 0x411AC, symSize: 0x20 }
  - { offset: 0x121142, size: 0x8, addend: 0x0, symName: '__ZN81_$LT$alloc..vec..Vec$LT$T$C$A$GT$$u20$as$u20$core..ops..index..Index$LT$I$GT$$GT$5index17h22936414857df878E', symObjAddr: 0x28BC, symBinAddr: 0x4120C, symSize: 0x44 }
  - { offset: 0x12125B, size: 0x8, addend: 0x0, symName: '__ZN81_$LT$alloc..vec..Vec$LT$T$C$A$GT$$u20$as$u20$core..ops..index..Index$LT$I$GT$$GT$5index17h721bceb789a9fc85E', symObjAddr: 0x2900, symBinAddr: 0x41250, symSize: 0xD0 }
  - { offset: 0x1213F6, size: 0x8, addend: 0x0, symName: '__ZN81_$LT$alloc..vec..Vec$LT$T$C$A$GT$$u20$as$u20$core..ops..index..Index$LT$I$GT$$GT$5index17h7b7464cae0d0d2deE', symObjAddr: 0x29D0, symBinAddr: 0x41320, symSize: 0x44 }
  - { offset: 0x12150F, size: 0x8, addend: 0x0, symName: '__ZN81_$LT$alloc..vec..Vec$LT$T$C$A$GT$$u20$as$u20$core..ops..index..Index$LT$I$GT$$GT$5index17hb71d471481808c3fE', symObjAddr: 0x2A14, symBinAddr: 0x41364, symSize: 0x44 }
  - { offset: 0x121628, size: 0x8, addend: 0x0, symName: '__ZN81_$LT$alloc..vec..Vec$LT$T$C$A$GT$$u20$as$u20$core..ops..index..Index$LT$I$GT$$GT$5index17hea2aed0e945e5f96E', symObjAddr: 0x2A58, symBinAddr: 0x413A8, symSize: 0xD0 }
  - { offset: 0x1217CE, size: 0x8, addend: 0x0, symName: '__ZN5alloc3vec10partial_eq117_$LT$impl$u20$core..cmp..PartialEq$LT$alloc..vec..Vec$LT$U$C$A2$GT$$GT$$u20$for$u20$alloc..vec..Vec$LT$T$C$A1$GT$$GT$2eq17hc393761ee857f521E', symObjAddr: 0x904, symBinAddr: 0x3F254, symSize: 0x54 }
  - { offset: 0x1225F0, size: 0x8, addend: 0x0, symName: '__ZN5alloc3vec16Vec$LT$T$C$A$GT$14extend_trusted28_$u7b$$u7b$closure$u7d$$u7d$17h4c4e0770092ce5a7E', symObjAddr: 0xFF4, symBinAddr: 0x3F944, symSize: 0x3C }
  - { offset: 0x1226A5, size: 0x8, addend: 0x0, symName: '__ZN5alloc3vec16Vec$LT$T$C$A$GT$14extend_trusted28_$u7b$$u7b$closure$u7d$$u7d$17h56b69e251658627aE', symObjAddr: 0x1030, symBinAddr: 0x3F980, symSize: 0x3C }
  - { offset: 0x122762, size: 0x8, addend: 0x0, symName: '__ZN5alloc3vec16Vec$LT$T$C$A$GT$14extend_trusted28_$u7b$$u7b$closure$u7d$$u7d$17haedf5f4e1b90b299E', symObjAddr: 0x106C, symBinAddr: 0x3F9BC, symSize: 0x54 }
  - { offset: 0x12293C, size: 0x8, addend: 0x0, symName: '__ZN5alloc3vec16in_place_collect108_$LT$impl$u20$alloc..vec..spec_from_iter..SpecFromIter$LT$T$C$I$GT$$u20$for$u20$alloc..vec..Vec$LT$T$GT$$GT$9from_iter17h31478ac27e517ff2E', symObjAddr: 0x221C, symBinAddr: 0x40B6C, symSize: 0x28 }
  - { offset: 0x122998, size: 0x8, addend: 0x0, symName: '__ZN5alloc3vec16in_place_collect108_$LT$impl$u20$alloc..vec..spec_from_iter..SpecFromIter$LT$T$C$I$GT$$u20$for$u20$alloc..vec..Vec$LT$T$GT$$GT$9from_iter17h3668ed25f35d8eb7E', symObjAddr: 0x2244, symBinAddr: 0x40B94, symSize: 0x28 }
  - { offset: 0x1229F4, size: 0x8, addend: 0x0, symName: '__ZN5alloc3vec16in_place_collect108_$LT$impl$u20$alloc..vec..spec_from_iter..SpecFromIter$LT$T$C$I$GT$$u20$for$u20$alloc..vec..Vec$LT$T$GT$$GT$9from_iter17h46a8cbf32711a441E', symObjAddr: 0x226C, symBinAddr: 0x40BBC, symSize: 0x28 }
  - { offset: 0x122A50, size: 0x8, addend: 0x0, symName: '__ZN5alloc3vec16in_place_collect108_$LT$impl$u20$alloc..vec..spec_from_iter..SpecFromIter$LT$T$C$I$GT$$u20$for$u20$alloc..vec..Vec$LT$T$GT$$GT$9from_iter17h68fa3004bda885b1E', symObjAddr: 0x2294, symBinAddr: 0x40BE4, symSize: 0x28 }
  - { offset: 0x122AAC, size: 0x8, addend: 0x0, symName: '__ZN5alloc3vec16in_place_collect108_$LT$impl$u20$alloc..vec..spec_from_iter..SpecFromIter$LT$T$C$I$GT$$u20$for$u20$alloc..vec..Vec$LT$T$GT$$GT$9from_iter17hfee02ea2af9fa258E', symObjAddr: 0x22BC, symBinAddr: 0x40C0C, symSize: 0x28 }
  - { offset: 0x122C7E, size: 0x8, addend: 0x0, symName: '__ZN67_$LT$alloc..vec..Vec$LT$T$GT$$u20$as$u20$core..default..Default$GT$7default17h7415dda562925c24E', symObjAddr: 0x27B8, symBinAddr: 0x41108, symSize: 0x14 }
  - { offset: 0x122CA0, size: 0x8, addend: 0x0, symName: '__ZN67_$LT$alloc..vec..Vec$LT$T$GT$$u20$as$u20$core..default..Default$GT$7default17h7415dda562925c24E', symObjAddr: 0x27B8, symBinAddr: 0x41108, symSize: 0x14 }
  - { offset: 0x122CC1, size: 0x8, addend: 0x0, symName: '__ZN75_$LT$alloc..vec..Vec$LT$T$C$A$GT$$u20$as$u20$core..ops..deref..DerefMut$GT$9deref_mut17ha59500c427043a8cE', symObjAddr: 0x287C, symBinAddr: 0x411CC, symSize: 0x20 }
  - { offset: 0x122D7E, size: 0x8, addend: 0x0, symName: '__ZN75_$LT$alloc..vec..Vec$LT$T$C$A$GT$$u20$as$u20$core..ops..deref..DerefMut$GT$9deref_mut17hcf15644cbb3ac960E', symObjAddr: 0x289C, symBinAddr: 0x411EC, symSize: 0x20 }
  - { offset: 0x122EA1, size: 0x8, addend: 0x0, symName: '__ZN84_$LT$alloc..vec..Vec$LT$T$C$A$GT$$u20$as$u20$core..ops..index..IndexMut$LT$I$GT$$GT$9index_mut17h4323b625ebf08874E', symObjAddr: 0x2B28, symBinAddr: 0x41478, symSize: 0x44 }
  - { offset: 0x122FBA, size: 0x8, addend: 0x0, symName: '__ZN84_$LT$alloc..vec..Vec$LT$T$C$A$GT$$u20$as$u20$core..ops..index..IndexMut$LT$I$GT$$GT$9index_mut17hf8d1e3fbac96433fE', symObjAddr: 0x2B6C, symBinAddr: 0x414BC, symSize: 0x44 }
  - { offset: 0x1230D9, size: 0x8, addend: 0x0, symName: '__ZN90_$LT$alloc..vec..Vec$LT$T$C$A$GT$$u20$as$u20$core..iter..traits..collect..IntoIterator$GT$9into_iter17h137d697f11155b5fE', symObjAddr: 0x2BB0, symBinAddr: 0x41500, symSize: 0xB0 }
  - { offset: 0x1232D0, size: 0x8, addend: 0x0, symName: '__ZN90_$LT$alloc..vec..Vec$LT$T$C$A$GT$$u20$as$u20$core..iter..traits..collect..IntoIterator$GT$9into_iter17h14f5c73c3e7be665E', symObjAddr: 0x2C60, symBinAddr: 0x415B0, symSize: 0xA8 }
  - { offset: 0x1234C7, size: 0x8, addend: 0x0, symName: '__ZN90_$LT$alloc..vec..Vec$LT$T$C$A$GT$$u20$as$u20$core..iter..traits..collect..IntoIterator$GT$9into_iter17h4cac3edbef9dff8dE', symObjAddr: 0x2D08, symBinAddr: 0x41658, symSize: 0xB0 }
  - { offset: 0x1236BE, size: 0x8, addend: 0x0, symName: '__ZN90_$LT$alloc..vec..Vec$LT$T$C$A$GT$$u20$as$u20$core..iter..traits..collect..IntoIterator$GT$9into_iter17h6d73082ff71b7b61E', symObjAddr: 0x2DB8, symBinAddr: 0x41708, symSize: 0xA8 }
  - { offset: 0x1238B5, size: 0x8, addend: 0x0, symName: '__ZN90_$LT$alloc..vec..Vec$LT$T$C$A$GT$$u20$as$u20$core..iter..traits..collect..IntoIterator$GT$9into_iter17h80e0382b90557ac3E', symObjAddr: 0x2E60, symBinAddr: 0x417B0, symSize: 0xA8 }
  - { offset: 0x123AAC, size: 0x8, addend: 0x0, symName: '__ZN90_$LT$alloc..vec..Vec$LT$T$C$A$GT$$u20$as$u20$core..iter..traits..collect..IntoIterator$GT$9into_iter17heb38979f9c3efddbE', symObjAddr: 0x2F08, symBinAddr: 0x41858, symSize: 0xA8 }
  - { offset: 0x123CA3, size: 0x8, addend: 0x0, symName: '__ZN90_$LT$alloc..vec..Vec$LT$T$C$A$GT$$u20$as$u20$core..iter..traits..collect..IntoIterator$GT$9into_iter17hfa5eacfda6f53828E', symObjAddr: 0x2FB0, symBinAddr: 0x41900, symSize: 0xA8 }
  - { offset: 0x123EA0, size: 0x8, addend: 0x0, symName: '__ZN93_$LT$alloc..vec..Vec$LT$T$C$A$GT$$u20$as$u20$core..iter..traits..collect..Extend$LT$T$GT$$GT$6extend17h48af62b3e40bf0dcE', symObjAddr: 0x3058, symBinAddr: 0x419A8, symSize: 0x40 }
  - { offset: 0x123EFB, size: 0x8, addend: 0x0, symName: '__ZN94_$LT$$RF$alloc..vec..Vec$LT$T$C$A$GT$$u20$as$u20$core..iter..traits..collect..IntoIterator$GT$9into_iter17h41ef864252d94a50E', symObjAddr: 0x3098, symBinAddr: 0x419E8, symSize: 0x60 }
  - { offset: 0x1240E0, size: 0x8, addend: 0x0, symName: '__ZN94_$LT$$RF$alloc..vec..Vec$LT$T$C$A$GT$$u20$as$u20$core..iter..traits..collect..IntoIterator$GT$9into_iter17h43e7ce68ef002dd0E', symObjAddr: 0x30F8, symBinAddr: 0x41A48, symSize: 0x60 }
  - { offset: 0x1242C5, size: 0x8, addend: 0x0, symName: '__ZN94_$LT$$RF$alloc..vec..Vec$LT$T$C$A$GT$$u20$as$u20$core..iter..traits..collect..IntoIterator$GT$9into_iter17h96ede0ba5dd32223E', symObjAddr: 0x3158, symBinAddr: 0x41AA8, symSize: 0x60 }
  - { offset: 0x1244B0, size: 0x8, addend: 0x0, symName: '__ZN95_$LT$alloc..vec..Vec$LT$T$GT$$u20$as$u20$core..iter..traits..collect..FromIterator$LT$T$GT$$GT$9from_iter17h27064d37af90b81dE', symObjAddr: 0x31B8, symBinAddr: 0x41B08, symSize: 0x34 }
  - { offset: 0x1244F1, size: 0x8, addend: 0x0, symName: '__ZN95_$LT$alloc..vec..Vec$LT$T$GT$$u20$as$u20$core..iter..traits..collect..FromIterator$LT$T$GT$$GT$9from_iter17h3a40c1eb7a9f92f8E', symObjAddr: 0x31EC, symBinAddr: 0x41B3C, symSize: 0x34 }
  - { offset: 0x124532, size: 0x8, addend: 0x0, symName: '__ZN95_$LT$alloc..vec..Vec$LT$T$GT$$u20$as$u20$core..iter..traits..collect..FromIterator$LT$T$GT$$GT$9from_iter17h4d50113db22dc80dE', symObjAddr: 0x3220, symBinAddr: 0x41B70, symSize: 0x34 }
  - { offset: 0x124573, size: 0x8, addend: 0x0, symName: '__ZN95_$LT$alloc..vec..Vec$LT$T$GT$$u20$as$u20$core..iter..traits..collect..FromIterator$LT$T$GT$$GT$9from_iter17hbf919780f3cf93b5E', symObjAddr: 0x3254, symBinAddr: 0x41BA4, symSize: 0x34 }
  - { offset: 0x1245B4, size: 0x8, addend: 0x0, symName: '__ZN95_$LT$alloc..vec..Vec$LT$T$GT$$u20$as$u20$core..iter..traits..collect..FromIterator$LT$T$GT$$GT$9from_iter17hf1384ed97c9ac4b1E', symObjAddr: 0x3288, symBinAddr: 0x41BD8, symSize: 0x34 }
  - { offset: 0x1254C4, size: 0x8, addend: 0x0, symName: '__ZN5alloc5slice99_$LT$impl$u20$core..slice..sort..stable..BufGuard$LT$T$GT$$u20$for$u20$alloc..vec..Vec$LT$T$GT$$GT$13with_capacity17h0b098ac8d5ff31e7E', symObjAddr: 0x22E4, symBinAddr: 0x40C34, symSize: 0x44 }
  - { offset: 0x125565, size: 0x8, addend: 0x0, symName: '__ZN5alloc5slice99_$LT$impl$u20$core..slice..sort..stable..BufGuard$LT$T$GT$$u20$for$u20$alloc..vec..Vec$LT$T$GT$$GT$13with_capacity17hd42ac94f7acf3397E', symObjAddr: 0x2328, symBinAddr: 0x40C78, symSize: 0x44 }
  - { offset: 0x125606, size: 0x8, addend: 0x0, symName: '__ZN5alloc5slice99_$LT$impl$u20$core..slice..sort..stable..BufGuard$LT$T$GT$$u20$for$u20$alloc..vec..Vec$LT$T$GT$$GT$19as_uninit_slice_mut17h062ff24298a1db02E', symObjAddr: 0x236C, symBinAddr: 0x40CBC, symSize: 0xC4 }
  - { offset: 0x12575D, size: 0x8, addend: 0x0, symName: '__ZN5alloc5slice99_$LT$impl$u20$core..slice..sort..stable..BufGuard$LT$T$GT$$u20$for$u20$alloc..vec..Vec$LT$T$GT$$GT$19as_uninit_slice_mut17h7fcd07526bcbfa12E', symObjAddr: 0x2430, symBinAddr: 0x40D80, symSize: 0xC4 }
  - { offset: 0x125A10, size: 0x8, addend: 0x0, symName: '__ZN4pyo311conversions3std3vec136_$LT$impl$u20$pyo3..conversion..IntoPy$LT$pyo3..instance..Py$LT$pyo3..types..any..PyAny$GT$$GT$$u20$for$u20$alloc..vec..Vec$LT$T$GT$$GT$7into_py17h296d42b1ae5e18c6E', symObjAddr: 0x36C, symBinAddr: 0x3ECBC, symSize: 0xC4 }
  - { offset: 0x125A91, size: 0x8, addend: 0x0, symName: '__ZN4pyo311conversions3std3vec136_$LT$impl$u20$pyo3..conversion..IntoPy$LT$pyo3..instance..Py$LT$pyo3..types..any..PyAny$GT$$GT$$u20$for$u20$alloc..vec..Vec$LT$T$GT$$GT$7into_py17h618a9c949c5a9f6fE', symObjAddr: 0x430, symBinAddr: 0x3ED80, symSize: 0xC4 }
  - { offset: 0x125B12, size: 0x8, addend: 0x0, symName: '__ZN4pyo311conversions3std3vec136_$LT$impl$u20$pyo3..conversion..IntoPy$LT$pyo3..instance..Py$LT$pyo3..types..any..PyAny$GT$$GT$$u20$for$u20$alloc..vec..Vec$LT$T$GT$$GT$7into_py17hc7f8d8a55388ae34E', symObjAddr: 0x4F4, symBinAddr: 0x3EE44, symSize: 0xC4 }
  - { offset: 0x125C24, size: 0x8, addend: 0x0, symName: '__ZN56_$LT$T$u20$as$u20$pyo3..impl_..wrap..OkWrap$LT$T$GT$$GT$4wrap17h700ddc8078ef1a39E', symObjAddr: 0x824, symBinAddr: 0x3F174, symSize: 0x14 }
  - { offset: 0x125C59, size: 0x8, addend: 0x0, symName: '__ZN56_$LT$T$u20$as$u20$pyo3..impl_..wrap..OkWrap$LT$T$GT$$GT$4wrap17hca472551cd883f15E', symObjAddr: 0x838, symBinAddr: 0x3F188, symSize: 0x18 }
  - { offset: 0x125C8E, size: 0x8, addend: 0x0, symName: '__ZN56_$LT$T$u20$as$u20$pyo3..impl_..wrap..OkWrap$LT$T$GT$$GT$4wrap17hf862d67c9e32a4f6E', symObjAddr: 0x850, symBinAddr: 0x3F1A0, symSize: 0x18 }
  - { offset: 0x125CCF, size: 0x8, addend: 0x0, symName: '__ZN71_$LT$T$u20$as$u20$pyo3..impl_..extract_argument..PyFunctionArgument$GT$7extract17hc9f5a5eb8c7cd4f4E', symObjAddr: 0x27CC, symBinAddr: 0x4111C, symSize: 0x28 }
  - { offset: 0x125D0E, size: 0x8, addend: 0x0, symName: '__ZN71_$LT$T$u20$as$u20$pyo3..impl_..extract_argument..PyFunctionArgument$GT$7extract17hf9f123d73056fc8cE', symObjAddr: 0x27F4, symBinAddr: 0x41144, symSize: 0x28 }
  - { offset: 0x125D5F, size: 0x8, addend: 0x0, symName: '__ZN4pyo35types5tuple127_$LT$impl$u20$pyo3..conversion..IntoPy$LT$pyo3..instance..Py$LT$pyo3..types..any..PyAny$GT$$GT$$u20$for$u20$$LP$T0$C$T1$RP$$GT$7into_py17hd6ba4ac3c3cf42f5E', symObjAddr: 0x5B8, symBinAddr: 0x3EF08, symSize: 0xF8 }
  - { offset: 0x125DC7, size: 0x8, addend: 0x0, symName: '__ZN4pyo35types8sequence85_$LT$impl$u20$pyo3..conversion..FromPyObject$u20$for$u20$alloc..vec..Vec$LT$T$GT$$GT$13extract_bound17h1cd4d4752705da16E', symObjAddr: 0x6B0, symBinAddr: 0x3F000, symSize: 0x7C }
  - { offset: 0x125DFE, size: 0x8, addend: 0x0, symName: '__ZN4pyo35types8sequence85_$LT$impl$u20$pyo3..conversion..FromPyObject$u20$for$u20$alloc..vec..Vec$LT$T$GT$$GT$13extract_bound17h61b428cfc7cd3c86E', symObjAddr: 0x72C, symBinAddr: 0x3F07C, symSize: 0x7C }
  - { offset: 0x125E35, size: 0x8, addend: 0x0, symName: '__ZN4pyo35types8sequence85_$LT$impl$u20$pyo3..conversion..FromPyObject$u20$for$u20$alloc..vec..Vec$LT$T$GT$$GT$13extract_bound17hbd9972e56bee1d42E', symObjAddr: 0x7A8, symBinAddr: 0x3F0F8, symSize: 0x7C }
  - { offset: 0x125EE5, size: 0x8, addend: 0x0, symName: '__ZN57_$LT$T$u20$as$u20$pyo3..conversion..FromPyObjectBound$GT$20from_py_object_bound17h0694325ebff7418bE', symObjAddr: 0x868, symBinAddr: 0x3F1B8, symSize: 0x34 }
  - { offset: 0x125F1C, size: 0x8, addend: 0x0, symName: '__ZN57_$LT$T$u20$as$u20$pyo3..conversion..FromPyObjectBound$GT$20from_py_object_bound17h2cdee22e806d7f64E', symObjAddr: 0x89C, symBinAddr: 0x3F1EC, symSize: 0x34 }
  - { offset: 0x125F53, size: 0x8, addend: 0x0, symName: '__ZN57_$LT$T$u20$as$u20$pyo3..conversion..FromPyObjectBound$GT$20from_py_object_bound17h5d509d29353e7719E', symObjAddr: 0x8D0, symBinAddr: 0x3F220, symSize: 0x34 }
  - { offset: 0x126DB7, size: 0x8, addend: 0x0, symName: '__ZN5alloc3vec12Vec$LT$T$GT$13with_capacity17h571ed977510f582eE', symObjAddr: 0x958, symBinAddr: 0x3F2A8, symSize: 0x40 }
  - { offset: 0x126E91, size: 0x8, addend: 0x0, symName: '__ZN5alloc3vec12Vec$LT$T$GT$13with_capacity17hcb9098747bdb74eeE', symObjAddr: 0x998, symBinAddr: 0x3F2E8, symSize: 0x44 }
  - { offset: 0x1271D0, size: 0x8, addend: 0x0, symName: '__ZN5alloc3vec12Vec$LT$T$GT$3new17h02bd76c726331a1fE', symObjAddr: 0x9DC, symBinAddr: 0x3F32C, symSize: 0x14 }
  - { offset: 0x1271ED, size: 0x8, addend: 0x0, symName: '__ZN5alloc3vec12Vec$LT$T$GT$3new17h416fd0d683642b74E', symObjAddr: 0x9F0, symBinAddr: 0x3F340, symSize: 0x14 }
  - { offset: 0x12720A, size: 0x8, addend: 0x0, symName: '__ZN5alloc3vec12Vec$LT$T$GT$3new17h62bab364c0f8f1b5E', symObjAddr: 0xA04, symBinAddr: 0x3F354, symSize: 0x14 }
  - { offset: 0x127245, size: 0x8, addend: 0x0, symName: '__ZN5alloc3vec12Vec$LT$T$GT$3new17h83a11ec794114540E', symObjAddr: 0xA18, symBinAddr: 0x3F368, symSize: 0x14 }
  - { offset: 0x127262, size: 0x8, addend: 0x0, symName: '__ZN5alloc3vec12Vec$LT$T$GT$3new17h860bce30468afd7dE', symObjAddr: 0xA2C, symBinAddr: 0x3F37C, symSize: 0x14 }
  - { offset: 0x12727F, size: 0x8, addend: 0x0, symName: '__ZN5alloc3vec12Vec$LT$T$GT$3new17hc5e750764b6b8484E', symObjAddr: 0xA40, symBinAddr: 0x3F390, symSize: 0x14 }
  - { offset: 0x12729C, size: 0x8, addend: 0x0, symName: '__ZN5alloc3vec12Vec$LT$T$GT$3new17hf63a269b81b0969fE', symObjAddr: 0xA54, symBinAddr: 0x3F3A4, symSize: 0x14 }
  - { offset: 0x1272B9, size: 0x8, addend: 0x0, symName: '__ZN5alloc3vec12Vec$LT$T$GT$3new17hfe0fe6a058344849E', symObjAddr: 0xA68, symBinAddr: 0x3F3B8, symSize: 0x14 }
  - { offset: 0x127355, size: 0x8, addend: 0x0, symName: '__ZN5alloc3vec16Vec$LT$T$C$A$GT$10as_mut_ptr17hbd2a325e33187abbE', symObjAddr: 0xA7C, symBinAddr: 0x3F3CC, symSize: 0x18 }
  - { offset: 0x127567, size: 0x8, addend: 0x0, symName: '__ZN5alloc3vec16Vec$LT$T$C$A$GT$10try_remove17h98d1cd20c5a9bbedE', symObjAddr: 0xA94, symBinAddr: 0x3F3E4, symSize: 0x178 }
  - { offset: 0x127A16, size: 0x8, addend: 0x0, symName: '__ZN5alloc3vec16Vec$LT$T$C$A$GT$14extend_trusted17h2203b2b6b42cbcdeE', symObjAddr: 0xC0C, symBinAddr: 0x3F55C, symSize: 0x130 }
  - { offset: 0x127C87, size: 0x8, addend: 0x0, symName: '__ZN5alloc3vec16Vec$LT$T$C$A$GT$14extend_trusted17ha0172f82d2a3b178E', symObjAddr: 0xD3C, symBinAddr: 0x3F68C, symSize: 0x15C }
  - { offset: 0x127EBE, size: 0x8, addend: 0x0, symName: '__ZN5alloc3vec16Vec$LT$T$C$A$GT$14extend_trusted17hfd830a1918cad910E', symObjAddr: 0xE98, symBinAddr: 0x3F7E8, symSize: 0x15C }
  - { offset: 0x128139, size: 0x8, addend: 0x0, symName: '__ZN5alloc3vec16Vec$LT$T$C$A$GT$15append_elements17hb7f68eb462d6966dE', symObjAddr: 0x10C0, symBinAddr: 0x3FA10, symSize: 0xE4 }
  - { offset: 0x128397, size: 0x8, addend: 0x0, symName: '__ZN5alloc3vec16Vec$LT$T$C$A$GT$15append_elements17hdff95c84dacedb1cE', symObjAddr: 0x11A4, symBinAddr: 0x3FAF4, symSize: 0xD8 }
  - { offset: 0x1285CC, size: 0x8, addend: 0x0, symName: '__ZN5alloc3vec16Vec$LT$T$C$A$GT$17extend_from_slice17h832a273ac1e5e809E', symObjAddr: 0x127C, symBinAddr: 0x3FBCC, symSize: 0x6C }
  - { offset: 0x128716, size: 0x8, addend: 0x0, symName: '__ZN5alloc3vec16Vec$LT$T$C$A$GT$3len17h0fab6973cb2e4404E', symObjAddr: 0x12E8, symBinAddr: 0x3FC38, symSize: 0x18 }
  - { offset: 0x128758, size: 0x8, addend: 0x0, symName: '__ZN5alloc3vec16Vec$LT$T$C$A$GT$3len17h375a3c7ffaf98513E', symObjAddr: 0x1300, symBinAddr: 0x3FC50, symSize: 0x18 }
  - { offset: 0x12878D, size: 0x8, addend: 0x0, symName: '__ZN5alloc3vec16Vec$LT$T$C$A$GT$3len17h42ab5bf9a0883071E', symObjAddr: 0x1318, symBinAddr: 0x3FC68, symSize: 0x18 }
  - { offset: 0x1287CF, size: 0x8, addend: 0x0, symName: '__ZN5alloc3vec16Vec$LT$T$C$A$GT$3len17h7181d93a2c88ea66E', symObjAddr: 0x1330, symBinAddr: 0x3FC80, symSize: 0x18 }
  - { offset: 0x128811, size: 0x8, addend: 0x0, symName: '__ZN5alloc3vec16Vec$LT$T$C$A$GT$3len17hd471284a0e5cb628E', symObjAddr: 0x1348, symBinAddr: 0x3FC98, symSize: 0x18 }
  - { offset: 0x128846, size: 0x8, addend: 0x0, symName: '__ZN5alloc3vec16Vec$LT$T$C$A$GT$4push17h1159bfd0e4543b33E', symObjAddr: 0x1360, symBinAddr: 0x3FCB0, symSize: 0x24 }
  - { offset: 0x128898, size: 0x8, addend: 0x0, symName: '__ZN5alloc3vec16Vec$LT$T$C$A$GT$4push17h15d69b3a4415bb95E', symObjAddr: 0x1384, symBinAddr: 0x3FCD4, symSize: 0x24 }
  - { offset: 0x1288DD, size: 0x8, addend: 0x0, symName: '__ZN5alloc3vec16Vec$LT$T$C$A$GT$4push17h39f815fc75230c19E', symObjAddr: 0x13A8, symBinAddr: 0x3FCF8, symSize: 0x28 }
  - { offset: 0x12892E, size: 0x8, addend: 0x0, symName: '__ZN5alloc3vec16Vec$LT$T$C$A$GT$4push17h4cbf9ef66251eaa3E', symObjAddr: 0x13D0, symBinAddr: 0x3FD20, symSize: 0x24 }
  - { offset: 0x128980, size: 0x8, addend: 0x0, symName: '__ZN5alloc3vec16Vec$LT$T$C$A$GT$4push17h568fd2e95fa622adE', symObjAddr: 0x13F4, symBinAddr: 0x3FD44, symSize: 0x24 }
  - { offset: 0x1289D2, size: 0x8, addend: 0x0, symName: '__ZN5alloc3vec16Vec$LT$T$C$A$GT$4push17h6b09f535d8aa7a5dE', symObjAddr: 0x1418, symBinAddr: 0x3FD68, symSize: 0x30 }
  - { offset: 0x128A16, size: 0x8, addend: 0x0, symName: '__ZN5alloc3vec16Vec$LT$T$C$A$GT$4push17he819f7011d025f3cE', symObjAddr: 0x1448, symBinAddr: 0x3FD98, symSize: 0x28 }
  - { offset: 0x128BC4, size: 0x8, addend: 0x0, symName: '__ZN5alloc3vec16Vec$LT$T$C$A$GT$6append17hc2a840b5642728b7E', symObjAddr: 0x1470, symBinAddr: 0x3FDC0, symSize: 0x84 }
  - { offset: 0x128D46, size: 0x8, addend: 0x0, symName: '__ZN5alloc3vec16Vec$LT$T$C$A$GT$6as_ptr17h5c98ca0b9db625edE', symObjAddr: 0x14F4, symBinAddr: 0x3FE44, symSize: 0x18 }
  - { offset: 0x128E0C, size: 0x8, addend: 0x0, symName: '__ZN5alloc3vec16Vec$LT$T$C$A$GT$6remove17h96f733bdf37d8500E', symObjAddr: 0x150C, symBinAddr: 0x3FE5C, symSize: 0x6C }
  - { offset: 0x128F89, size: 0x8, addend: 0x0, symName: '__ZN5alloc3vec16Vec$LT$T$C$A$GT$6resize17h0c4894c6474a65bfE', symObjAddr: 0x1578, symBinAddr: 0x3FEC8, symSize: 0xF8 }
  - { offset: 0x129260, size: 0x8, addend: 0x0, symName: '__ZN5alloc3vec16Vec$LT$T$C$A$GT$7reserve17h9556414267cb2415E', symObjAddr: 0x1670, symBinAddr: 0x3FFC0, symSize: 0xA8 }
  - { offset: 0x1294C4, size: 0x8, addend: 0x0, symName: '__ZN5alloc3vec16Vec$LT$T$C$A$GT$7reserve17h9ece93128f66d885E', symObjAddr: 0x1718, symBinAddr: 0x40068, symSize: 0xA8 }
  - { offset: 0x129728, size: 0x8, addend: 0x0, symName: '__ZN5alloc3vec16Vec$LT$T$C$A$GT$7reserve17hc979eee482f88ddbE', symObjAddr: 0x17C0, symBinAddr: 0x40110, symSize: 0xA8 }
  - { offset: 0x12998C, size: 0x8, addend: 0x0, symName: '__ZN5alloc3vec16Vec$LT$T$C$A$GT$7reserve17hef00713704e78802E', symObjAddr: 0x1868, symBinAddr: 0x401B8, symSize: 0xA0 }
  - { offset: 0x129B5F, size: 0x8, addend: 0x0, symName: '__ZN5alloc3vec16Vec$LT$T$C$A$GT$7set_len17h8a6bf3fb6ee9a04bE', symObjAddr: 0x1908, symBinAddr: 0x40258, symSize: 0x70 }
  - { offset: 0x129C5B, size: 0x8, addend: 0x0, symName: '__ZN5alloc3vec16Vec$LT$T$C$A$GT$8capacity17he2ec2bd497f43abdE', symObjAddr: 0x1978, symBinAddr: 0x402C8, symSize: 0x38 }
  - { offset: 0x129D0F, size: 0x8, addend: 0x0, symName: '__ZN5alloc3vec16Vec$LT$T$C$A$GT$8is_empty17h9b5f63445661e096E', symObjAddr: 0x19B0, symBinAddr: 0x40300, symSize: 0x20 }
  - { offset: 0x129D87, size: 0x8, addend: 0x0, symName: '__ZN5alloc3vec16Vec$LT$T$C$A$GT$8is_empty17hce8c8aaa0fe3c7b3E', symObjAddr: 0x19D0, symBinAddr: 0x40320, symSize: 0x20 }
  - { offset: 0x129E0C, size: 0x8, addend: 0x0, symName: '__ZN5alloc3vec16Vec$LT$T$C$A$GT$8is_empty17hcfee76c7ee342e8cE', symObjAddr: 0x19F0, symBinAddr: 0x40340, symSize: 0x20 }
  - { offset: 0x129FC2, size: 0x8, addend: 0x0, symName: '__ZN5alloc3vec16Vec$LT$T$C$A$GT$8push_mut17h0929d9810e235deaE', symObjAddr: 0x1A10, symBinAddr: 0x40360, symSize: 0xDC }
  - { offset: 0x12A259, size: 0x8, addend: 0x0, symName: '__ZN5alloc3vec16Vec$LT$T$C$A$GT$8push_mut17h153028f06b7bf2b9E', symObjAddr: 0x1AEC, symBinAddr: 0x4043C, symSize: 0xF4 }
  - { offset: 0x12A4FF, size: 0x8, addend: 0x0, symName: '__ZN5alloc3vec16Vec$LT$T$C$A$GT$8push_mut17h192c1b8be09185b8E', symObjAddr: 0x1BE0, symBinAddr: 0x40530, symSize: 0xDC }
  - { offset: 0x12A796, size: 0x8, addend: 0x0, symName: '__ZN5alloc3vec16Vec$LT$T$C$A$GT$8push_mut17h2fae591900c6200cE', symObjAddr: 0x1CBC, symBinAddr: 0x4060C, symSize: 0xE0 }
  - { offset: 0x12AA06, size: 0x8, addend: 0x0, symName: '__ZN5alloc3vec16Vec$LT$T$C$A$GT$8push_mut17h5b239c8e3bf3e5edE', symObjAddr: 0x1D9C, symBinAddr: 0x406EC, symSize: 0xEC }
  - { offset: 0x12AC92, size: 0x8, addend: 0x0, symName: '__ZN5alloc3vec16Vec$LT$T$C$A$GT$8push_mut17h8709558ad7278f48E', symObjAddr: 0x1E88, symBinAddr: 0x407D8, symSize: 0xF4 }
  - { offset: 0x12AF1E, size: 0x8, addend: 0x0, symName: '__ZN5alloc3vec16Vec$LT$T$C$A$GT$8push_mut17hb708414ca5786a03E', symObjAddr: 0x1F7C, symBinAddr: 0x408CC, symSize: 0x108 }
  - { offset: 0x12B18F, size: 0x8, addend: 0x0, symName: '__ZN5alloc3vec16Vec$LT$T$C$A$GT$8push_mut17hed2eab517657c1efE', symObjAddr: 0x2084, symBinAddr: 0x409D4, symSize: 0xCC }
  - { offset: 0x12B3FE, size: 0x8, addend: 0x0, symName: '__ZN5alloc3vec16Vec$LT$T$C$A$GT$8push_mut17hf2bc3a8588e1baadE', symObjAddr: 0x2150, symBinAddr: 0x40AA0, symSize: 0xCC }
  - { offset: 0x12B929, size: 0x8, addend: 0x0, symName: '__ZN5rayon4iter13from_par_iter97_$LT$impl$u20$rayon..iter..FromParallelIterator$LT$T$GT$$u20$for$u20$alloc..vec..Vec$LT$T$GT$$GT$13from_par_iter17he0427247bdf34884E', symObjAddr: 0x24F4, symBinAddr: 0x40E44, symSize: 0x40 }
  - { offset: 0x12B974, size: 0x8, addend: 0x0, symName: '__ZN5rayon4iter6extend91_$LT$impl$u20$rayon..iter..ParallelExtend$LT$T$GT$$u20$for$u20$alloc..vec..Vec$LT$T$GT$$GT$10par_extend17h7c7c9e4c1bcdccf5E', symObjAddr: 0x2534, symBinAddr: 0x40E84, symSize: 0x284 }
  - { offset: 0x12D5BA, size: 0x8, addend: 0x0, symName: __ZN10rayon_core3job6JobRef2id17h729dc095a6bad434E, symObjAddr: 0x0, symBinAddr: 0x41C78, symSize: 0x20 }
  - { offset: 0x12D66D, size: 0x8, addend: 0x0, symName: __ZN10rayon_core3job6JobRef2id17h729dc095a6bad434E, symObjAddr: 0x0, symBinAddr: 0x41C78, symSize: 0x20 }
  - { offset: 0x12D68F, size: 0x8, addend: 0x0, symName: __ZN10rayon_core3job6JobRef7execute17h9c2b56d92098f895E, symObjAddr: 0x20, symBinAddr: 0x41C98, symSize: 0x30 }
  - { offset: 0x12D6CF, size: 0x8, addend: 0x0, symName: '__ZN106_$LT$core..ops..range..Range$LT$usize$GT$$u20$as$u20$core..slice..index..SliceIndex$LT$$u5b$T$u5d$$GT$$GT$17get_unchecked_mut18precondition_check17hb0fc722062b3e15fE', symObjAddr: 0x0, symBinAddr: 0x41CC8, symSize: 0x80 }
  - { offset: 0x12D6F5, size: 0x8, addend: 0x0, symName: '__ZN106_$LT$core..ops..range..Range$LT$usize$GT$$u20$as$u20$core..slice..index..SliceIndex$LT$$u5b$T$u5d$$GT$$GT$17get_unchecked_mut18precondition_check17hb0fc722062b3e15fE', symObjAddr: 0x0, symBinAddr: 0x41CC8, symSize: 0x80 }
  - { offset: 0x12D762, size: 0x8, addend: 0x0, symName: '__ZN75_$LT$usize$u20$as$u20$core..slice..index..SliceIndex$LT$$u5b$T$u5d$$GT$$GT$13get_unchecked18precondition_check17h2ade103473160571E', symObjAddr: 0x80, symBinAddr: 0x41D48, symSize: 0x60 }
  - { offset: 0x12D7BB, size: 0x8, addend: 0x0, symName: '__ZN75_$LT$usize$u20$as$u20$core..slice..index..SliceIndex$LT$$u5b$T$u5d$$GT$$GT$17get_unchecked_mut18precondition_check17h9f888a93f18e63d1E', symObjAddr: 0xE0, symBinAddr: 0x41DA8, symSize: 0x60 }
  - { offset: 0x12D866, size: 0x8, addend: 0x0, symName: '__ZN4core3f3221_$LT$impl$u20$f32$GT$5clamp17he962638fd2f21776E', symObjAddr: 0x0, symBinAddr: 0x41E08, symSize: 0x104 }
  - { offset: 0x12DB3B, size: 0x8, addend: 0x0, symName: '__ZN4core3f3221_$LT$impl$u20$f32$GT$5clamp17he962638fd2f21776E', symObjAddr: 0x0, symBinAddr: 0x41E08, symSize: 0x104 }
  - { offset: 0x12DC48, size: 0x8, addend: 0x0, symName: '__ZN4core3f3221_$LT$impl$u20$f32$GT$6is_nan17hae381ae53aa999dfE', symObjAddr: 0x104, symBinAddr: 0x41F0C, symSize: 0x18 }
  - { offset: 0x12DC94, size: 0x8, addend: 0x0, symName: '__ZN4core3f3221_$LT$impl$u20$f32$GT$9is_finite17hc692b427fbeecb49E', symObjAddr: 0x11C, symBinAddr: 0x41F24, symSize: 0x2C }
  - { offset: 0x12DE80, size: 0x8, addend: 0x0, symName: __ZN4pyo311type_object11get_tp_free17h6d6ebf5a5618394bE, symObjAddr: 0x0, symBinAddr: 0x41F50, symSize: 0xA0 }
  - { offset: 0x12F037, size: 0x8, addend: 0x0, symName: __ZN4pyo311type_object11get_tp_free17h6d6ebf5a5618394bE, symObjAddr: 0x0, symBinAddr: 0x41F50, symSize: 0xA0 }
  - { offset: 0x12F4AE, size: 0x8, addend: 0x0, symName: '__ZN108_$LT$core..iter..adapters..filter..Filter$LT$I$C$P$GT$$u20$as$u20$core..iter..traits..iterator..Iterator$GT$5count17hfed1d74e2c3fb7c7E', symObjAddr: 0x0, symBinAddr: 0x41FF0, symSize: 0x118 }
  - { offset: 0x12F61D, size: 0x8, addend: 0x0, symName: '__ZN108_$LT$core..iter..adapters..filter..Filter$LT$I$C$P$GT$$u20$as$u20$core..iter..traits..iterator..Iterator$GT$5count8to_usize28_$u7b$$u7b$closure$u7d$$u7d$17h397322d8c29cf7f5E', symObjAddr: 0x118, symBinAddr: 0x42108, symSize: 0x5C }
  - { offset: 0x12F66D, size: 0x8, addend: 0x0, symName: '__ZN108_$LT$core..iter..adapters..filter..Filter$LT$I$C$P$GT$$u20$as$u20$core..iter..traits..iterator..Iterator$GT$5count17hfed1d74e2c3fb7c7E', symObjAddr: 0x0, symBinAddr: 0x41FF0, symSize: 0x118 }
  - { offset: 0x12F924, size: 0x8, addend: 0x0, symName: __ZN4core3cmp8Ordering5is_le17hbd59433f725f1168E, symObjAddr: 0x0, symBinAddr: 0x42164, symSize: 0x1C }
  - { offset: 0x12F96D, size: 0x8, addend: 0x0, symName: __ZN4core3cmp8Ordering5is_le17hbd59433f725f1168E, symObjAddr: 0x0, symBinAddr: 0x42164, symSize: 0x1C }
  - { offset: 0x12F9AE, size: 0x8, addend: 0x0, symName: '__ZN129_$LT$$u5b$core..mem..maybe_uninit..MaybeUninit$LT$T$GT$$u3b$$u20$N$u5d$$u20$as$u20$core..array..iter..iter_inner..PartialDrop$GT$12partial_drop17hc173d3880c2b7e84E', symObjAddr: 0x0, symBinAddr: 0x42180, symSize: 0x4C }
  - { offset: 0x13014C, size: 0x8, addend: 0x0, symName: '__ZN129_$LT$$u5b$core..mem..maybe_uninit..MaybeUninit$LT$T$GT$$u3b$$u20$N$u5d$$u20$as$u20$core..array..iter..iter_inner..PartialDrop$GT$12partial_drop17hc173d3880c2b7e84E', symObjAddr: 0x0, symBinAddr: 0x42180, symSize: 0x4C }
  - { offset: 0x131094, size: 0x8, addend: 0x0, symName: '__ZN4pyo35types10boolobject116_$LT$impl$u20$pyo3..conversion..IntoPy$LT$pyo3..instance..Py$LT$pyo3..types..any..PyAny$GT$$GT$$u20$for$u20$bool$GT$7into_py17hafcaa62fd09a2eb4E', symObjAddr: 0x0, symBinAddr: 0x421CC, symSize: 0x24 }
  - { offset: 0x13227A, size: 0x8, addend: 0x0, symName: '__ZN4pyo35types10boolobject116_$LT$impl$u20$pyo3..conversion..IntoPy$LT$pyo3..instance..Py$LT$pyo3..types..any..PyAny$GT$$GT$$u20$for$u20$bool$GT$7into_py17hafcaa62fd09a2eb4E', symObjAddr: 0x0, symBinAddr: 0x421CC, symSize: 0x24 }
  - { offset: 0x1328B7, size: 0x8, addend: 0x0, symName: __ZN4pyo35types10boolobject6PyBool9new_bound17h7bf3be63a594f88fE, symObjAddr: 0x24, symBinAddr: 0x421F0, symSize: 0x48 }
  - { offset: 0x132910, size: 0x8, addend: 0x0, symName: __ZN14neuralvault_rs13causal_engine28run_stochastic_simulation_rs17h0457e992aa9a46dbE, symObjAddr: 0x0, symBinAddr: 0x42238, symSize: 0x73C }
  - { offset: 0x134358, size: 0x8, addend: 0x0, symName: __ZN14neuralvault_rs13causal_engine28run_stochastic_simulation_rs17h0457e992aa9a46dbE, symObjAddr: 0x0, symBinAddr: 0x42238, symSize: 0x73C }
  - { offset: 0x134561, size: 0x8, addend: 0x0, symName: __ZN14neuralvault_rs13causal_engine41__pyfunction_run_stochastic_simulation_rs17hcaa083cbbb07f257E, symObjAddr: 0x73C, symBinAddr: 0x42974, symSize: 0x968 }
  - { offset: 0x134838, size: 0x8, addend: 0x0, symName: '__ZN14neuralvault_rs13causal_engine86_$LT$impl$u20$neuralvault_rs..causal_engine..run_stochastic_simulation_rs..MakeDef$GT$9_PYO3_DEF10trampoline17h9c42e2e83b336ab4E', symObjAddr: 0x10A4, symBinAddr: 0x432DC, symSize: 0x50 }
  - { offset: 0x135D0F, size: 0x8, addend: 0x0, symName: __ZN4pyo35types8sequence16extract_sequence17h06a20ff8db7e9f02E, symObjAddr: 0x0, symBinAddr: 0x4332C, symSize: 0x3AC }
  - { offset: 0x137449, size: 0x8, addend: 0x0, symName: __ZN4pyo35types8sequence16extract_sequence17h06a20ff8db7e9f02E, symObjAddr: 0x0, symBinAddr: 0x4332C, symSize: 0x3AC }
  - { offset: 0x137549, size: 0x8, addend: 0x0, symName: __ZN4pyo35types8sequence16extract_sequence17hb1f160eb43bcc312E, symObjAddr: 0x3AC, symBinAddr: 0x436D8, symSize: 0x3CC }
  - { offset: 0x137649, size: 0x8, addend: 0x0, symName: __ZN4pyo35types8sequence16extract_sequence17head8aea341a82cb9E, symObjAddr: 0x778, symBinAddr: 0x43AA4, symSize: 0x3B4 }
  - { offset: 0x1381AF, size: 0x8, addend: 0x0, symName: __ZN5rayon4iter13from_par_iter16collect_extended17h7a509d996d96d856E, symObjAddr: 0x0, symBinAddr: 0x43E58, symSize: 0xC0 }
  - { offset: 0x1381CB, size: 0x8, addend: 0x0, symName: __ZN5rayon4iter13from_par_iter16collect_extended17h7a509d996d96d856E, symObjAddr: 0x0, symBinAddr: 0x43E58, symSize: 0xC0 }
  - { offset: 0x13886C, size: 0x8, addend: 0x0, symName: '__ZN51_$LT$T$u20$as$u20$core..borrow..Borrow$LT$T$GT$$GT$6borrow17h6caef06fcb384344E', symObjAddr: 0x0, symBinAddr: 0x43F18, symSize: 0x14 }
  - { offset: 0x138888, size: 0x8, addend: 0x0, symName: '__ZN51_$LT$T$u20$as$u20$core..borrow..Borrow$LT$T$GT$$GT$6borrow17h6caef06fcb384344E', symObjAddr: 0x0, symBinAddr: 0x43F18, symSize: 0x14 }
  - { offset: 0x1388F2, size: 0x8, addend: 0x0, symName: __ZN4core3fmt9Arguments3new17h38c3aa058dc97859E, symObjAddr: 0x0, symBinAddr: 0x43F2C, symSize: 0x1C }
  - { offset: 0x138C3A, size: 0x8, addend: 0x0, symName: __ZN4core3fmt9Arguments3new17h38c3aa058dc97859E, symObjAddr: 0x0, symBinAddr: 0x43F2C, symSize: 0x1C }
  - { offset: 0x138C8A, size: 0x8, addend: 0x0, symName: '__ZN4pyo34sync20GILOnceCell$LT$T$GT$15get_or_try_init17hc0815277021fe7dcE', symObjAddr: 0x0, symBinAddr: 0x43F48, symSize: 0xB4 }
  - { offset: 0x13ACD0, size: 0x8, addend: 0x0, symName: '__ZN4pyo34sync20GILOnceCell$LT$T$GT$15get_or_try_init17hc0815277021fe7dcE', symObjAddr: 0x0, symBinAddr: 0x43F48, symSize: 0xB4 }
  - { offset: 0x13AD49, size: 0x8, addend: 0x0, symName: '__ZN4pyo34sync20GILOnceCell$LT$T$GT$15get_or_try_init17hdf2aca8cfefa9affE', symObjAddr: 0xB4, symBinAddr: 0x43FFC, symSize: 0xB4 }
  - { offset: 0x13ADC2, size: 0x8, addend: 0x0, symName: '__ZN4pyo34sync20GILOnceCell$LT$T$GT$3get17hddd2baa716a4a240E', symObjAddr: 0x168, symBinAddr: 0x440B0, symSize: 0x70 }
  - { offset: 0x13AE43, size: 0x8, addend: 0x0, symName: '__ZN4pyo34sync20GILOnceCell$LT$T$GT$3set17h2db2cb3e7f8ab041E', symObjAddr: 0x1D8, symBinAddr: 0x44120, symSize: 0x194 }
  - { offset: 0x13AF3C, size: 0x8, addend: 0x0, symName: '__ZN4pyo34sync20GILOnceCell$LT$T$GT$4init17h276b32e68e2528adE', symObjAddr: 0x36C, symBinAddr: 0xEFDEC, symSize: 0x190 }
  - { offset: 0x13B012, size: 0x8, addend: 0x0, symName: '__ZN4pyo34sync20GILOnceCell$LT$T$GT$4init17h36d8bc92cb72442aE', symObjAddr: 0x4FC, symBinAddr: 0xEFF7C, symSize: 0x190 }
  - { offset: 0x13B113, size: 0x8, addend: 0x0, symName: '__ZN119_$LT$pyo3..instance..Bound$LT$pyo3..types..typeobject..PyType$GT$$u20$as$u20$pyo3..types..typeobject..PyTypeMethods$GT$11as_type_ptr17hade0567b23bf1985E', symObjAddr: 0x0, symBinAddr: 0x442B4, symSize: 0x24 }
  - { offset: 0x13C7BD, size: 0x8, addend: 0x0, symName: '__ZN119_$LT$pyo3..instance..Bound$LT$pyo3..types..typeobject..PyType$GT$$u20$as$u20$pyo3..types..typeobject..PyTypeMethods$GT$11as_type_ptr17hade0567b23bf1985E', symObjAddr: 0x0, symBinAddr: 0x442B4, symSize: 0x24 }
  - { offset: 0x13C80A, size: 0x8, addend: 0x0, symName: '__ZN123_$LT$pyo3..instance..Bound$LT$pyo3..types..sequence..PySequence$GT$$u20$as$u20$pyo3..types..sequence..PySequenceMethods$GT$3len17h802140e676392212E', symObjAddr: 0x24, symBinAddr: 0x442D8, symSize: 0xBC }
  - { offset: 0x13C896, size: 0x8, addend: 0x0, symName: '__ZN4pyo35types8iterator131_$LT$impl$u20$core..iter..traits..iterator..Iterator$u20$for$u20$pyo3..instance..Bound$LT$pyo3..types..iterator..PyIterator$GT$$GT$4next17hcdab1494bcd9bceeE', symObjAddr: 0xE0, symBinAddr: 0x44394, symSize: 0x30 }
  - { offset: 0x13D162, size: 0x8, addend: 0x0, symName: '__ZN4pyo38instance36Bound$LT$pyo3..types..any..PyAny$GT$14from_owned_ptr17h3f7ddf32ce9477beE', symObjAddr: 0x110, symBinAddr: 0x443C4, symSize: 0x2C }
  - { offset: 0x13D1AA, size: 0x8, addend: 0x0, symName: '__ZN4pyo38instance39Borrowed$LT$pyo3..types..any..PyAny$GT$15from_ptr_or_opt17h7551e72ae5958ef7E', symObjAddr: 0x13C, symBinAddr: 0x443F0, symSize: 0x2C }
  - { offset: 0x13D1E8, size: 0x8, addend: 0x0, symName: '__ZN4pyo38instance39Borrowed$LT$pyo3..types..any..PyAny$GT$18from_ptr_unchecked17h7e349efe8af23685E', symObjAddr: 0x168, symBinAddr: 0x4441C, symSize: 0x2C }
  - { offset: 0x13D226, size: 0x8, addend: 0x0, symName: '__ZN4pyo38instance39Borrowed$LT$pyo3..types..any..PyAny$GT$8from_ptr17h663a9c54cac74478E', symObjAddr: 0x194, symBinAddr: 0x44448, symSize: 0x34 }
  - { offset: 0x13D2F8, size: 0x8, addend: 0x0, symName: __ZN4rand3rng3Rng3gen17h09cb9250d09864c8E, symObjAddr: 0x0, symBinAddr: 0x4447C, symSize: 0x30 }
  - { offset: 0x13D314, size: 0x8, addend: 0x0, symName: __ZN4rand3rng3Rng3gen17h09cb9250d09864c8E, symObjAddr: 0x0, symBinAddr: 0x4447C, symSize: 0x30 }
  - { offset: 0x13D352, size: 0x8, addend: 0x0, symName: __ZN4rand3rng3Rng3gen17h6862244b40e7a0e7E, symObjAddr: 0x30, symBinAddr: 0x444AC, symSize: 0x30 }
  - { offset: 0x13D390, size: 0x8, addend: 0x0, symName: __ZN4rand3rng3Rng3gen17hb6ee904dff9dc66aE, symObjAddr: 0x60, symBinAddr: 0x444DC, symSize: 0x30 }
  - { offset: 0x13D3CE, size: 0x8, addend: 0x0, symName: __ZN4rand3rng3Rng3gen17hdd88903d5c0d4e40E, symObjAddr: 0x90, symBinAddr: 0x4450C, symSize: 0x30 }
  - { offset: 0x13D40C, size: 0x8, addend: 0x0, symName: __ZN4rand3rng3Rng6sample17h3647e65ce4043a29E, symObjAddr: 0xC0, symBinAddr: 0x4453C, symSize: 0x50 }
  - { offset: 0x13D461, size: 0x8, addend: 0x0, symName: __ZN4rand3rng3Rng6sample17h618c72b759141793E, symObjAddr: 0x110, symBinAddr: 0x4458C, symSize: 0x50 }
  - { offset: 0x13D846, size: 0x8, addend: 0x0, symName: __ZN4core5slice3raw14from_raw_parts17h799ee28762f8c15fE, symObjAddr: 0x0, symBinAddr: 0x445DC, symSize: 0x58 }
  - { offset: 0x13DFF8, size: 0x8, addend: 0x0, symName: __ZN4core5slice3raw14from_raw_parts17h799ee28762f8c15fE, symObjAddr: 0x0, symBinAddr: 0x445DC, symSize: 0x58 }
  - { offset: 0x13E03B, size: 0x8, addend: 0x0, symName: __ZN4core5slice3raw14from_raw_parts17hb088187b405d2cb3E, symObjAddr: 0x58, symBinAddr: 0x44634, symSize: 0x58 }
  - { offset: 0x13E07E, size: 0x8, addend: 0x0, symName: __ZN4core5slice3raw18from_raw_parts_mut17he09995b8710ea8eaE, symObjAddr: 0xB0, symBinAddr: 0x4468C, symSize: 0x5C }
  - { offset: 0x13F47F, size: 0x8, addend: 0x0, symName: _PyInit_neuralvault_rs, symObjAddr: 0x0, symBinAddr: 0x446E8, symSize: 0x34 }
  - { offset: 0x13F4A3, size: 0x8, addend: 0x0, symName: __ZN14neuralvault_rs14neuralvault_rs9_PYO3_DEF17h6567e218325f14a3E, symObjAddr: 0x88, symBinAddr: 0x17C568, symSize: 0x0 }
  - { offset: 0x13F4B0, size: 0x8, addend: 0x0, symName: _PyInit_neuralvault_rs, symObjAddr: 0x0, symBinAddr: 0x446E8, symSize: 0x34 }
  - { offset: 0x141411, size: 0x8, addend: 0x0, symName: __ZN8pyo3_ffi7cpython10listobject15PyList_SET_ITEM17h3034004432be20b7E, symObjAddr: 0x0, symBinAddr: 0x4471C, symSize: 0x110 }
  - { offset: 0x1419C8, size: 0x8, addend: 0x0, symName: __ZN8pyo3_ffi7cpython10listobject15PyList_SET_ITEM17h3034004432be20b7E, symObjAddr: 0x0, symBinAddr: 0x4471C, symSize: 0x110 }
  - { offset: 0x142976, size: 0x8, addend: 0x0, symName: __ZN4core5slice3raw14from_raw_parts18precondition_check17h3dfa9e0ea3ec866eE, symObjAddr: 0x0, symBinAddr: 0x4482C, symSize: 0x10C }
  - { offset: 0x142B15, size: 0x8, addend: 0x0, symName: __ZN4core5slice3raw14from_raw_parts18precondition_check17h3dfa9e0ea3ec866eE, symObjAddr: 0x0, symBinAddr: 0x4482C, symSize: 0x10C }
  - { offset: 0x142C31, size: 0x8, addend: 0x0, symName: __ZN4core5slice3raw18from_raw_parts_mut18precondition_check17hb3c390ece36cefeaE, symObjAddr: 0x10C, symBinAddr: 0x44938, symSize: 0x10C }
  - { offset: 0x142DC6, size: 0x8, addend: 0x0, symName: __ZN8pyo3_ffi13unicodeobject15PyUnicode_Check17ha201bcbe8e4a2cbfE, symObjAddr: 0x0, symBinAddr: 0x44A44, symSize: 0x30 }
  - { offset: 0x142E43, size: 0x8, addend: 0x0, symName: __ZN8pyo3_ffi13unicodeobject15PyUnicode_Check17ha201bcbe8e4a2cbfE, symObjAddr: 0x0, symBinAddr: 0x44A44, symSize: 0x30 }
  - { offset: 0x1442A9, size: 0x8, addend: 0x0, symName: '__ZN14neuralvault_rs6PyHNSW11total_edges28_$u7b$$u7b$closure$u7d$$u7d$17h3bdeceb4b3628722E', symObjAddr: 0x0, symBinAddr: 0x44A74, symSize: 0x40 }
  - { offset: 0x144A7D, size: 0x8, addend: 0x0, symName: '__ZN50_$LT$T$u20$as$u20$core..convert..Into$LT$U$GT$$GT$4into17hb3d141e10d575ee2E', symObjAddr: 0x224, symBinAddr: 0x44C98, symSize: 0x24 }
  - { offset: 0x144ABD, size: 0x8, addend: 0x0, symName: '__ZN50_$LT$T$u20$as$u20$core..convert..Into$LT$U$GT$$GT$4into17hf41efea66590fb8eE', symObjAddr: 0x248, symBinAddr: 0x44CBC, symSize: 0x14 }
  - { offset: 0x1459A7, size: 0x8, addend: 0x0, symName: '__ZN14neuralvault_rs6PyHNSW11total_edges28_$u7b$$u7b$closure$u7d$$u7d$17h3bdeceb4b3628722E', symObjAddr: 0x0, symBinAddr: 0x44A74, symSize: 0x40 }
  - { offset: 0x1459EA, size: 0x8, addend: 0x0, symName: '__ZN14neuralvault_rs6PyHNSW6search28_$u7b$$u7b$closure$u7d$$u7d$17ha54ff22fe6b12073E', symObjAddr: 0x40, symBinAddr: 0x44AB4, symSize: 0x70 }
  - { offset: 0x145A5B, size: 0x8, addend: 0x0, symName: '__ZN76_$LT$neuralvault_rs..PyHNSW$u20$as$u20$pyo3..impl_..pyclass..PyClassImpl$GT$3doc28_$u7b$$u7b$closure$u7d$$u7d$17hfe170c29839bb549E', symObjAddr: 0x2A4, symBinAddr: 0x44D18, symSize: 0x54 }
  - { offset: 0x145AB3, size: 0x8, addend: 0x0, symName: '__ZN84_$LT$neuralvault_rs..RustTurboQuant$u20$as$u20$pyo3..impl_..pyclass..PyClassImpl$GT$3doc28_$u7b$$u7b$closure$u7d$$u7d$17h5653426154af9874E', symObjAddr: 0x2F8, symBinAddr: 0x44D6C, symSize: 0x54 }
  - { offset: 0x145BF5, size: 0x8, addend: 0x0, symName: __ZN4pyo311type_object10PyTypeInfo16is_type_of_bound17h57ff89bd7d3c0f20E, symObjAddr: 0xB0, symBinAddr: 0x44B24, symSize: 0x50 }
  - { offset: 0x145C2A, size: 0x8, addend: 0x0, symName: __ZN4pyo311type_object10PyTypeInfo16is_type_of_bound17h937eed7ee3309029E, symObjAddr: 0x100, symBinAddr: 0x44B74, symSize: 0x50 }
  - { offset: 0x145C65, size: 0x8, addend: 0x0, symName: '__ZN52_$LT$T$u20$as$u20$pyo3..type_object..PyTypeCheck$GT$10type_check17h594951c26d80a393E', symObjAddr: 0x25C, symBinAddr: 0x44CD0, symSize: 0x24 }
  - { offset: 0x145C9A, size: 0x8, addend: 0x0, symName: '__ZN52_$LT$T$u20$as$u20$pyo3..type_object..PyTypeCheck$GT$10type_check17hfc9f73d60f282122E', symObjAddr: 0x280, symBinAddr: 0x44CF4, symSize: 0x24 }
  - { offset: 0x145CDB, size: 0x8, addend: 0x0, symName: '__ZN4pyo312pyclass_init123_$LT$impl$u20$pyo3..callback..IntoPyCallbackOutput$LT$pyo3..pyclass_init..PyClassInitializer$LT$T$GT$$GT$$u20$for$u20$U$GT$7convert17h0ee368b63c305a9fE', symObjAddr: 0x150, symBinAddr: 0x44BC4, symSize: 0x68 }
  - { offset: 0x145D39, size: 0x8, addend: 0x0, symName: '__ZN4pyo312pyclass_init123_$LT$impl$u20$pyo3..callback..IntoPyCallbackOutput$LT$pyo3..pyclass_init..PyClassInitializer$LT$T$GT$$GT$$u20$for$u20$U$GT$7convert17hb972053199f6c8f5E', symObjAddr: 0x1B8, symBinAddr: 0x44C2C, symSize: 0x4C }
  - { offset: 0x145EF2, size: 0x8, addend: 0x0, symName: __ZN4pyo35impl_7pyclass11PyClassImpl11dict_offset17h9458b896e2d601fdE, symObjAddr: 0x204, symBinAddr: 0x44C78, symSize: 0x8 }
  - { offset: 0x145F19, size: 0x8, addend: 0x0, symName: __ZN4pyo35impl_7pyclass11PyClassImpl11dict_offset17he48e2c6bb911ac9bE, symObjAddr: 0x20C, symBinAddr: 0x44C80, symSize: 0x8 }
  - { offset: 0x145F40, size: 0x8, addend: 0x0, symName: __ZN4pyo35impl_7pyclass11PyClassImpl15weaklist_offset17h115bbd65a0f29179E, symObjAddr: 0x214, symBinAddr: 0x44C88, symSize: 0x8 }
  - { offset: 0x145F67, size: 0x8, addend: 0x0, symName: __ZN4pyo35impl_7pyclass11PyClassImpl15weaklist_offset17hf8a9f3f887bf5ea6E, symObjAddr: 0x21C, symBinAddr: 0x44C90, symSize: 0x8 }
  - { offset: 0x146CF9, size: 0x8, addend: 0x0, symName: __ZN10rayon_core5sleep5Sleep17new_internal_jobs17h9385be4a4564a438E, symObjAddr: 0x0, symBinAddr: 0x44DC0, symSize: 0x2C }
  - { offset: 0x1472DC, size: 0x8, addend: 0x0, symName: __ZN10rayon_core5sleep5Sleep17new_internal_jobs17h9385be4a4564a438E, symObjAddr: 0x0, symBinAddr: 0x44DC0, symSize: 0x2C }
  - { offset: 0x14731A, size: 0x8, addend: 0x0, symName: __ZN10rayon_core5sleep5Sleep8new_jobs17h21701c96af6629ccE, symObjAddr: 0x2C, symBinAddr: 0x44DEC, symSize: 0x110 }
  - { offset: 0x14741D, size: 0x8, addend: 0x0, symName: __ZN4core5slice4sort6stable14driftsort_main17hccb45cab9017c94aE, symObjAddr: 0x0, symBinAddr: 0x44EFC, symSize: 0x1EC }
  - { offset: 0x14758C, size: 0x8, addend: 0x0, symName: __ZN4core5slice4sort6stable14driftsort_main17hccb45cab9017c94aE, symObjAddr: 0x0, symBinAddr: 0x44EFC, symSize: 0x1EC }
  - { offset: 0x147792, size: 0x8, addend: 0x0, symName: __ZN4core5slice4sort6stable14driftsort_main17hd0638c53330ba000E, symObjAddr: 0x1EC, symBinAddr: 0x450E8, symSize: 0x1EC }
  - { offset: 0x147DBD, size: 0x8, addend: 0x0, symName: '__ZN4core5slice4sort6stable27AlignedStorage$LT$T$C$_$GT$19as_uninit_slice_mut17h6b6de4358f24be9aE', symObjAddr: 0x3D8, symBinAddr: 0x452D4, symSize: 0x84 }
  - { offset: 0x147EA5, size: 0x8, addend: 0x0, symName: '__ZN4core5slice4sort6stable27AlignedStorage$LT$T$C$_$GT$19as_uninit_slice_mut17hfab545a92cf91bb0E', symObjAddr: 0x45C, symBinAddr: 0x45358, symSize: 0x84 }
  - { offset: 0x148186, size: 0x8, addend: 0x0, symName: '__ZN96_$LT$pyo3..pycell..impl_..BorrowChecker$u20$as$u20$pyo3..pycell..impl_..PyClassBorrowChecker$GT$3new17h178c2cea06ab35b4E', symObjAddr: 0x0, symBinAddr: 0x453DC, symSize: 0x18 }
  - { offset: 0x1481A7, size: 0x8, addend: 0x0, symName: '__ZN96_$LT$pyo3..pycell..impl_..BorrowChecker$u20$as$u20$pyo3..pycell..impl_..PyClassBorrowChecker$GT$3new17h178c2cea06ab35b4E', symObjAddr: 0x0, symBinAddr: 0x453DC, symSize: 0x18 }
  - { offset: 0x14825F, size: 0x8, addend: 0x0, symName: '__ZN117_$LT$rayon..iter..plumbing..bridge..Callback$LT$C$GT$$u20$as$u20$rayon..iter..plumbing..ProducerCallback$LT$I$GT$$GT$8callback17h48f7a28f61a11f1cE', symObjAddr: 0x0, symBinAddr: 0x453F4, symSize: 0x40 }
  - { offset: 0x148285, size: 0x8, addend: 0x0, symName: '__ZN117_$LT$rayon..iter..plumbing..bridge..Callback$LT$C$GT$$u20$as$u20$rayon..iter..plumbing..ProducerCallback$LT$I$GT$$GT$8callback17h48f7a28f61a11f1cE', symObjAddr: 0x0, symBinAddr: 0x453F4, symSize: 0x40 }
  - { offset: 0x1482DE, size: 0x8, addend: 0x0, symName: '__ZN117_$LT$rayon..iter..plumbing..bridge..Callback$LT$C$GT$$u20$as$u20$rayon..iter..plumbing..ProducerCallback$LT$I$GT$$GT$8callback17h86f36f2288aad666E', symObjAddr: 0x40, symBinAddr: 0x45434, symSize: 0x44 }
  - { offset: 0x14838C, size: 0x8, addend: 0x0, symName: __ZN5rayon4iter8plumbing24bridge_producer_consumer17h5507b82a9a4d4848E, symObjAddr: 0x84, symBinAddr: 0x45478, symSize: 0xFC }
  - { offset: 0x148408, size: 0x8, addend: 0x0, symName: __ZN5rayon4iter8plumbing24bridge_producer_consumer17h77814ed2a036f2f1E, symObjAddr: 0x180, symBinAddr: 0x45574, symSize: 0x10C }
  - { offset: 0x14848B, size: 0x8, addend: 0x0, symName: __ZN5rayon4iter8plumbing24bridge_producer_consumer6helper17h4b9e64fc43ee69dfE, symObjAddr: 0x28C, symBinAddr: 0x45680, symSize: 0x48C }
  - { offset: 0x1485B2, size: 0x8, addend: 0x0, symName: __ZN5rayon4iter8plumbing24bridge_producer_consumer6helper17hbebfe1bc541e716aE, symObjAddr: 0x718, symBinAddr: 0x45B0C, symSize: 0x41C }
  - { offset: 0x1486DC, size: 0x8, addend: 0x0, symName: '__ZN5rayon4iter8plumbing24bridge_producer_consumer6helper28_$u7b$$u7b$closure$u7d$$u7d$17h4497cdde80d415b9E', symObjAddr: 0xB34, symBinAddr: 0x45F28, symSize: 0xD8 }
  - { offset: 0x148760, size: 0x8, addend: 0x0, symName: '__ZN5rayon4iter8plumbing24bridge_producer_consumer6helper28_$u7b$$u7b$closure$u7d$$u7d$17h582f3184438490c1E', symObjAddr: 0xC0C, symBinAddr: 0x46000, symSize: 0x100 }
  - { offset: 0x1487F5, size: 0x8, addend: 0x0, symName: '__ZN5rayon4iter8plumbing24bridge_producer_consumer6helper28_$u7b$$u7b$closure$u7d$$u7d$17h626fa0934245c914E', symObjAddr: 0xD0C, symBinAddr: 0x46100, symSize: 0xF0 }
  - { offset: 0x14888A, size: 0x8, addend: 0x0, symName: '__ZN5rayon4iter8plumbing24bridge_producer_consumer6helper28_$u7b$$u7b$closure$u7d$$u7d$17hb10d810bb82d769dE', symObjAddr: 0xDFC, symBinAddr: 0x461F0, symSize: 0xC8 }
  - { offset: 0x148910, size: 0x8, addend: 0x0, symName: __ZN5rayon4iter8plumbing6bridge17h762a31a2a79f804eE, symObjAddr: 0xEC4, symBinAddr: 0x462B8, symSize: 0xB4 }
  - { offset: 0x14897D, size: 0x8, addend: 0x0, symName: __ZN5rayon4iter8plumbing6bridge17h9f2b04266311aa8eE, symObjAddr: 0xF78, symBinAddr: 0x4636C, symSize: 0xD8 }
  - { offset: 0x1493C0, size: 0x8, addend: 0x0, symName: __ZN10rand_distr15ziggurat_tables10ZIG_NORM_F17ha3bc1fdbd2b44800E, symObjAddr: 0x5388, symBinAddr: 0x105738, symSize: 0x0 }
  - { offset: 0x1493DA, size: 0x8, addend: 0x0, symName: __ZN10rand_distr15ziggurat_tables10ZIG_NORM_X17h0135a70217c25795E, symObjAddr: 0x5B90, symBinAddr: 0x105F40, symSize: 0x0 }
  - { offset: 0x149706, size: 0x8, addend: 0x0, symName: '__ZN4core3ptr47drop_in_place$LT$alloc..vec..Vec$LT$u32$GT$$GT$17ha7de1c9cbc9a6792E', symObjAddr: 0x1A30, symBinAddr: 0x464BC, symSize: 0x5C }
  - { offset: 0x149735, size: 0x8, addend: 0x0, symName: '__ZN4core3ptr54drop_in_place$LT$alloc..raw_vec..RawVec$LT$u32$GT$$GT$17h9df6b40e1ae7facfE', symObjAddr: 0x1A8C, symBinAddr: 0x46518, symSize: 0x24 }
  - { offset: 0x149764, size: 0x8, addend: 0x0, symName: '__ZN4core3ptr62drop_in_place$LT$alloc..vec..set_len_on_drop..SetLenOnDrop$GT$17h975a23595ae8dbb4E', symObjAddr: 0x1AB0, symBinAddr: 0x4653C, symSize: 0x24 }
  - { offset: 0x149F4D, size: 0x8, addend: 0x0, symName: '__ZN4core3num23_$LT$impl$u20$usize$GT$13unchecked_add18precondition_check17h15fc029b48393ae6E', symObjAddr: 0x17E4, symBinAddr: 0x46458, symSize: 0x64 }
  - { offset: 0x14A4EB, size: 0x8, addend: 0x0, symName: '__ZN4core5slice29_$LT$impl$u20$$u5b$T$u5d$$GT$18split_at_unchecked17h7d3c9359abe01bc1E', symObjAddr: 0x1E34, symBinAddr: 0x46560, symSize: 0xE8 }
  - { offset: 0x14A602, size: 0x8, addend: 0x0, symName: '__ZN4core5slice29_$LT$impl$u20$$u5b$T$u5d$$GT$18split_at_unchecked18precondition_check17h58ce7bfa95085f02E', symObjAddr: 0x2004, symBinAddr: 0x46648, symSize: 0x60 }
  - { offset: 0x14A656, size: 0x8, addend: 0x0, symName: '__ZN4core5slice29_$LT$impl$u20$$u5b$T$u5d$$GT$4iter17h43cce51c26dd597eE', symObjAddr: 0x208C, symBinAddr: 0x466A8, symSize: 0x28 }
  - { offset: 0x14A6C0, size: 0x8, addend: 0x0, symName: '__ZN4core5slice29_$LT$impl$u20$$u5b$T$u5d$$GT$8split_at17hb9327d4409d99761E', symObjAddr: 0x2160, symBinAddr: 0x466D0, symSize: 0xAC }
  - { offset: 0x14A75F, size: 0x8, addend: 0x0, symName: __ZN4core5slice3raw14from_raw_parts18precondition_check17h4707ca8122e1c96fE, symObjAddr: 0x220C, symBinAddr: 0x4677C, symSize: 0x10C }
  - { offset: 0x14AAC6, size: 0x8, addend: 0x0, symName: '__ZN4core5slice4iter13Iter$LT$T$GT$3new17hcd656d375a864fcaE', symObjAddr: 0x2368, symBinAddr: 0x46888, symSize: 0x50 }
  - { offset: 0x14AC27, size: 0x8, addend: 0x0, symName: '__ZN83_$LT$alloc..vec..set_len_on_drop..SetLenOnDrop$u20$as$u20$core..ops..drop..Drop$GT$4drop17hc8699218db4e8503E', symObjAddr: 0x45B4, symBinAddr: 0x46BA4, symSize: 0x20 }
  - { offset: 0x14ADD1, size: 0x8, addend: 0x0, symName: '__ZN70_$LT$alloc..vec..Vec$LT$T$C$A$GT$$u20$as$u20$core..ops..drop..Drop$GT$4drop17h9c8426f857c79edfE', symObjAddr: 0x42AC, symBinAddr: 0x46B50, symSize: 0x24 }
  - { offset: 0x14B21E, size: 0x8, addend: 0x0, symName: '__ZN77_$LT$alloc..raw_vec..RawVec$LT$T$C$A$GT$$u20$as$u20$core..ops..drop..Drop$GT$4drop17hec48221c6708907aE', symObjAddr: 0x449C, symBinAddr: 0x46B74, symSize: 0x30 }
  - { offset: 0x14B50D, size: 0x8, addend: 0x0, symName: '__ZN5alloc3vec16Vec$LT$T$C$A$GT$11extend_with17h48a4e2b045f2f683E', symObjAddr: 0x254C, symBinAddr: 0x468D8, symSize: 0x1D8 }
  - { offset: 0x14B90F, size: 0x8, addend: 0x0, symName: '__ZN5alloc3vec16Vec$LT$T$C$A$GT$7reserve17h6497d0136a233d24E', symObjAddr: 0x2908, symBinAddr: 0x46AB0, symSize: 0xA0 }
  - { offset: 0x14BBCD, size: 0x8, addend: 0x0, symName: '__ZN103_$LT$std..sys..thread_local..abort_on_dtor_unwind..DtorUnwindGuard$u20$as$u20$core..ops..drop..Drop$GT$4drop17h04e62771c6dd692fE', symObjAddr: 0x0, symBinAddr: 0x46BC4, symSize: 0x4C }
  - { offset: 0x14BC33, size: 0x8, addend: 0x0, symName: '__ZN81_$LT$std..io..default_write_fmt..Adapter$LT$T$GT$$u20$as$u20$core..fmt..Write$GT$9write_str17h18ee92b2051e938bE', symObjAddr: 0x23E4, symBinAddr: 0x4851C, symSize: 0xB4 }
  - { offset: 0x14BEE3, size: 0x8, addend: 0x0, symName: __ZN3std2io17default_write_fmt17h08dcd55c6d3579f1E, symObjAddr: 0x1A4, symBinAddr: 0x46CF8, symSize: 0x100 }
  - { offset: 0x14BF93, size: 0x8, addend: 0x0, symName: '__ZN103_$LT$std..sys..thread_local..abort_on_dtor_unwind..DtorUnwindGuard$u20$as$u20$core..ops..drop..Drop$GT$4drop17h04e62771c6dd692fE', symObjAddr: 0x0, symBinAddr: 0x46BC4, symSize: 0x4C }
  - { offset: 0x14BFE2, size: 0x8, addend: 0x0, symName: __ZN3std3sys12thread_local20abort_on_dtor_unwind17hf0a4297ae3b578acE, symObjAddr: 0x2A4, symBinAddr: 0x46DF8, symSize: 0x50 }
  - { offset: 0x14C94F, size: 0x8, addend: 0x0, symName: '__ZN4core3ptr101drop_in_place$LT$std..io..error..ErrorData$LT$alloc..boxed..Box$LT$std..io..error..Custom$GT$$GT$$GT$17h8d8e2b79d829a074E', symObjAddr: 0x49C, symBinAddr: 0x46FD0, symSize: 0x48 }
  - { offset: 0x14C97E, size: 0x8, addend: 0x0, symName: '__ZN4core3ptr180drop_in_place$LT$alloc..rc..Rc$LT$core..cell..UnsafeCell$LT$rand..rngs..adapter..reseeding..ReseedingRng$LT$rand_chacha..chacha..ChaCha12Core$C$rand_core..os..OsRng$GT$$GT$$GT$$GT$17hbc51c277f33869d7E', symObjAddr: 0x4E4, symBinAddr: 0x47018, symSize: 0x24 }
  - { offset: 0x14C9AD, size: 0x8, addend: 0x0, symName: '__ZN4core3ptr209drop_in_place$LT$alloc..rc..Weak$LT$core..cell..UnsafeCell$LT$rand..rngs..adapter..reseeding..ReseedingRng$LT$rand_chacha..chacha..ChaCha12Core$C$rand_core..os..OsRng$GT$$GT$$C$$RF$alloc..alloc..Global$GT$$GT$17hb64dc6602a9d8370E', symObjAddr: 0x508, symBinAddr: 0x4703C, symSize: 0x24 }
  - { offset: 0x14C9DC, size: 0x8, addend: 0x0, symName: '__ZN4core3ptr42drop_in_place$LT$std..io..error..Error$GT$17hace3aecec5dfb6b9E', symObjAddr: 0x52C, symBinAddr: 0x47060, symSize: 0x24 }
  - { offset: 0x14CA0B, size: 0x8, addend: 0x0, symName: '__ZN4core3ptr43drop_in_place$LT$std..io..error..Custom$GT$17hac9e27f7bd3a1ee9E', symObjAddr: 0x550, symBinAddr: 0x47084, symSize: 0x24 }
  - { offset: 0x14CA3A, size: 0x8, addend: 0x0, symName: '__ZN4core3ptr57drop_in_place$LT$std..io..error..repr_bitpacked..Repr$GT$17hef6698857bc7273bE', symObjAddr: 0x574, symBinAddr: 0x470A8, symSize: 0x24 }
  - { offset: 0x14CA69, size: 0x8, addend: 0x0, symName: '__ZN4core3ptr68drop_in_place$LT$alloc..boxed..Box$LT$std..io..error..Custom$GT$$GT$17h594e5e66d246e5a5E', symObjAddr: 0x598, symBinAddr: 0x470CC, symSize: 0x60 }
  - { offset: 0x14CA98, size: 0x8, addend: 0x0, symName: '__ZN4core3ptr81drop_in_place$LT$core..result..Result$LT$$LP$$RP$$C$std..io..error..Error$GT$$GT$17h511e8a291e3ed5dcE', symObjAddr: 0x5F8, symBinAddr: 0x4712C, symSize: 0x44 }
  - { offset: 0x14CAC7, size: 0x8, addend: 0x0, symName: '__ZN4core3ptr82drop_in_place$LT$std..sys..thread_local..abort_on_dtor_unwind..DtorUnwindGuard$GT$17h103c3851db5ff586E', symObjAddr: 0x63C, symBinAddr: 0x47170, symSize: 0x24 }
  - { offset: 0x14CAF6, size: 0x8, addend: 0x0, symName: '__ZN4core3ptr93drop_in_place$LT$std..io..default_write_fmt..Adapter$LT$std..sys..stdio..unix..Stderr$GT$$GT$17hb6e80d05333035d5E', symObjAddr: 0x660, symBinAddr: 0x47194, symSize: 0x24 }
  - { offset: 0x14CDB4, size: 0x8, addend: 0x0, symName: __ZN4core5slice3raw14from_raw_parts18precondition_check17hf09e574876af2faeE, symObjAddr: 0xF38, symBinAddr: 0x476C4, symSize: 0x10C }
  - { offset: 0x14CED0, size: 0x8, addend: 0x0, symName: __ZN4core5slice3raw18from_raw_parts_mut18precondition_check17hc1ae585781416813E, symObjAddr: 0x1044, symBinAddr: 0x477D0, symSize: 0x10C }
  - { offset: 0x14D151, size: 0x8, addend: 0x0, symName: __ZN4core4char7methods15encode_utf8_raw8do_panic7runtime17hcd3f7e289b5e7cfdE, symObjAddr: 0x7E4, symBinAddr: 0x472B8, symSize: 0xC4 }
  - { offset: 0x14D24E, size: 0x8, addend: 0x0, symName: __ZN4core4char7methods15encode_utf8_raw17hf38f01334f9c4100E, symObjAddr: 0x6E4, symBinAddr: 0x471B8, symSize: 0x100 }
  - { offset: 0x14D388, size: 0x8, addend: 0x0, symName: __ZN4core4char7methods25encode_utf8_raw_unchecked17hecabd2112e3a17c1E, symObjAddr: 0x8A8, symBinAddr: 0x4737C, symSize: 0x188 }
  - { offset: 0x14D53E, size: 0x8, addend: 0x0, symName: __ZN4core3fmt5Write10write_char17hbce9b3b1f31a9f02E, symObjAddr: 0x314, symBinAddr: 0x46E48, symSize: 0x70 }
  - { offset: 0x14D5A6, size: 0x8, addend: 0x0, symName: __ZN4core3fmt5Write9write_fmt17hdaa7df3e51530e47E, symObjAddr: 0x384, symBinAddr: 0x46EB8, symSize: 0x34 }
  - { offset: 0x14D5F3, size: 0x8, addend: 0x0, symName: '__ZN75_$LT$$RF$mut$u20$W$u20$as$u20$core..fmt..Write..write_fmt..SpecWriteFmt$GT$14spec_write_fmt17h17ac151e8ae78d70E', symObjAddr: 0x1E40, symBinAddr: 0x47FC8, symSize: 0x98 }
  - { offset: 0x14D7C2, size: 0x8, addend: 0x0, symName: '__ZN4core3ops8function6FnOnce40call_once$u7b$$u7b$vtable.shim$u7d$$u7d$17hdfb612e1fe906791E', symObjAddr: 0x3B8, symBinAddr: 0x46EEC, symSize: 0x30 }
  - { offset: 0x14D802, size: 0x8, addend: 0x0, symName: __ZN4core3ops8function6FnOnce9call_once17h9aae2fb70166d4c2E, symObjAddr: 0x3E8, symBinAddr: 0x46F1C, symSize: 0x4C }
  - { offset: 0x14D842, size: 0x8, addend: 0x0, symName: __ZN4core3ops8function6FnOnce9call_once17hc29bab5ffdf6392bE, symObjAddr: 0x434, symBinAddr: 0x46F68, symSize: 0x1C }
  - { offset: 0x14D886, size: 0x8, addend: 0x0, symName: __ZN4core3ops8function6FnOnce9call_once17heea729ec66cced46E, symObjAddr: 0x450, symBinAddr: 0x46F84, symSize: 0x4C }
  - { offset: 0x14D94F, size: 0x8, addend: 0x0, symName: __ZN4core4hint16assert_unchecked18precondition_check17h1acd7fc8ce62e7dcE, symObjAddr: 0xA30, symBinAddr: 0x47504, symSize: 0x58 }
  - { offset: 0x14D99A, size: 0x8, addend: 0x0, symName: __ZN4core4hint21unreachable_unchecked18precondition_check17hfda1ee14890f7125E, symObjAddr: 0xA88, symBinAddr: 0x4755C, symSize: 0x3C }
  - { offset: 0x14DB4F, size: 0x8, addend: 0x0, symName: '__ZN4core5array76_$LT$impl$u20$core..default..Default$u20$for$u20$$u5b$T$u3b$$u20$32$u5d$$GT$7default17haf0941a0a288e332E', symObjAddr: 0xD64, symBinAddr: 0x47598, symSize: 0x110 }
  - { offset: 0x14DE08, size: 0x8, addend: 0x0, symName: '__ZN4core5array92_$LT$impl$u20$core..convert..AsMut$LT$$u5b$T$u5d$$GT$$u20$for$u20$$u5b$T$u3b$$u20$N$u5d$$GT$6as_mut17hd6c628f344b613e6E', symObjAddr: 0xE74, symBinAddr: 0x476A8, symSize: 0x1C }
  - { offset: 0x14E27C, size: 0x8, addend: 0x0, symName: '__ZN63_$LT$$RF$mut$u20$T$u20$as$u20$core..convert..AsRef$LT$U$GT$$GT$6as_ref17h9e1fc1ab656a9b8bE', symObjAddr: 0x16EC, symBinAddr: 0x47DC4, symSize: 0x28 }
  - { offset: 0x14F299, size: 0x8, addend: 0x0, symName: '__ZN112_$LT$rand..rngs..adapter..reseeding..ReseedingCore$LT$R$C$Rsdr$GT$$u20$as$u20$rand_core..block..BlockRngCore$GT$8generate17h95dfe547d19926d7E', symObjAddr: 0xBC, symBinAddr: 0x46C10, symSize: 0xE8 }
  - { offset: 0x14F47F, size: 0x8, addend: 0x0, symName: '__ZN4rand4rngs7adapter9reseeding29ReseedingCore$LT$R$C$Rsdr$GT$6reseed28_$u7b$$u7b$closure$u7d$$u7d$17h27b129268d83b101E', symObjAddr: 0x14B0, symBinAddr: 0x47B88, symSize: 0x54 }
  - { offset: 0x14F74B, size: 0x8, addend: 0x0, symName: '__ZN76_$LT$rand_chacha..chacha..ChaCha12Core$u20$as$u20$rand_core..SeedableRng$GT$9from_seed17h09340cdd4350e072E', symObjAddr: 0x1ED8, symBinAddr: 0x48060, symSize: 0x4BC }
  - { offset: 0x14FB3C, size: 0x8, addend: 0x0, symName: '__ZN84_$LT$rand_chacha..chacha..ChaCha12Core$u20$as$u20$rand_core..block..BlockRngCore$GT$8generate17hcadaae42e7611769E', symObjAddr: 0x2498, symBinAddr: 0x485D0, symSize: 0x9444 }
  - { offset: 0x1570BC, size: 0x8, addend: 0x0, symName: __ZN9rand_core11SeedableRng8from_rng17h1d18d98d0555871aE, symObjAddr: 0xBB40, symBinAddr: 0x51A14, symSize: 0x174 }
  - { offset: 0x157132, size: 0x8, addend: 0x0, symName: __ZN9rand_core11SeedableRng8from_rng17h59782d1ef7d6262bE, symObjAddr: 0xBCB4, symBinAddr: 0x51B88, symSize: 0x178 }
  - { offset: 0x15721C, size: 0x8, addend: 0x0, symName: '__ZN4rand4rngs7adapter9reseeding28ReseedingRng$LT$R$C$Rsdr$GT$3new17h720b4f1aa4944839E', symObjAddr: 0x1204, symBinAddr: 0x478DC, symSize: 0x84 }
  - { offset: 0x157289, size: 0x8, addend: 0x0, symName: '__ZN4rand4rngs7adapter9reseeding29ReseedingCore$LT$R$C$Rsdr$GT$19reseed_and_generate17h36dbe126247962bbE', symObjAddr: 0x1288, symBinAddr: 0x47960, symSize: 0x104 }
  - { offset: 0x157303, size: 0x8, addend: 0x0, symName: '__ZN4rand4rngs7adapter9reseeding29ReseedingCore$LT$R$C$Rsdr$GT$3new17hdaad8ee899c3948fE', symObjAddr: 0x138C, symBinAddr: 0x47A64, symSize: 0xE0 }
  - { offset: 0x157371, size: 0x8, addend: 0x0, symName: '__ZN4rand4rngs7adapter9reseeding29ReseedingCore$LT$R$C$Rsdr$GT$6reseed17he51ccc609e218677E', symObjAddr: 0x146C, symBinAddr: 0x47B44, symSize: 0x44 }
  - { offset: 0x1573B2, size: 0x8, addend: 0x0, symName: '__ZN4rand4rngs7adapter9reseeding29ReseedingCore$LT$R$C$Rsdr$GT$9is_forked17h691d82e5f1206e85E', symObjAddr: 0x1504, symBinAddr: 0x47BDC, symSize: 0x30 }
  - { offset: 0x157485, size: 0x8, addend: 0x0, symName: __ZN5alloc2rc10RcInnerPtr10inc_strong17he5fae06dde104a39E, symObjAddr: 0x1534, symBinAddr: 0x47C0C, symSize: 0x9C }
  - { offset: 0x1575A7, size: 0x8, addend: 0x0, symName: __ZN5alloc2rc10RcInnerPtr6strong17h6bb3f9f468999335E, symObjAddr: 0x15D0, symBinAddr: 0x47CA8, symSize: 0x28 }
  - { offset: 0x157777, size: 0x8, addend: 0x0, symName: '__ZN65_$LT$alloc..rc..Rc$LT$T$C$A$GT$$u20$as$u20$core..clone..Clone$GT$5clone17hb9cf8306be99e0f6E', symObjAddr: 0x174C, symBinAddr: 0x47DEC, symSize: 0x48 }
  - { offset: 0x1577F0, size: 0x8, addend: 0x0, symName: '__ZN68_$LT$alloc..rc..Rc$LT$T$C$A$GT$$u20$as$u20$core..ops..drop..Drop$GT$4drop17h9f41c8cb9e4e614bE', symObjAddr: 0x1A2C, symBinAddr: 0x47E34, symSize: 0x68 }
  - { offset: 0x157A5A, size: 0x8, addend: 0x0, symName: '__ZN70_$LT$alloc..rc..Weak$LT$T$C$A$GT$$u20$as$u20$core..ops..drop..Drop$GT$4drop17h16aa65e77f0568d2E', symObjAddr: 0x1A94, symBinAddr: 0x47E9C, symSize: 0x12C }
  - { offset: 0x157DEB, size: 0x8, addend: 0x0, symName: '__ZN5alloc2rc11Rc$LT$T$GT$3new17hba17540248ec5bafE', symObjAddr: 0x15F8, symBinAddr: 0x47CD0, symSize: 0xB0 }
  - { offset: 0x157F0D, size: 0x8, addend: 0x0, symName: '__ZN5alloc2rc15Rc$LT$T$C$A$GT$9drop_slow17h7afa1b35c2b65b62E', symObjAddr: 0x16A8, symBinAddr: 0x47D80, symSize: 0x44 }
  - { offset: 0x1583D1, size: 0x8, addend: 0x0, symName: '__ZN9rand_core5block17BlockRng$LT$R$GT$16generate_and_set17hda85f1222f11eaf2E', symObjAddr: 0xBE2C, symBinAddr: 0x51D00, symSize: 0x78 }
  - { offset: 0x15840A, size: 0x8, addend: 0x0, symName: '__ZN9rand_core5block17BlockRng$LT$R$GT$3new17hcb3d58d633bc21edE', symObjAddr: 0xBEA4, symBinAddr: 0x51D78, symSize: 0xF0 }
  - { offset: 0x158636, size: 0x8, addend: 0x0, symName: '__ZN3std4sync4once4Once9call_once28_$u7b$$u7b$closure$u7d$$u7d$17h65f6aed6bcc69143E', symObjAddr: 0x10A8, symBinAddr: 0x52A44, symSize: 0x60 }
  - { offset: 0x158853, size: 0x8, addend: 0x0, symName: __ZN3std3sys12thread_local6native4lazy7destroy17h313601ce2f8b7234E, symObjAddr: 0xF40, symBinAddr: 0x528DC, symSize: 0x30 }
  - { offset: 0x158889, size: 0x8, addend: 0x0, symName: '__ZN3std3sys12thread_local6native4lazy7destroy28_$u7b$$u7b$closure$u7d$$u7d$17hf2b98a4f9464795bE', symObjAddr: 0xF70, symBinAddr: 0x5290C, symSize: 0x64 }
  - { offset: 0x158944, size: 0x8, addend: 0x0, symName: '__ZN81_$LT$$LP$$RP$$u20$as$u20$std..sys..thread_local..native..lazy..DestroyedState$GT$13register_dtor17h8402f5936b844fe4E', symObjAddr: 0x2818, symBinAddr: 0x53A08, symSize: 0x34 }
  - { offset: 0x158B1E, size: 0x8, addend: 0x0, symName: '__ZN78_$LT$std..io..error..repr_bitpacked..Repr$u20$as$u20$core..ops..drop..Drop$GT$4drop28_$u7b$$u7b$closure$u7d$$u7d$17he57a98e2327d828cE', symObjAddr: 0x27DC, symBinAddr: 0x539CC, symSize: 0x3C }
  - { offset: 0x158BD3, size: 0x8, addend: 0x0, symName: '__ZN78_$LT$std..io..error..repr_bitpacked..Repr$u20$as$u20$core..ops..drop..Drop$GT$4drop17hda53b472ebf42f7cE', symObjAddr: 0x27A4, symBinAddr: 0x53994, symSize: 0x38 }
  - { offset: 0x158BFC, size: 0x8, addend: 0x0, symName: __ZN3std2io5error14repr_bitpacked11decode_repr17h40c26c7078a9bb1dE, symObjAddr: 0x68C, symBinAddr: 0x521C0, symSize: 0x1DC }
  - { offset: 0x158E41, size: 0x8, addend: 0x0, symName: __ZN3std2io5error14repr_bitpacked14kind_from_prim17h4e278bcff7af0d0eE, symObjAddr: 0x868, symBinAddr: 0x5239C, symSize: 0x4B0 }
  - { offset: 0x159888, size: 0x8, addend: 0x0, symName: __ZN3std2io5Write9write_all17h8b595a485c097787E, symObjAddr: 0x384, symBinAddr: 0x51EB8, symSize: 0x27C }
  - { offset: 0x159A78, size: 0x8, addend: 0x0, symName: __ZN3std2io5Write9write_fmt17h8699facff563398cE, symObjAddr: 0x600, symBinAddr: 0x52134, symSize: 0x8C }
  - { offset: 0x15A334, size: 0x8, addend: 0x0, symName: '__ZN4core3ptr8non_null16NonNull$LT$T$GT$13new_unchecked18precondition_check17h459a8cb194563645E', symObjAddr: 0x1590, symBinAddr: 0x52DD4, symSize: 0x58 }
  - { offset: 0x15A726, size: 0x8, addend: 0x0, symName: __ZN4core3ptr9alignment9Alignment13new_unchecked18precondition_check17hf9e4facdc54cb000E, symObjAddr: 0x15E8, symBinAddr: 0x52E2C, symSize: 0x70 }
  - { offset: 0x15AB4A, size: 0x8, addend: 0x0, symName: __ZN4core3ptr7replace18precondition_check17hf8f4ae2f5b5b7d2eE, symObjAddr: 0x14F4, symBinAddr: 0x52D38, symSize: 0x9C }
  - { offset: 0x15B0A0, size: 0x8, addend: 0x0, symName: __ZN4core4sync6atomic11atomic_load17h031089a9c87e4b54E, symObjAddr: 0x1A4C, symBinAddr: 0x52F98, symSize: 0xF8 }
  - { offset: 0x15B0E6, size: 0x8, addend: 0x0, symName: __ZN4core4sync6atomic11atomic_load17hbbe800973c609decE, symObjAddr: 0x1B44, symBinAddr: 0x53090, symSize: 0xF8 }
  - { offset: 0x15B138, size: 0x8, addend: 0x0, symName: '__ZN153_$LT$core..result..Result$LT$T$C$F$GT$$u20$as$u20$core..ops..try_trait..FromResidual$LT$core..result..Result$LT$core..convert..Infallible$C$E$GT$$GT$$GT$13from_residual17hf3d4942376d70c29E', symObjAddr: 0x320, symBinAddr: 0x51E68, symSize: 0x50 }
  - { offset: 0x15BE2B, size: 0x8, addend: 0x0, symName: '__ZN48_$LT$$RF$A$u20$as$u20$core..alloc..Allocator$GT$10deallocate17h15de60a1843a7933E', symObjAddr: 0x1228, symBinAddr: 0x52BC4, symSize: 0x38 }
  - { offset: 0x15BF43, size: 0x8, addend: 0x0, symName: __ZN4core5alloc6layout6Layout25from_size_align_unchecked18precondition_check17h497430803bbf0525E, symObjAddr: 0x1C3C, symBinAddr: 0x53188, symSize: 0xBC }
  - { offset: 0x15C125, size: 0x8, addend: 0x0, symName: __ZN4rand4rngs7adapter9reseeding4fork21register_fork_handler8REGISTER17h7dec3b6197d10f07E, symObjAddr: 0x3940, symBinAddr: 0x17C5E8, symSize: 0x0 }
  - { offset: 0x15C132, size: 0x8, addend: 0x0, symName: '__ZN4rand4rngs7adapter9reseeding4fork21register_fork_handler28_$u7b$$u7b$closure$u7d$$u7d$17h2992681051467a3cE', symObjAddr: 0x20BC, symBinAddr: 0x5358C, symSize: 0x74 }
  - { offset: 0x15C1B9, size: 0x8, addend: 0x0, symName: __ZN4rand4rngs7adapter9reseeding4fork26RESEEDING_RNG_FORK_COUNTER17hfb49d0d4347aa9a7E, symObjAddr: 0x208B0, symBinAddr: 0x17D3E8, symSize: 0x0 }
  - { offset: 0x15C1C6, size: 0x8, addend: 0x0, symName: __ZN4rand4rngs7adapter9reseeding4fork12fork_handler17h3ce68b2f0de63e70E, symObjAddr: 0x2048, symBinAddr: 0x53518, symSize: 0x30 }
  - { offset: 0x15C1E0, size: 0x8, addend: 0x0, symName: __ZN4rand4rngs7adapter9reseeding4fork16get_fork_counter17hb84b5093156cac04E, symObjAddr: 0x2078, symBinAddr: 0x53548, symSize: 0x20 }
  - { offset: 0x15C1FE, size: 0x8, addend: 0x0, symName: __ZN4rand4rngs7adapter9reseeding4fork21register_fork_handler17h36011568369f3763E, symObjAddr: 0x2098, symBinAddr: 0x53568, symSize: 0x24 }
  - { offset: 0x15C2DA, size: 0x8, addend: 0x0, symName: '__ZN4rand4rngs6thread14THREAD_RNG_KEY29_$u7b$$u7b$constant$u7d$$u7d$28_$u7b$$u7b$closure$u7d$$u7d$23__RUST_STD_INTERNAL_VAL17h61e46c4f7c90a816E', symObjAddr: 0x3928, symBinAddr: 0x17D028, symSize: 0x0 }
  - { offset: 0x15C2E9, size: 0x8, addend: 0x0, symName: '__ZN4rand4rngs6thread14THREAD_RNG_KEY29_$u7b$$u7b$constant$u7d$$u7d$28_$u7b$$u7b$closure$u7d$$u7d$17h10ce9355cd5c52a0E', symObjAddr: 0x2014, symBinAddr: 0x534E4, symSize: 0x34 }
  - { offset: 0x15C333, size: 0x8, addend: 0x0, symName: '__ZN4rand4rngs6thread14THREAD_RNG_KEY27__rust_std_internal_init_fn28_$u7b$$u7b$closure$u7d$$u7d$17hd5ee6fb927b3b11cE', symObjAddr: 0x1F7C, symBinAddr: 0x5344C, symSize: 0x98 }
  - { offset: 0x15C39C, size: 0x8, addend: 0x0, symName: __ZN4rand4rngs6thread14THREAD_RNG_KEY27__rust_std_internal_init_fn17h7320e53a6cebdfcfE, symObjAddr: 0x1ECC, symBinAddr: 0x5339C, symSize: 0xB0 }
  - { offset: 0x15C420, size: 0x8, addend: 0x0, symName: '__ZN4rand4rngs6thread10thread_rng28_$u7b$$u7b$closure$u7d$$u7d$17hf6bd9b7a2a11ef59E', symObjAddr: 0x1EA8, symBinAddr: 0x53378, symSize: 0x24 }
  - { offset: 0x15C457, size: 0x8, addend: 0x0, symName: __ZN4rand4rngs6thread10thread_rng17h84abb0c22e97e2b8E, symObjAddr: 0x1E7C, symBinAddr: 0x5334C, symSize: 0x2C }
  - { offset: 0x15C5B4, size: 0x8, addend: 0x0, symName: '__ZN59_$LT$alloc..alloc..Global$u20$as$u20$core..clone..Clone$GT$5clone17h476701be0fdfd54aE', symObjAddr: 0x2130, symBinAddr: 0x53600, symSize: 0x10 }
  - { offset: 0x15C60D, size: 0x8, addend: 0x0, symName: '__ZN63_$LT$alloc..alloc..Global$u20$as$u20$core..alloc..Allocator$GT$10deallocate17hbecf7b3b017010cbE', symObjAddr: 0x245C, symBinAddr: 0x5386C, symSize: 0x58 }
  - { offset: 0x15C6DC, size: 0x8, addend: 0x0, symName: __ZN5alloc5alloc15exchange_malloc17h92ae72b8ae1b1ed1E, symObjAddr: 0x2218, symBinAddr: 0x53628, symSize: 0xB0 }
  - { offset: 0x15C9E1, size: 0x8, addend: 0x0, symName: '__ZN72_$LT$alloc..vec..Vec$LT$T$C$A$GT$$u20$as$u20$core..ops..deref..Deref$GT$5deref17h0943b99bc1e48381E', symObjAddr: 0x26CC, symBinAddr: 0x53974, symSize: 0x20 }
  - { offset: 0x15CAAA, size: 0x8, addend: 0x0, symName: '__ZN72_$LT$alloc..boxed..Box$LT$T$C$A$GT$$u20$as$u20$core..ops..drop..Drop$GT$4drop17ha1e7fb77d14f5dc0E', symObjAddr: 0x261C, symBinAddr: 0x538C4, symSize: 0xB0 }
  - { offset: 0x15D153, size: 0x8, addend: 0x0, symName: '__ZN3std3sys12thread_local6native4lazy20Storage$LT$T$C$D$GT$11get_or_init17h93a3f388cba286d7E', symObjAddr: 0xD18, symBinAddr: 0x5284C, symSize: 0x90 }
  - { offset: 0x15D37D, size: 0x8, addend: 0x0, symName: '__ZN3std3sys12thread_local6native4lazy20Storage$LT$T$C$D$GT$16get_or_init_slow17ha50c7ed3736da1b3E', symObjAddr: 0xDA8, symBinAddr: 0xF010C, symSize: 0x198 }
  - { offset: 0x15D724, size: 0x8, addend: 0x0, symName: __ZN3std4sync4once4Once9call_once17h5bcf9bc01d5286eaE, symObjAddr: 0xFD4, symBinAddr: 0x52970, symSize: 0xD4 }
  - { offset: 0x15D81A, size: 0x8, addend: 0x0, symName: '__ZN3std6thread5local17LocalKey$LT$T$GT$4with17ha765f8ac05663155E', symObjAddr: 0x1108, symBinAddr: 0x52AA4, symSize: 0x54 }
  - { offset: 0x15D8D3, size: 0x8, addend: 0x0, symName: '__ZN3std6thread5local17LocalKey$LT$T$GT$8try_with17h671f01220eecd7deE', symObjAddr: 0x115C, symBinAddr: 0x52AF8, symSize: 0xCC }
  - { offset: 0x15DA5D, size: 0x8, addend: 0x0, symName: __ZN4core3fmt9Arguments23as_statically_known_str17h4f148fdbb4dc295eE, symObjAddr: 0x12F4, symBinAddr: 0x52BFC, symSize: 0x104 }
  - { offset: 0x15DB5E, size: 0x8, addend: 0x0, symName: __ZN4core3fmt9Arguments3new17h016e00c79a4b6aceE, symObjAddr: 0x13F8, symBinAddr: 0x52D00, symSize: 0x1C }
  - { offset: 0x15DBAA, size: 0x8, addend: 0x0, symName: __ZN4core3fmt9Arguments3new17h23c0f5c7976cd898E, symObjAddr: 0x1414, symBinAddr: 0x52D1C, symSize: 0x1C }
  - { offset: 0x15DBE9, size: 0x8, addend: 0x0, symName: __ZN4core4sync6atomic11AtomicUsize4load17h3bff467201317d79E, symObjAddr: 0x1950, symBinAddr: 0x52E9C, symSize: 0x24 }
  - { offset: 0x15DC51, size: 0x8, addend: 0x0, symName: __ZN4core4sync6atomic11AtomicUsize9fetch_add17h1b2f3fb229152f33E, symObjAddr: 0x1974, symBinAddr: 0x52EC0, symSize: 0xD8 }
  - { offset: 0x15DD41, size: 0x8, addend: 0x0, symName: '__ZN4core6result19Result$LT$T$C$E$GT$14unwrap_or_else17h05a03c389d18a9ebE', symObjAddr: 0x1CF8, symBinAddr: 0x53244, symSize: 0x68 }
  - { offset: 0x15DDC7, size: 0x8, addend: 0x0, symName: '__ZN4core6result19Result$LT$T$C$E$GT$3map17hf3f683a5342f01caE', symObjAddr: 0x1D60, symBinAddr: 0x532AC, symSize: 0xA0 }
  - { offset: 0x15DEEB, size: 0x8, addend: 0x0, symName: '__ZN5alloc3vec16Vec$LT$T$C$A$GT$3len17h6ded27c061df6a19E', symObjAddr: 0x2200, symBinAddr: 0x53610, symSize: 0x18 }
  - { offset: 0x15E0BA, size: 0x8, addend: 0x0, symName: __ZN5alloc5alloc6Global18alloc_impl_runtime17h27f68c31c9b914b8E, symObjAddr: 0x22C8, symBinAddr: 0x536D8, symSize: 0x194 }
  - { offset: 0x15E71A, size: 0x8, addend: 0x0, symName: '__ZN101_$LT$core..slice..iter..ChunksExactMut$LT$T$GT$$u20$as$u20$core..iter..traits..iterator..Iterator$GT$4next17h5870aaf3a76db4bbE', symObjAddr: 0x0, symBinAddr: 0x53A3C, symSize: 0x114 }
  - { offset: 0x15E7DF, size: 0x8, addend: 0x0, symName: '__ZN80_$LT$zerocopy..error..SizeError$LT$Src$C$Dst$GT$$u20$as$u20$core..fmt..Debug$GT$3fmt17h19bdb15f3608953aE', symObjAddr: 0x5418, symBinAddr: 0x55770, symSize: 0x50 }
  - { offset: 0x15E82E, size: 0x8, addend: 0x0, symName: '__ZN80_$LT$zerocopy..error..SizeError$LT$Src$C$Dst$GT$$u20$as$u20$core..fmt..Debug$GT$3fmt17h80e5ce8c010194d0E', symObjAddr: 0x5468, symBinAddr: 0x557C0, symSize: 0x50 }
  - { offset: 0x15EB55, size: 0x8, addend: 0x0, symName: '__ZN87_$LT$zerocopy..util..SendSyncPhantomData$LT$T$GT$$u20$as$u20$core..default..Default$GT$7default17h29608f8154af743cE', symObjAddr: 0x213C8, symBinAddr: 0x55850, symSize: 0x4 }
  - { offset: 0x15EB78, size: 0x8, addend: 0x0, symName: '__ZN87_$LT$zerocopy..util..SendSyncPhantomData$LT$T$GT$$u20$as$u20$core..default..Default$GT$7default17ha353e87b1fb8f095E', symObjAddr: 0x213CC, symBinAddr: 0x55854, symSize: 0x4 }
  - { offset: 0x15EB9B, size: 0x8, addend: 0x0, symName: '__ZN87_$LT$zerocopy..util..SendSyncPhantomData$LT$T$GT$$u20$as$u20$core..default..Default$GT$7default17hcf9c56e7d414cfd7E', symObjAddr: 0x213D0, symBinAddr: 0x55858, symSize: 0x4 }
  - { offset: 0x15EDCC, size: 0x8, addend: 0x0, symName: __ZN8zerocopy9FromBytes15read_from_bytes17h8d408538fea9d310E, symObjAddr: 0x2186C, symBinAddr: 0x55CBC, symSize: 0x114 }
  - { offset: 0x15EF44, size: 0x8, addend: 0x0, symName: __ZN8zerocopy9IntoBytes8write_to17hab89a4138114d0abE, symObjAddr: 0x21980, symBinAddr: 0x55DD0, symSize: 0x150 }
  - { offset: 0x15F0C4, size: 0x8, addend: 0x0, symName: __ZN10ppv_lite867generic5dmap217hceb912a475c79f6eE, symObjAddr: 0x21C, symBinAddr: 0x53C58, symSize: 0x1C0 }
  - { offset: 0x15F1E4, size: 0x8, addend: 0x0, symName: '__ZN84_$LT$ppv_lite86..generic..u32x4_generic$u20$as$u20$ppv_lite86..types..StoreBytes$GT$8write_le28_$u7b$$u7b$closure$u7d$$u7d$17ha03883f0f7774094E', symObjAddr: 0xE9C8, symBinAddr: 0x55830, symSize: 0x20 }
  - { offset: 0x15F22A, size: 0x8, addend: 0x0, symName: '__ZN84_$LT$ppv_lite86..generic..u32x4_generic$u20$as$u20$ppv_lite86..types..StoreBytes$GT$14unsafe_read_le28_$u7b$$u7b$closure$u7d$$u7d$17h9b1aae17c15b6c9cE', symObjAddr: 0xE9A8, symBinAddr: 0x55810, symSize: 0x20 }
  - { offset: 0x15F2F4, size: 0x8, addend: 0x0, symName: '__ZN76_$LT$ppv_lite86..generic..u32x4_generic$u20$as$u20$core..ops..arith..Add$GT$3add28_$u7b$$u7b$closure$u7d$$u7d$17he9856d6a7e283e27E', symObjAddr: 0x47F0, symBinAddr: 0x554C0, symSize: 0x24 }
  - { offset: 0x15F375, size: 0x8, addend: 0x0, symName: '__ZN77_$LT$ppv_lite86..generic..u32x4_generic$u20$as$u20$core..ops..bit..BitXor$GT$6bitxor28_$u7b$$u7b$closure$u7d$$u7d$17hbe1ae18609bd660fE', symObjAddr: 0x518C, symBinAddr: 0x554E4, symSize: 0x30 }
  - { offset: 0x15F3CC, size: 0x8, addend: 0x0, symName: '__ZN80_$LT$ppv_lite86..generic..u32x4_generic$u20$as$u20$ppv_lite86..types..Swap64$GT$6swap6428_$u7b$$u7b$closure$u7d$$u7d$17h248a47c58e676ae4E', symObjAddr: 0x51BC, symBinAddr: 0x55514, symSize: 0x28 }
  - { offset: 0x15F41F, size: 0x8, addend: 0x0, symName: '__ZN90_$LT$ppv_lite86..generic..u32x4_generic$u20$as$u20$ppv_lite86..types..RotateEachWord32$GT$24rotate_each_word_right1628_$u7b$$u7b$closure$u7d$$u7d$17h1418a8db578ddd89E', symObjAddr: 0x21AD0, symBinAddr: 0x55F20, symSize: 0x38 }
